ARM GAS  C:\Users\BIGBIG~1\AppData\Local\Temp\ccekfXHj.s 			page 1


   1              		.cpu cortex-m7
   2              		.eabi_attribute 28, 1
   3              		.eabi_attribute 20, 1
   4              		.eabi_attribute 21, 1
   5              		.eabi_attribute 23, 3
   6              		.eabi_attribute 24, 1
   7              		.eabi_attribute 25, 1
   8              		.eabi_attribute 26, 1
   9              		.eabi_attribute 30, 1
  10              		.eabi_attribute 34, 1
  11              		.eabi_attribute 18, 4
  12              		.file	"Gesture.c"
  13              		.text
  14              	.Ltext0:
  15              		.cfi_sections	.debug_frame
  16              		.section	.text.GestureDetectorHandler,"ax",%progbits
  17              		.align	1
  18              		.global	GestureDetectorHandler
  19              		.arch armv7e-m
  20              		.syntax unified
  21              		.thumb
  22              		.thumb_func
  23              		.fpu fpv5-d16
  25              	GestureDetectorHandler:
  26              	.LVL0:
  27              	.LFB141:
  28              		.file 1 "user/Src/Gesture.c"
   1:user/Src/Gesture.c **** /**
   2:user/Src/Gesture.c ****  * @file Gesture.c
   3:user/Src/Gesture.c ****  * @author Weigen Huang (weigen.huang.k7e@fh-zwickau.de)
   4:user/Src/Gesture.c ****  * @brief  
   5:user/Src/Gesture.c ****  * @version 0.1
   6:user/Src/Gesture.c ****  * @date 2021-07-20
   7:user/Src/Gesture.c ****  * 
   8:user/Src/Gesture.c ****  * @copyright Copyright (c) 2021
   9:user/Src/Gesture.c ****  * 
  10:user/Src/Gesture.c ****  */
  11:user/Src/Gesture.c **** #include "stm32f7xx_hal.h"
  12:user/Src/Gesture.c **** #include "6180a1.h"
  13:user/Src/Gesture.c **** #include "vl6180_i2c.h"
  14:user/Src/Gesture.c **** #include "vl6180_platform.h"
  15:user/Src/Gesture.c **** #include "vl6180_types.h"
  16:user/Src/Gesture.c **** 
  17:user/Src/Gesture.c **** extern I2C_HandleTypeDef hi2c1;
  18:user/Src/Gesture.c **** 
  19:user/Src/Gesture.c **** /**
  20:user/Src/Gesture.c ****  * @brief Gesture Detector
  21:user/Src/Gesture.c ****  * 
  22:user/Src/Gesture.c ****  * @param pvParameters 
  23:user/Src/Gesture.c ****  */
  24:user/Src/Gesture.c **** void GestureDetectorHandler(void *pvParameters)
  25:user/Src/Gesture.c **** {
  29              		.loc 1 25 1 view -0
  30              		.cfi_startproc
  31              		@ args = 0, pretend = 0, frame = 0
  32              		@ frame_needed = 0, uses_anonymous_args = 0
  33              		@ link register save eliminated.
ARM GAS  C:\Users\BIGBIG~1\AppData\Local\Temp\ccekfXHj.s 			page 2


  26:user/Src/Gesture.c **** 
  27:user/Src/Gesture.c **** }
  34              		.loc 1 27 1 view .LVU1
  35 0000 7047     		bx	lr
  36              		.cfi_endproc
  37              	.LFE141:
  39              		.section	.text.VL6180_I2CWrite,"ax",%progbits
  40              		.align	1
  41              		.global	VL6180_I2CWrite
  42              		.syntax unified
  43              		.thumb
  44              		.thumb_func
  45              		.fpu fpv5-d16
  47              	VL6180_I2CWrite:
  48              	.LVL1:
  49              	.LFB142:
  28:user/Src/Gesture.c **** 
  29:user/Src/Gesture.c **** #define i2c_bus      (&hi2c1)
  30:user/Src/Gesture.c **** #define def_i2c_time_out 100
  31:user/Src/Gesture.c **** 
  32:user/Src/Gesture.c **** int VL6180_I2CWrite(VL6180Dev_t dev, uint8_t *buff, uint8_t len) {
  50              		.loc 1 32 66 view -0
  51              		.cfi_startproc
  52              		@ args = 0, pretend = 0, frame = 0
  53              		@ frame_needed = 0, uses_anonymous_args = 0
  54              		.loc 1 32 66 is_stmt 0 view .LVU3
  55 0000 30B5     		push	{r4, r5, lr}
  56              	.LCFI0:
  57              		.cfi_def_cfa_offset 12
  58              		.cfi_offset 4, -12
  59              		.cfi_offset 5, -8
  60              		.cfi_offset 14, -4
  61 0002 83B0     		sub	sp, sp, #12
  62              	.LCFI1:
  63              		.cfi_def_cfa_offset 24
  64 0004 0C46     		mov	r4, r1
  65 0006 1346     		mov	r3, r2
  33:user/Src/Gesture.c ****     int status;
  66              		.loc 1 33 5 is_stmt 1 view .LVU4
  34:user/Src/Gesture.c ****     status = HAL_I2C_Master_Transmit(i2c_bus, dev->I2cAddr, buff, len, def_i2c_time_out);
  67              		.loc 1 34 5 view .LVU5
  68              		.loc 1 34 14 is_stmt 0 view .LVU6
  69 0008 90F88C10 		ldrb	r1, [r0, #140]	@ zero_extendqisi2
  70              	.LVL2:
  71              		.loc 1 34 14 view .LVU7
  72 000c 6422     		movs	r2, #100
  73              	.LVL3:
  74              		.loc 1 34 14 view .LVU8
  75 000e 0092     		str	r2, [sp]
  76 0010 2246     		mov	r2, r4
  77 0012 0848     		ldr	r0, .L8
  78              	.LVL4:
  79              		.loc 1 34 14 view .LVU9
  80 0014 FFF7FEFF 		bl	HAL_I2C_Master_Transmit
  81              	.LVL5:
  82 0018 0446     		mov	r4, r0
  83              	.LVL6:
ARM GAS  C:\Users\BIGBIG~1\AppData\Local\Temp\ccekfXHj.s 			page 3


  84              		.loc 1 34 12 view .LVU10
  85 001a 0546     		mov	r5, r0
  86              	.LVL7:
  35:user/Src/Gesture.c ****     if (status) {
  87              		.loc 1 35 5 is_stmt 1 view .LVU11
  88              		.loc 1 35 8 is_stmt 0 view .LVU12
  89 001c 18B9     		cbnz	r0, .L6
  90              	.LVL8:
  91              	.L3:
  36:user/Src/Gesture.c ****         XNUCLEO6180XA1_I2C1_Init(&hi2c1);
  37:user/Src/Gesture.c ****     }
  38:user/Src/Gesture.c ****     return status? -1 : 0;
  92              		.loc 1 38 5 is_stmt 1 view .LVU13
  93              		.loc 1 38 23 is_stmt 0 view .LVU14
  94 001e 34B9     		cbnz	r4, .L7
  95              	.L2:
  39:user/Src/Gesture.c **** }
  96              		.loc 1 39 1 view .LVU15
  97 0020 2846     		mov	r0, r5
  98 0022 03B0     		add	sp, sp, #12
  99              	.LCFI2:
 100              		.cfi_remember_state
 101              		.cfi_def_cfa_offset 12
 102              		@ sp needed
 103 0024 30BD     		pop	{r4, r5, pc}
 104              	.LVL9:
 105              	.L6:
 106              	.LCFI3:
 107              		.cfi_restore_state
  36:user/Src/Gesture.c ****         XNUCLEO6180XA1_I2C1_Init(&hi2c1);
 108              		.loc 1 36 9 is_stmt 1 view .LVU16
 109 0026 0348     		ldr	r0, .L8
 110              	.LVL10:
  36:user/Src/Gesture.c ****         XNUCLEO6180XA1_I2C1_Init(&hi2c1);
 111              		.loc 1 36 9 is_stmt 0 view .LVU17
 112 0028 FFF7FEFF 		bl	XNUCLEO6180XA1_I2C1_Init
 113              	.LVL11:
 114 002c F7E7     		b	.L3
 115              	.L7:
  38:user/Src/Gesture.c **** }
 116              		.loc 1 38 23 view .LVU18
 117 002e 4FF0FF35 		mov	r5, #-1
 118 0032 F5E7     		b	.L2
 119              	.L9:
 120              		.align	2
 121              	.L8:
 122 0034 00000000 		.word	hi2c1
 123              		.cfi_endproc
 124              	.LFE142:
 126              		.section	.text.VL6180_I2CRead,"ax",%progbits
 127              		.align	1
 128              		.global	VL6180_I2CRead
 129              		.syntax unified
 130              		.thumb
 131              		.thumb_func
 132              		.fpu fpv5-d16
 134              	VL6180_I2CRead:
ARM GAS  C:\Users\BIGBIG~1\AppData\Local\Temp\ccekfXHj.s 			page 4


 135              	.LVL12:
 136              	.LFB143:
  40:user/Src/Gesture.c **** 
  41:user/Src/Gesture.c **** int VL6180_I2CRead(VL6180Dev_t dev, uint8_t *buff, uint8_t len) {
 137              		.loc 1 41 65 is_stmt 1 view -0
 138              		.cfi_startproc
 139              		@ args = 0, pretend = 0, frame = 0
 140              		@ frame_needed = 0, uses_anonymous_args = 0
 141              		.loc 1 41 65 is_stmt 0 view .LVU20
 142 0000 30B5     		push	{r4, r5, lr}
 143              	.LCFI4:
 144              		.cfi_def_cfa_offset 12
 145              		.cfi_offset 4, -12
 146              		.cfi_offset 5, -8
 147              		.cfi_offset 14, -4
 148 0002 83B0     		sub	sp, sp, #12
 149              	.LCFI5:
 150              		.cfi_def_cfa_offset 24
 151 0004 0C46     		mov	r4, r1
 152 0006 1346     		mov	r3, r2
  42:user/Src/Gesture.c ****     int status;
 153              		.loc 1 42 5 is_stmt 1 view .LVU21
  43:user/Src/Gesture.c ****     status = HAL_I2C_Master_Receive(i2c_bus, dev->I2cAddr, buff, len, def_i2c_time_out);
 154              		.loc 1 43 5 view .LVU22
 155              		.loc 1 43 14 is_stmt 0 view .LVU23
 156 0008 90F88C10 		ldrb	r1, [r0, #140]	@ zero_extendqisi2
 157              	.LVL13:
 158              		.loc 1 43 14 view .LVU24
 159 000c 6422     		movs	r2, #100
 160              	.LVL14:
 161              		.loc 1 43 14 view .LVU25
 162 000e 0092     		str	r2, [sp]
 163 0010 2246     		mov	r2, r4
 164 0012 0848     		ldr	r0, .L16
 165              	.LVL15:
 166              		.loc 1 43 14 view .LVU26
 167 0014 FFF7FEFF 		bl	HAL_I2C_Master_Receive
 168              	.LVL16:
 169 0018 0446     		mov	r4, r0
 170              	.LVL17:
 171              		.loc 1 43 12 view .LVU27
 172 001a 0546     		mov	r5, r0
 173              	.LVL18:
  44:user/Src/Gesture.c ****     if (status) {
 174              		.loc 1 44 5 is_stmt 1 view .LVU28
 175              		.loc 1 44 8 is_stmt 0 view .LVU29
 176 001c 18B9     		cbnz	r0, .L14
 177              	.LVL19:
 178              	.L11:
  45:user/Src/Gesture.c ****         XNUCLEO6180XA1_I2C1_Init(&hi2c1);
  46:user/Src/Gesture.c ****     }
  47:user/Src/Gesture.c **** 
  48:user/Src/Gesture.c ****     return status? -1 : 0;
 179              		.loc 1 48 5 is_stmt 1 view .LVU30
 180              		.loc 1 48 23 is_stmt 0 view .LVU31
 181 001e 34B9     		cbnz	r4, .L15
 182              	.L10:
ARM GAS  C:\Users\BIGBIG~1\AppData\Local\Temp\ccekfXHj.s 			page 5


  49:user/Src/Gesture.c **** }...
 183              		.loc 1 49 1 view .LVU32
 184 0020 2846     		mov	r0, r5
 185 0022 03B0     		add	sp, sp, #12
 186              	.LCFI6:
 187              		.cfi_remember_state
 188              		.cfi_def_cfa_offset 12
 189              		@ sp needed
 190 0024 30BD     		pop	{r4, r5, pc}
 191              	.LVL20:
 192              	.L14:
 193              	.LCFI7:
 194              		.cfi_restore_state
  45:user/Src/Gesture.c ****         XNUCLEO6180XA1_I2C1_Init(&hi2c1);
 195              		.loc 1 45 9 is_stmt 1 view .LVU33
 196 0026 0348     		ldr	r0, .L16
 197              	.LVL21:
  45:user/Src/Gesture.c ****         XNUCLEO6180XA1_I2C1_Init(&hi2c1);
 198              		.loc 1 45 9 is_stmt 0 view .LVU34
 199 0028 FFF7FEFF 		bl	XNUCLEO6180XA1_I2C1_Init
 200              	.LVL22:
 201 002c F7E7     		b	.L11
 202              	.L15:
  48:user/Src/Gesture.c ****     return status? -1 : 0;
 203              		.loc 1 48 23 view .LVU35
 204 002e 4FF0FF35 		mov	r5, #-1
 205 0032 F5E7     		b	.L10
 206              	.L17:
 207              		.align	2
 208              	.L16:
 209 0034 00000000 		.word	hi2c1
 210              		.cfi_endproc
 211              	.LFE143:
 213              		.text
 214              	.Letext0:
 215              		.file 2 "c:\\program files (x86)\\gnu arm embedded toolchain\\9 2020-q2-update\\arm-none-eabi\\inc
 216              		.file 3 "c:\\program files (x86)\\gnu arm embedded toolchain\\9 2020-q2-update\\arm-none-eabi\\inc
 217              		.file 4 "dev/CMSIS/Include/core_cm7.h"
 218              		.file 5 "dev/CMSIS/Device/ST/STM32F7xx/Include/system_stm32f7xx.h"
 219              		.file 6 "dev/CMSIS/Device/ST/STM32F7xx/Include/stm32f767xx.h"
 220              		.file 7 "dev/STM32F7xx_HAL_Driver/Inc/stm32f7xx_hal_def.h"
 221              		.file 8 "dev/STM32F7xx_HAL_Driver/Inc/stm32f7xx_hal_dma.h"
 222              		.file 9 "dev/STM32F7xx_HAL_Driver/Inc/stm32f7xx_hal_i2c.h"
 223              		.file 10 "dev/STM32F7xx_HAL_Driver/Inc/stm32f7xx_hal.h"
 224              		.file 11 "dev/BSP/Components/vl6180/vl6180_def.h"
 225              		.file 12 "user/Inc/vl6180_platform.h"
 226              		.file 13 "dev/BSP/6180A1/6180a1.h"
ARM GAS  C:\Users\BIGBIG~1\AppData\Local\Temp\ccekfXHj.s 			page 6

