ARM GAS  C:\Users\BIGBIG~1\AppData\Local\Temp\cclFCGkR.s 			page 1


   1              		.cpu cortex-m7
   2              		.eabi_attribute 28, 1
   3              		.eabi_attribute 20, 1
   4              		.eabi_attribute 21, 1
   5              		.eabi_attribute 23, 3
   6              		.eabi_attribute 24, 1
   7              		.eabi_attribute 25, 1
   8              		.eabi_attribute 26, 1
   9              		.eabi_attribute 30, 1
  10              		.eabi_attribute 34, 1
  11              		.eabi_attribute 18, 4
  12              		.file	"stm32f7xx_hal_msp.c"
  13              		.text
  14              	.Ltext0:
  15              		.cfi_sections	.debug_frame
  16              		.section	.text.HAL_MspInit,"ax",%progbits
  17              		.align	1
  18              		.global	HAL_MspInit
  19              		.arch armv7e-m
  20              		.syntax unified
  21              		.thumb
  22              		.thumb_func
  23              		.fpu fpv5-d16
  25              	HAL_MspInit:
  26              	.LFB141:
  27              		.file 1 "user/Src/stm32f7xx_hal_msp.c"
   1:user/Src/stm32f7xx_hal_msp.c **** /**
   2:user/Src/stm32f7xx_hal_msp.c ****   ******************************************************************************
   3:user/Src/stm32f7xx_hal_msp.c ****   * File Name          : stm32f7xx_hal_msp.c
   4:user/Src/stm32f7xx_hal_msp.c ****   * Description        : This file provides code for the MSP Initialization
   5:user/Src/stm32f7xx_hal_msp.c ****   *                      and de-Initialization codes.
   6:user/Src/stm32f7xx_hal_msp.c ****   ******************************************************************************
   7:user/Src/stm32f7xx_hal_msp.c ****   * @attention
   8:user/Src/stm32f7xx_hal_msp.c ****   *
   9:user/Src/stm32f7xx_hal_msp.c ****   * <h2><center>&copy; Copyright (c) 2020 STMicroelectronics.
  10:user/Src/stm32f7xx_hal_msp.c ****   * All rights reserved.</center></h2>
  11:user/Src/stm32f7xx_hal_msp.c ****   *
  12:user/Src/stm32f7xx_hal_msp.c ****   * This software component is licensed by ST under Ultimate Liberty license
  13:user/Src/stm32f7xx_hal_msp.c ****   * SLA0044, the "License"; You may not use this file except in compliance with
  14:user/Src/stm32f7xx_hal_msp.c ****   * the License. You may obtain a copy of the License at:
  15:user/Src/stm32f7xx_hal_msp.c ****   *                             www.st.com/SLA0044
  16:user/Src/stm32f7xx_hal_msp.c ****   *
  17:user/Src/stm32f7xx_hal_msp.c ****   ******************************************************************************
  18:user/Src/stm32f7xx_hal_msp.c ****   */
  19:user/Src/stm32f7xx_hal_msp.c **** 
  20:user/Src/stm32f7xx_hal_msp.c **** 
  21:user/Src/stm32f7xx_hal_msp.c **** /* Includes ------------------------------------------------------------------*/
  22:user/Src/stm32f7xx_hal_msp.c **** #include "main.h"
  23:user/Src/stm32f7xx_hal_msp.c **** #include "core_cm7.h"
  24:user/Src/stm32f7xx_hal_msp.c **** /**
  25:user/Src/stm32f7xx_hal_msp.c ****   * Initializes the Global MSP.
  26:user/Src/stm32f7xx_hal_msp.c ****   */
  27:user/Src/stm32f7xx_hal_msp.c **** void HAL_MspInit(void)
  28:user/Src/stm32f7xx_hal_msp.c **** {
  28              		.loc 1 28 1 view -0
  29              		.cfi_startproc
  30              		@ args = 0, pretend = 0, frame = 8
ARM GAS  C:\Users\BIGBIG~1\AppData\Local\Temp\cclFCGkR.s 			page 2


  31              		@ frame_needed = 0, uses_anonymous_args = 0
  32              		@ link register save eliminated.
  33 0000 82B0     		sub	sp, sp, #8
  34              	.LCFI0:
  35              		.cfi_def_cfa_offset 8
  29:user/Src/stm32f7xx_hal_msp.c ****   __HAL_RCC_PWR_CLK_ENABLE();
  36              		.loc 1 29 3 view .LVU1
  37              	.LBB2:
  38              		.loc 1 29 3 view .LVU2
  39              		.loc 1 29 3 view .LVU3
  40 0002 0F4B     		ldr	r3, .L3
  41 0004 1A6C     		ldr	r2, [r3, #64]
  42 0006 42F08052 		orr	r2, r2, #268435456
  43 000a 1A64     		str	r2, [r3, #64]
  44              		.loc 1 29 3 view .LVU4
  45 000c 1A6C     		ldr	r2, [r3, #64]
  46 000e 02F08052 		and	r2, r2, #268435456
  47 0012 0092     		str	r2, [sp]
  48              		.loc 1 29 3 view .LVU5
  49 0014 009A     		ldr	r2, [sp]
  50              	.LBE2:
  51              		.loc 1 29 3 view .LVU6
  30:user/Src/stm32f7xx_hal_msp.c ****   __HAL_RCC_SYSCFG_CLK_ENABLE();
  52              		.loc 1 30 3 view .LVU7
  53              	.LBB3:
  54              		.loc 1 30 3 view .LVU8
  55              		.loc 1 30 3 view .LVU9
  56 0016 5A6C     		ldr	r2, [r3, #68]
  57 0018 42F48042 		orr	r2, r2, #16384
  58 001c 5A64     		str	r2, [r3, #68]
  59              		.loc 1 30 3 view .LVU10
  60 001e 5B6C     		ldr	r3, [r3, #68]
  61 0020 03F48043 		and	r3, r3, #16384
  62 0024 0193     		str	r3, [sp, #4]
  63              		.loc 1 30 3 view .LVU11
  64 0026 019B     		ldr	r3, [sp, #4]
  65              	.LBE3:
  66              		.loc 1 30 3 view .LVU12
  31:user/Src/stm32f7xx_hal_msp.c **** 
  32:user/Src/stm32f7xx_hal_msp.c ****   /* System interrupt init*/
  33:user/Src/stm32f7xx_hal_msp.c **** 
  34:user/Src/stm32f7xx_hal_msp.c ****   /* enable usagefault */
  35:user/Src/stm32f7xx_hal_msp.c ****   SCB->SHCSR = 1<<SCB_SHCSR_USGFAULTENA_Pos;  
  67              		.loc 1 35 3 view .LVU13
  68              		.loc 1 35 14 is_stmt 0 view .LVU14
  69 0028 064B     		ldr	r3, .L3+4
  70 002a 4FF48022 		mov	r2, #262144
  71 002e 5A62     		str	r2, [r3, #36]
  36:user/Src/stm32f7xx_hal_msp.c ****   /* enable busfault */
  37:user/Src/stm32f7xx_hal_msp.c ****   SCB->SHCSR = 1<<SCB_SHCSR_BUSFAULTENA_Pos;
  72              		.loc 1 37 3 is_stmt 1 view .LVU15
  73              		.loc 1 37 14 is_stmt 0 view .LVU16
  74 0030 4FF40032 		mov	r2, #131072
  75 0034 5A62     		str	r2, [r3, #36]
  38:user/Src/stm32f7xx_hal_msp.c ****   /* enable memfault */
  39:user/Src/stm32f7xx_hal_msp.c ****   SCB->SHCSR = 1<<SCB_SHCSR_MEMFAULTENA_Pos;
  76              		.loc 1 39 3 is_stmt 1 view .LVU17
ARM GAS  C:\Users\BIGBIG~1\AppData\Local\Temp\cclFCGkR.s 			page 3


  77              		.loc 1 39 14 is_stmt 0 view .LVU18
  78 0036 4FF48032 		mov	r2, #65536
  79 003a 5A62     		str	r2, [r3, #36]
  40:user/Src/stm32f7xx_hal_msp.c **** }
  80              		.loc 1 40 1 view .LVU19
  81 003c 02B0     		add	sp, sp, #8
  82              	.LCFI1:
  83              		.cfi_def_cfa_offset 0
  84              		@ sp needed
  85 003e 7047     		bx	lr
  86              	.L4:
  87              		.align	2
  88              	.L3:
  89 0040 00380240 		.word	1073887232
  90 0044 00ED00E0 		.word	-536810240
  91              		.cfi_endproc
  92              	.LFE141:
  94              		.section	.text.HAL_I2C_MspInit,"ax",%progbits
  95              		.align	1
  96              		.global	HAL_I2C_MspInit
  97              		.syntax unified
  98              		.thumb
  99              		.thumb_func
 100              		.fpu fpv5-d16
 102              	HAL_I2C_MspInit:
 103              	.LVL0:
 104              	.LFB142:
  41:user/Src/stm32f7xx_hal_msp.c **** 
  42:user/Src/stm32f7xx_hal_msp.c **** void HAL_I2C_MspInit(I2C_HandleTypeDef* hi2c)
  43:user/Src/stm32f7xx_hal_msp.c **** {
 105              		.loc 1 43 1 is_stmt 1 view -0
 106              		.cfi_startproc
 107              		@ args = 0, pretend = 0, frame = 24
 108              		@ frame_needed = 0, uses_anonymous_args = 0
  44:user/Src/stm32f7xx_hal_msp.c **** 
  45:user/Src/stm32f7xx_hal_msp.c ****   GPIO_InitTypeDef GPIO_InitStruct;
 109              		.loc 1 45 3 view .LVU21
  46:user/Src/stm32f7xx_hal_msp.c ****   if(hi2c->Instance==I2C1)
 110              		.loc 1 46 3 view .LVU22
 111              		.loc 1 46 10 is_stmt 0 view .LVU23
 112 0000 0268     		ldr	r2, [r0]
 113              		.loc 1 46 5 view .LVU24
 114 0002 114B     		ldr	r3, .L12
 115 0004 9A42     		cmp	r2, r3
 116 0006 00D0     		beq	.L11
 117 0008 7047     		bx	lr
 118              	.L11:
  43:user/Src/stm32f7xx_hal_msp.c **** 
 119              		.loc 1 43 1 view .LVU25
 120 000a 00B5     		push	{lr}
 121              	.LCFI2:
 122              		.cfi_def_cfa_offset 4
 123              		.cfi_offset 14, -4
 124 000c 87B0     		sub	sp, sp, #28
 125              	.LCFI3:
 126              		.cfi_def_cfa_offset 32
  47:user/Src/stm32f7xx_hal_msp.c ****   {
ARM GAS  C:\Users\BIGBIG~1\AppData\Local\Temp\cclFCGkR.s 			page 4


  48:user/Src/stm32f7xx_hal_msp.c ****   /* USER CODE BEGIN I2C1_MspInit 0 */
  49:user/Src/stm32f7xx_hal_msp.c **** 
  50:user/Src/stm32f7xx_hal_msp.c ****   /* USER CODE END I2C1_MspInit 0 */
  51:user/Src/stm32f7xx_hal_msp.c ****   
  52:user/Src/stm32f7xx_hal_msp.c ****     /**I2C1 GPIO Configuration    
  53:user/Src/stm32f7xx_hal_msp.c ****     PB8     ------> I2C1_SCL
  54:user/Src/stm32f7xx_hal_msp.c ****     PB9     ------> I2C1_SDA 
  55:user/Src/stm32f7xx_hal_msp.c ****     */
  56:user/Src/stm32f7xx_hal_msp.c ****     GPIO_InitStruct.Pin = GPIO_PIN_8|GPIO_PIN_9;
 127              		.loc 1 56 5 is_stmt 1 view .LVU26
 128              		.loc 1 56 25 is_stmt 0 view .LVU27
 129 000e 4FF44073 		mov	r3, #768
 130 0012 0193     		str	r3, [sp, #4]
  57:user/Src/stm32f7xx_hal_msp.c ****     GPIO_InitStruct.Mode = GPIO_MODE_AF_OD;
 131              		.loc 1 57 5 is_stmt 1 view .LVU28
 132              		.loc 1 57 26 is_stmt 0 view .LVU29
 133 0014 1223     		movs	r3, #18
 134 0016 0293     		str	r3, [sp, #8]
  58:user/Src/stm32f7xx_hal_msp.c ****     GPIO_InitStruct.Pull = GPIO_PULLUP;
 135              		.loc 1 58 5 is_stmt 1 view .LVU30
 136              		.loc 1 58 26 is_stmt 0 view .LVU31
 137 0018 0123     		movs	r3, #1
 138 001a 0393     		str	r3, [sp, #12]
  59:user/Src/stm32f7xx_hal_msp.c ****     GPIO_InitStruct.Speed = GPIO_SPEED_FREQ_VERY_HIGH;
 139              		.loc 1 59 5 is_stmt 1 view .LVU32
 140              		.loc 1 59 27 is_stmt 0 view .LVU33
 141 001c 0323     		movs	r3, #3
 142 001e 0493     		str	r3, [sp, #16]
  60:user/Src/stm32f7xx_hal_msp.c ****     GPIO_InitStruct.Alternate = GPIO_AF4_I2C1;
 143              		.loc 1 60 5 is_stmt 1 view .LVU34
 144              		.loc 1 60 31 is_stmt 0 view .LVU35
 145 0020 0423     		movs	r3, #4
 146 0022 0593     		str	r3, [sp, #20]
  61:user/Src/stm32f7xx_hal_msp.c ****     HAL_GPIO_Init(GPIOB, &GPIO_InitStruct);
 147              		.loc 1 61 5 is_stmt 1 view .LVU36
 148 0024 0DEB0301 		add	r1, sp, r3
 149 0028 0848     		ldr	r0, .L12+4
 150              	.LVL1:
 151              		.loc 1 61 5 is_stmt 0 view .LVU37
 152 002a FFF7FEFF 		bl	HAL_GPIO_Init
 153              	.LVL2:
  62:user/Src/stm32f7xx_hal_msp.c **** 
  63:user/Src/stm32f7xx_hal_msp.c ****     /* Peripheral clock enable */
  64:user/Src/stm32f7xx_hal_msp.c ****     __HAL_RCC_I2C1_CLK_ENABLE();
 154              		.loc 1 64 5 is_stmt 1 view .LVU38
 155              	.LBB4:
 156              		.loc 1 64 5 view .LVU39
 157              		.loc 1 64 5 view .LVU40
 158 002e 084B     		ldr	r3, .L12+8
 159 0030 1A6C     		ldr	r2, [r3, #64]
 160 0032 42F40012 		orr	r2, r2, #2097152
 161 0036 1A64     		str	r2, [r3, #64]
 162              		.loc 1 64 5 view .LVU41
 163 0038 1B6C     		ldr	r3, [r3, #64]
 164 003a 03F40013 		and	r3, r3, #2097152
 165 003e 0093     		str	r3, [sp]
 166              		.loc 1 64 5 view .LVU42
ARM GAS  C:\Users\BIGBIG~1\AppData\Local\Temp\cclFCGkR.s 			page 5


 167 0040 009B     		ldr	r3, [sp]
 168              	.LBE4:
 169              		.loc 1 64 5 view .LVU43
  65:user/Src/stm32f7xx_hal_msp.c ****   /* USER CODE BEGIN I2C1_MspInit 1 */
  66:user/Src/stm32f7xx_hal_msp.c **** 
  67:user/Src/stm32f7xx_hal_msp.c ****   /* USER CODE END I2C1_MspInit 1 */
  68:user/Src/stm32f7xx_hal_msp.c ****   }
  69:user/Src/stm32f7xx_hal_msp.c **** 
  70:user/Src/stm32f7xx_hal_msp.c **** }
 170              		.loc 1 70 1 is_stmt 0 view .LVU44
 171 0042 07B0     		add	sp, sp, #28
 172              	.LCFI4:
 173              		.cfi_def_cfa_offset 4
 174              		@ sp needed
 175 0044 5DF804FB 		ldr	pc, [sp], #4
 176              	.L13:
 177              		.align	2
 178              	.L12:
 179 0048 00540040 		.word	1073763328
 180 004c 00040240 		.word	1073873920
 181 0050 00380240 		.word	1073887232
 182              		.cfi_endproc
 183              	.LFE142:
 185              		.section	.text.HAL_I2C_MspDeInit,"ax",%progbits
 186              		.align	1
 187              		.global	HAL_I2C_MspDeInit
 188              		.syntax unified
 189              		.thumb
 190              		.thumb_func
 191              		.fpu fpv5-d16
 193              	HAL_I2C_MspDeInit:
 194              	.LVL3:
 195              	.LFB143:
  71:user/Src/stm32f7xx_hal_msp.c **** 
  72:user/Src/stm32f7xx_hal_msp.c **** void HAL_I2C_MspDeInit(I2C_HandleTypeDef* hi2c)
  73:user/Src/stm32f7xx_hal_msp.c **** {
 196              		.loc 1 73 1 is_stmt 1 view -0
 197              		.cfi_startproc
 198              		@ args = 0, pretend = 0, frame = 0
 199              		@ frame_needed = 0, uses_anonymous_args = 0
 200              		.loc 1 73 1 is_stmt 0 view .LVU46
 201 0000 08B5     		push	{r3, lr}
 202              	.LCFI5:
 203              		.cfi_def_cfa_offset 8
 204              		.cfi_offset 3, -8
 205              		.cfi_offset 14, -4
  74:user/Src/stm32f7xx_hal_msp.c **** 
  75:user/Src/stm32f7xx_hal_msp.c ****   if(hi2c->Instance==I2C1)
 206              		.loc 1 75 3 is_stmt 1 view .LVU47
 207              		.loc 1 75 10 is_stmt 0 view .LVU48
 208 0002 0268     		ldr	r2, [r0]
 209              		.loc 1 75 5 view .LVU49
 210 0004 074B     		ldr	r3, .L18
 211 0006 9A42     		cmp	r2, r3
 212 0008 00D0     		beq	.L17
 213              	.LVL4:
 214              	.L14:
ARM GAS  C:\Users\BIGBIG~1\AppData\Local\Temp\cclFCGkR.s 			page 6


  76:user/Src/stm32f7xx_hal_msp.c ****   {
  77:user/Src/stm32f7xx_hal_msp.c ****     /* Peripheral clock disable */
  78:user/Src/stm32f7xx_hal_msp.c ****     __HAL_RCC_I2C1_CLK_DISABLE();
  79:user/Src/stm32f7xx_hal_msp.c ****   
  80:user/Src/stm32f7xx_hal_msp.c ****     /**I2C1 GPIO Configuration    
  81:user/Src/stm32f7xx_hal_msp.c ****     PB8     ------> I2C1_SCL
  82:user/Src/stm32f7xx_hal_msp.c ****     PB9     ------> I2C1_SDA 
  83:user/Src/stm32f7xx_hal_msp.c ****     */
  84:user/Src/stm32f7xx_hal_msp.c ****     HAL_GPIO_DeInit(GPIOB, GPIO_PIN_8|GPIO_PIN_9);
  85:user/Src/stm32f7xx_hal_msp.c **** 
  86:user/Src/stm32f7xx_hal_msp.c ****   }
  87:user/Src/stm32f7xx_hal_msp.c **** 
  88:user/Src/stm32f7xx_hal_msp.c **** }
 215              		.loc 1 88 1 view .LVU50
 216 000a 08BD     		pop	{r3, pc}
 217              	.LVL5:
 218              	.L17:
  78:user/Src/stm32f7xx_hal_msp.c ****   
 219              		.loc 1 78 5 is_stmt 1 view .LVU51
 220 000c 064A     		ldr	r2, .L18+4
 221 000e 136C     		ldr	r3, [r2, #64]
 222 0010 23F40013 		bic	r3, r3, #2097152
 223 0014 1364     		str	r3, [r2, #64]
  84:user/Src/stm32f7xx_hal_msp.c **** 
 224              		.loc 1 84 5 view .LVU52
 225 0016 4FF44071 		mov	r1, #768
 226 001a 0448     		ldr	r0, .L18+8
 227              	.LVL6:
  84:user/Src/stm32f7xx_hal_msp.c **** 
 228              		.loc 1 84 5 is_stmt 0 view .LVU53
 229 001c FFF7FEFF 		bl	HAL_GPIO_DeInit
 230              	.LVL7:
 231              		.loc 1 88 1 view .LVU54
 232 0020 F3E7     		b	.L14
 233              	.L19:
 234 0022 00BF     		.align	2
 235              	.L18:
 236 0024 00540040 		.word	1073763328
 237 0028 00380240 		.word	1073887232
 238 002c 00040240 		.word	1073873920
 239              		.cfi_endproc
 240              	.LFE143:
 242              		.section	.text.HAL_UART_MspInit,"ax",%progbits
 243              		.align	1
 244              		.global	HAL_UART_MspInit
 245              		.syntax unified
 246              		.thumb
 247              		.thumb_func
 248              		.fpu fpv5-d16
 250              	HAL_UART_MspInit:
 251              	.LVL8:
 252              	.LFB144:
  89:user/Src/stm32f7xx_hal_msp.c **** 
  90:user/Src/stm32f7xx_hal_msp.c **** /**
  91:user/Src/stm32f7xx_hal_msp.c **** * @brief UART MSP Initialization
  92:user/Src/stm32f7xx_hal_msp.c **** * This function configures the hardware resources used in this example
  93:user/Src/stm32f7xx_hal_msp.c **** * @param huart: UART handle pointer
ARM GAS  C:\Users\BIGBIG~1\AppData\Local\Temp\cclFCGkR.s 			page 7


  94:user/Src/stm32f7xx_hal_msp.c **** * @retval None
  95:user/Src/stm32f7xx_hal_msp.c **** */
  96:user/Src/stm32f7xx_hal_msp.c **** void HAL_UART_MspInit(UART_HandleTypeDef* huart)
  97:user/Src/stm32f7xx_hal_msp.c **** {
 253              		.loc 1 97 1 is_stmt 1 view -0
 254              		.cfi_startproc
 255              		@ args = 0, pretend = 0, frame = 32
 256              		@ frame_needed = 0, uses_anonymous_args = 0
 257              		.loc 1 97 1 is_stmt 0 view .LVU56
 258 0000 00B5     		push	{lr}
 259              	.LCFI6:
 260              		.cfi_def_cfa_offset 4
 261              		.cfi_offset 14, -4
 262 0002 89B0     		sub	sp, sp, #36
 263              	.LCFI7:
 264              		.cfi_def_cfa_offset 40
  98:user/Src/stm32f7xx_hal_msp.c ****   GPIO_InitTypeDef GPIO_InitStruct = {0};
 265              		.loc 1 98 3 is_stmt 1 view .LVU57
 266              		.loc 1 98 20 is_stmt 0 view .LVU58
 267 0004 0023     		movs	r3, #0
 268 0006 0393     		str	r3, [sp, #12]
 269 0008 0493     		str	r3, [sp, #16]
 270 000a 0593     		str	r3, [sp, #20]
 271 000c 0693     		str	r3, [sp, #24]
 272 000e 0793     		str	r3, [sp, #28]
  99:user/Src/stm32f7xx_hal_msp.c ****   if(huart->Instance==USART3)
 273              		.loc 1 99 3 is_stmt 1 view .LVU59
 274              		.loc 1 99 11 is_stmt 0 view .LVU60
 275 0010 0268     		ldr	r2, [r0]
 276              		.loc 1 99 5 view .LVU61
 277 0012 154B     		ldr	r3, .L24
 278 0014 9A42     		cmp	r2, r3
 279 0016 02D0     		beq	.L23
 280              	.LVL9:
 281              	.L20:
 100:user/Src/stm32f7xx_hal_msp.c ****   {
 101:user/Src/stm32f7xx_hal_msp.c ****     /* Peripheral clock enable */
 102:user/Src/stm32f7xx_hal_msp.c ****     __HAL_RCC_USART3_CLK_ENABLE();
 103:user/Src/stm32f7xx_hal_msp.c **** 
 104:user/Src/stm32f7xx_hal_msp.c ****     __HAL_RCC_GPIOD_CLK_ENABLE();
 105:user/Src/stm32f7xx_hal_msp.c ****     /**USART3 GPIO Configuration
 106:user/Src/stm32f7xx_hal_msp.c ****     PD8     ------> USART3_TX
 107:user/Src/stm32f7xx_hal_msp.c ****     PD9     ------> USART3_RX
 108:user/Src/stm32f7xx_hal_msp.c ****     */
 109:user/Src/stm32f7xx_hal_msp.c ****     GPIO_InitStruct.Pin = STLK_RX_Pin|STLK_TX_Pin;
 110:user/Src/stm32f7xx_hal_msp.c ****     GPIO_InitStruct.Mode = GPIO_MODE_AF_PP;
 111:user/Src/stm32f7xx_hal_msp.c ****     GPIO_InitStruct.Pull = GPIO_NOPULL;
 112:user/Src/stm32f7xx_hal_msp.c ****     GPIO_InitStruct.Speed = GPIO_SPEED_FREQ_VERY_HIGH;
 113:user/Src/stm32f7xx_hal_msp.c ****     GPIO_InitStruct.Alternate = GPIO_AF7_USART3;
 114:user/Src/stm32f7xx_hal_msp.c ****     HAL_GPIO_Init(GPIOD, &GPIO_InitStruct);
 115:user/Src/stm32f7xx_hal_msp.c **** 
 116:user/Src/stm32f7xx_hal_msp.c ****   }
 117:user/Src/stm32f7xx_hal_msp.c **** 
 118:user/Src/stm32f7xx_hal_msp.c **** }
 282              		.loc 1 118 1 view .LVU62
 283 0018 09B0     		add	sp, sp, #36
 284              	.LCFI8:
ARM GAS  C:\Users\BIGBIG~1\AppData\Local\Temp\cclFCGkR.s 			page 8


 285              		.cfi_remember_state
 286              		.cfi_def_cfa_offset 4
 287              		@ sp needed
 288 001a 5DF804FB 		ldr	pc, [sp], #4
 289              	.LVL10:
 290              	.L23:
 291              	.LCFI9:
 292              		.cfi_restore_state
 102:user/Src/stm32f7xx_hal_msp.c **** 
 293              		.loc 1 102 5 is_stmt 1 view .LVU63
 294              	.LBB5:
 102:user/Src/stm32f7xx_hal_msp.c **** 
 295              		.loc 1 102 5 view .LVU64
 102:user/Src/stm32f7xx_hal_msp.c **** 
 296              		.loc 1 102 5 view .LVU65
 297 001e 03F5F833 		add	r3, r3, #126976
 298 0022 1A6C     		ldr	r2, [r3, #64]
 299 0024 42F48022 		orr	r2, r2, #262144
 300 0028 1A64     		str	r2, [r3, #64]
 102:user/Src/stm32f7xx_hal_msp.c **** 
 301              		.loc 1 102 5 view .LVU66
 302 002a 1A6C     		ldr	r2, [r3, #64]
 303 002c 02F48022 		and	r2, r2, #262144
 304 0030 0192     		str	r2, [sp, #4]
 102:user/Src/stm32f7xx_hal_msp.c **** 
 305              		.loc 1 102 5 view .LVU67
 306 0032 019A     		ldr	r2, [sp, #4]
 307              	.LBE5:
 102:user/Src/stm32f7xx_hal_msp.c **** 
 308              		.loc 1 102 5 view .LVU68
 104:user/Src/stm32f7xx_hal_msp.c ****     /**USART3 GPIO Configuration
 309              		.loc 1 104 5 view .LVU69
 310              	.LBB6:
 104:user/Src/stm32f7xx_hal_msp.c ****     /**USART3 GPIO Configuration
 311              		.loc 1 104 5 view .LVU70
 104:user/Src/stm32f7xx_hal_msp.c ****     /**USART3 GPIO Configuration
 312              		.loc 1 104 5 view .LVU71
 313 0034 1A6B     		ldr	r2, [r3, #48]
 314 0036 42F00802 		orr	r2, r2, #8
 315 003a 1A63     		str	r2, [r3, #48]
 104:user/Src/stm32f7xx_hal_msp.c ****     /**USART3 GPIO Configuration
 316              		.loc 1 104 5 view .LVU72
 317 003c 1B6B     		ldr	r3, [r3, #48]
 318 003e 03F00803 		and	r3, r3, #8
 319 0042 0293     		str	r3, [sp, #8]
 104:user/Src/stm32f7xx_hal_msp.c ****     /**USART3 GPIO Configuration
 320              		.loc 1 104 5 view .LVU73
 321 0044 029B     		ldr	r3, [sp, #8]
 322              	.LBE6:
 104:user/Src/stm32f7xx_hal_msp.c ****     /**USART3 GPIO Configuration
 323              		.loc 1 104 5 view .LVU74
 109:user/Src/stm32f7xx_hal_msp.c ****     GPIO_InitStruct.Mode = GPIO_MODE_AF_PP;
 324              		.loc 1 109 5 view .LVU75
 109:user/Src/stm32f7xx_hal_msp.c ****     GPIO_InitStruct.Mode = GPIO_MODE_AF_PP;
 325              		.loc 1 109 25 is_stmt 0 view .LVU76
 326 0046 4FF44073 		mov	r3, #768
 327 004a 0393     		str	r3, [sp, #12]
ARM GAS  C:\Users\BIGBIG~1\AppData\Local\Temp\cclFCGkR.s 			page 9


 110:user/Src/stm32f7xx_hal_msp.c ****     GPIO_InitStruct.Pull = GPIO_NOPULL;
 328              		.loc 1 110 5 is_stmt 1 view .LVU77
 110:user/Src/stm32f7xx_hal_msp.c ****     GPIO_InitStruct.Pull = GPIO_NOPULL;
 329              		.loc 1 110 26 is_stmt 0 view .LVU78
 330 004c 0223     		movs	r3, #2
 331 004e 0493     		str	r3, [sp, #16]
 111:user/Src/stm32f7xx_hal_msp.c ****     GPIO_InitStruct.Speed = GPIO_SPEED_FREQ_VERY_HIGH;
 332              		.loc 1 111 5 is_stmt 1 view .LVU79
 111:user/Src/stm32f7xx_hal_msp.c ****     GPIO_InitStruct.Speed = GPIO_SPEED_FREQ_VERY_HIGH;
 333              		.loc 1 111 26 is_stmt 0 view .LVU80
 334 0050 0023     		movs	r3, #0
 335 0052 0593     		str	r3, [sp, #20]
 112:user/Src/stm32f7xx_hal_msp.c ****     GPIO_InitStruct.Alternate = GPIO_AF7_USART3;
 336              		.loc 1 112 5 is_stmt 1 view .LVU81
 112:user/Src/stm32f7xx_hal_msp.c ****     GPIO_InitStruct.Alternate = GPIO_AF7_USART3;
 337              		.loc 1 112 27 is_stmt 0 view .LVU82
 338 0054 0323     		movs	r3, #3
 339 0056 0693     		str	r3, [sp, #24]
 113:user/Src/stm32f7xx_hal_msp.c ****     HAL_GPIO_Init(GPIOD, &GPIO_InitStruct);
 340              		.loc 1 113 5 is_stmt 1 view .LVU83
 113:user/Src/stm32f7xx_hal_msp.c ****     HAL_GPIO_Init(GPIOD, &GPIO_InitStruct);
 341              		.loc 1 113 31 is_stmt 0 view .LVU84
 342 0058 0723     		movs	r3, #7
 343 005a 0793     		str	r3, [sp, #28]
 114:user/Src/stm32f7xx_hal_msp.c **** 
 344              		.loc 1 114 5 is_stmt 1 view .LVU85
 345 005c 03A9     		add	r1, sp, #12
 346 005e 0348     		ldr	r0, .L24+4
 347              	.LVL11:
 114:user/Src/stm32f7xx_hal_msp.c **** 
 348              		.loc 1 114 5 is_stmt 0 view .LVU86
 349 0060 FFF7FEFF 		bl	HAL_GPIO_Init
 350              	.LVL12:
 351              		.loc 1 118 1 view .LVU87
 352 0064 D8E7     		b	.L20
 353              	.L25:
 354 0066 00BF     		.align	2
 355              	.L24:
 356 0068 00480040 		.word	1073760256
 357 006c 000C0240 		.word	1073875968
 358              		.cfi_endproc
 359              	.LFE144:
 361              		.section	.text.HAL_UART_MspDeInit,"ax",%progbits
 362              		.align	1
 363              		.global	HAL_UART_MspDeInit
 364              		.syntax unified
 365              		.thumb
 366              		.thumb_func
 367              		.fpu fpv5-d16
 369              	HAL_UART_MspDeInit:
 370              	.LVL13:
 371              	.LFB145:
 119:user/Src/stm32f7xx_hal_msp.c **** 
 120:user/Src/stm32f7xx_hal_msp.c **** /**
 121:user/Src/stm32f7xx_hal_msp.c **** * @brief UART MSP De-Initialization
 122:user/Src/stm32f7xx_hal_msp.c **** * This function freeze the hardware resources used in this example
 123:user/Src/stm32f7xx_hal_msp.c **** * @param huart: UART handle pointer
ARM GAS  C:\Users\BIGBIG~1\AppData\Local\Temp\cclFCGkR.s 			page 10


 124:user/Src/stm32f7xx_hal_msp.c **** * @retval None
 125:user/Src/stm32f7xx_hal_msp.c **** */
 126:user/Src/stm32f7xx_hal_msp.c **** void HAL_UART_MspDeInit(UART_HandleTypeDef* huart)
 127:user/Src/stm32f7xx_hal_msp.c **** {
 372              		.loc 1 127 1 is_stmt 1 view -0
 373              		.cfi_startproc
 374              		@ args = 0, pretend = 0, frame = 0
 375              		@ frame_needed = 0, uses_anonymous_args = 0
 376              		.loc 1 127 1 is_stmt 0 view .LVU89
 377 0000 08B5     		push	{r3, lr}
 378              	.LCFI10:
 379              		.cfi_def_cfa_offset 8
 380              		.cfi_offset 3, -8
 381              		.cfi_offset 14, -4
 128:user/Src/stm32f7xx_hal_msp.c ****   if(huart->Instance==USART3)
 382              		.loc 1 128 3 is_stmt 1 view .LVU90
 383              		.loc 1 128 11 is_stmt 0 view .LVU91
 384 0002 0268     		ldr	r2, [r0]
 385              		.loc 1 128 5 view .LVU92
 386 0004 074B     		ldr	r3, .L30
 387 0006 9A42     		cmp	r2, r3
 388 0008 00D0     		beq	.L29
 389              	.LVL14:
 390              	.L26:
 129:user/Src/stm32f7xx_hal_msp.c ****   {
 130:user/Src/stm32f7xx_hal_msp.c ****     /* Peripheral clock disable */
 131:user/Src/stm32f7xx_hal_msp.c ****     __HAL_RCC_USART3_CLK_DISABLE();
 132:user/Src/stm32f7xx_hal_msp.c **** 
 133:user/Src/stm32f7xx_hal_msp.c ****     /**USART3 GPIO Configuration
 134:user/Src/stm32f7xx_hal_msp.c ****     PD8     ------> USART3_TX
 135:user/Src/stm32f7xx_hal_msp.c ****     PD9     ------> USART3_RX
 136:user/Src/stm32f7xx_hal_msp.c ****     */
 137:user/Src/stm32f7xx_hal_msp.c ****     HAL_GPIO_DeInit(GPIOD, STLK_RX_Pin|STLK_TX_Pin);
 138:user/Src/stm32f7xx_hal_msp.c **** 
 139:user/Src/stm32f7xx_hal_msp.c ****   }
 140:user/Src/stm32f7xx_hal_msp.c **** 
 141:user/Src/stm32f7xx_hal_msp.c **** }
 391              		.loc 1 141 1 view .LVU93
 392 000a 08BD     		pop	{r3, pc}
 393              	.LVL15:
 394              	.L29:
 131:user/Src/stm32f7xx_hal_msp.c **** 
 395              		.loc 1 131 5 is_stmt 1 view .LVU94
 396 000c 064A     		ldr	r2, .L30+4
 397 000e 136C     		ldr	r3, [r2, #64]
 398 0010 23F48023 		bic	r3, r3, #262144
 399 0014 1364     		str	r3, [r2, #64]
 137:user/Src/stm32f7xx_hal_msp.c **** 
 400              		.loc 1 137 5 view .LVU95
 401 0016 4FF44071 		mov	r1, #768
 402 001a 0448     		ldr	r0, .L30+8
 403              	.LVL16:
 137:user/Src/stm32f7xx_hal_msp.c **** 
 404              		.loc 1 137 5 is_stmt 0 view .LVU96
 405 001c FFF7FEFF 		bl	HAL_GPIO_DeInit
 406              	.LVL17:
 407              		.loc 1 141 1 view .LVU97
ARM GAS  C:\Users\BIGBIG~1\AppData\Local\Temp\cclFCGkR.s 			page 11


 408 0020 F3E7     		b	.L26
 409              	.L31:
 410 0022 00BF     		.align	2
 411              	.L30:
 412 0024 00480040 		.word	1073760256
 413 0028 00380240 		.word	1073887232
 414 002c 000C0240 		.word	1073875968
 415              		.cfi_endproc
 416              	.LFE145:
 418              		.text
 419              	.Letext0:
 420              		.file 2 "c:\\program files (x86)\\gnu arm embedded toolchain\\9 2020-q2-update\\arm-none-eabi\\inc
 421              		.file 3 "c:\\program files (x86)\\gnu arm embedded toolchain\\9 2020-q2-update\\arm-none-eabi\\inc
 422              		.file 4 "dev/CMSIS/Include/core_cm7.h"
 423              		.file 5 "dev/CMSIS/Device/ST/STM32F7xx/Include/system_stm32f7xx.h"
 424              		.file 6 "dev/CMSIS/Device/ST/STM32F7xx/Include/stm32f767xx.h"
 425              		.file 7 "dev/STM32F7xx_HAL_Driver/Inc/stm32f7xx_hal_def.h"
 426              		.file 8 "dev/STM32F7xx_HAL_Driver/Inc/stm32f7xx_hal_gpio.h"
 427              		.file 9 "dev/STM32F7xx_HAL_Driver/Inc/stm32f7xx_hal_dma.h"
 428              		.file 10 "dev/STM32F7xx_HAL_Driver/Inc/stm32f7xx_hal_i2c.h"
 429              		.file 11 "dev/STM32F7xx_HAL_Driver/Inc/stm32f7xx_hal_uart.h"
 430              		.file 12 "dev/STM32F7xx_HAL_Driver/Inc/stm32f7xx_hal.h"
ARM GAS  C:\Users\BIGBIG~1\AppData\Local\Temp\cclFCGkR.s 			page 12

