ARM GAS  C:\Users\BIGBIG~1\AppData\Local\Temp\ccbNRxPM.s 			page 1


   1              		.cpu cortex-m7
   2              		.eabi_attribute 28, 1
   3              		.eabi_attribute 20, 1
   4              		.eabi_attribute 21, 1
   5              		.eabi_attribute 23, 3
   6              		.eabi_attribute 24, 1
   7              		.eabi_attribute 25, 1
   8              		.eabi_attribute 26, 1
   9              		.eabi_attribute 30, 1
  10              		.eabi_attribute 34, 1
  11              		.eabi_attribute 18, 4
  12              		.file	"usbd_conf.c"
  13              		.text
  14              	.Ltext0:
  15              		.cfi_sections	.debug_frame
  16              		.section	.text.SystemClockConfig_Resume,"ax",%progbits
  17              		.align	1
  18              		.arch armv7e-m
  19              		.syntax unified
  20              		.thumb
  21              		.thumb_func
  22              		.fpu fpv5-d16
  24              	SystemClockConfig_Resume:
  25              	.LFB174:
  26              		.file 1 "usb/usbd_conf.c"
   1:usb/usbd_conf.c **** /**
   2:usb/usbd_conf.c ****   ******************************************************************************
   3:usb/usbd_conf.c ****   * @file           : Target/usbd_conf.c
   4:usb/usbd_conf.c ****   * @version        : v1.0_Cube
   5:usb/usbd_conf.c ****   * @brief          : This file implements the board support package for the USB device library
   6:usb/usbd_conf.c ****   ******************************************************************************
   7:usb/usbd_conf.c ****   * @attention
   8:usb/usbd_conf.c ****   *
   9:usb/usbd_conf.c ****   * <h2><center>&copy; Copyright (c) 2020 STMicroelectronics.
  10:usb/usbd_conf.c ****   * All rights reserved.</center></h2>
  11:usb/usbd_conf.c ****   *
  12:usb/usbd_conf.c ****   * This software component is licensed by ST under Ultimate Liberty license
  13:usb/usbd_conf.c ****   * SLA0044, the "License"; You may not use this file except in compliance with
  14:usb/usbd_conf.c ****   * the License. You may obtain a copy of the License at:
  15:usb/usbd_conf.c ****   *                             www.st.com/SLA0044
  16:usb/usbd_conf.c ****   *
  17:usb/usbd_conf.c ****   ******************************************************************************
  18:usb/usbd_conf.c ****   */
  19:usb/usbd_conf.c **** 
  20:usb/usbd_conf.c **** /* Includes ------------------------------------------------------------------*/
  21:usb/usbd_conf.c **** #include "stm32f7xx.h"
  22:usb/usbd_conf.c **** #include "stm32f7xx_hal.h"
  23:usb/usbd_conf.c **** #include "usbd_def.h"
  24:usb/usbd_conf.c **** #include "usbd_core.h"
  25:usb/usbd_conf.c **** 
  26:usb/usbd_conf.c **** /* USER CODE BEGIN Includes */
  27:usb/usbd_conf.c **** 
  28:usb/usbd_conf.c **** /* USER CODE END Includes */
  29:usb/usbd_conf.c **** 
  30:usb/usbd_conf.c **** /* Private typedef -----------------------------------------------------------*/
  31:usb/usbd_conf.c **** /* Private define ------------------------------------------------------------*/
  32:usb/usbd_conf.c **** /* Private macro -------------------------------------------------------------*/
ARM GAS  C:\Users\BIGBIG~1\AppData\Local\Temp\ccbNRxPM.s 			page 2


  33:usb/usbd_conf.c **** 
  34:usb/usbd_conf.c **** /* USER CODE BEGIN PV */
  35:usb/usbd_conf.c **** /* Private variables ---------------------------------------------------------*/
  36:usb/usbd_conf.c **** 
  37:usb/usbd_conf.c **** /* USER CODE END PV */
  38:usb/usbd_conf.c **** 
  39:usb/usbd_conf.c **** PCD_HandleTypeDef hpcd_USB_OTG_FS;
  40:usb/usbd_conf.c **** void Error_Handler(char *Msg);
  41:usb/usbd_conf.c **** 
  42:usb/usbd_conf.c **** /* External functions --------------------------------------------------------*/
  43:usb/usbd_conf.c **** void SystemClock_Config(void);
  44:usb/usbd_conf.c **** 
  45:usb/usbd_conf.c **** /* USER CODE BEGIN 0 */
  46:usb/usbd_conf.c **** 
  47:usb/usbd_conf.c **** /* USER CODE END 0 */
  48:usb/usbd_conf.c **** 
  49:usb/usbd_conf.c **** /* USER CODE BEGIN PFP */
  50:usb/usbd_conf.c **** /* Private function prototypes -----------------------------------------------*/
  51:usb/usbd_conf.c **** USBD_StatusTypeDef USBD_Get_USB_Status(HAL_StatusTypeDef hal_status);
  52:usb/usbd_conf.c **** 
  53:usb/usbd_conf.c **** /* USER CODE END PFP */
  54:usb/usbd_conf.c **** 
  55:usb/usbd_conf.c **** /* Private functions ---------------------------------------------------------*/
  56:usb/usbd_conf.c **** 
  57:usb/usbd_conf.c **** /* USER CODE BEGIN 1 */
  58:usb/usbd_conf.c **** static void SystemClockConfig_Resume(void);
  59:usb/usbd_conf.c **** /* USER CODE END 1 */
  60:usb/usbd_conf.c **** 
  61:usb/usbd_conf.c **** /*******************************************************************************
  62:usb/usbd_conf.c ****                        LL Driver Callbacks (PCD -> USB Device Library)
  63:usb/usbd_conf.c **** *******************************************************************************/
  64:usb/usbd_conf.c **** /* MSP Init */
  65:usb/usbd_conf.c **** 
  66:usb/usbd_conf.c **** void HAL_PCD_MspInit(PCD_HandleTypeDef* pcdHandle)
  67:usb/usbd_conf.c **** {
  68:usb/usbd_conf.c ****   GPIO_InitTypeDef GPIO_InitStruct = {0};
  69:usb/usbd_conf.c ****   if(pcdHandle->Instance==USB_OTG_FS)
  70:usb/usbd_conf.c ****   {
  71:usb/usbd_conf.c ****   /* USER CODE BEGIN USB_OTG_FS_MspInit 0 */
  72:usb/usbd_conf.c **** 
  73:usb/usbd_conf.c ****   /* USER CODE END USB_OTG_FS_MspInit 0 */
  74:usb/usbd_conf.c **** 
  75:usb/usbd_conf.c ****     __HAL_RCC_GPIOA_CLK_ENABLE();
  76:usb/usbd_conf.c ****     /**USB_OTG_FS GPIO Configuration
  77:usb/usbd_conf.c ****     PA8     ------> USB_OTG_FS_SOF
  78:usb/usbd_conf.c ****     PA9     ------> USB_OTG_FS_VBUS
  79:usb/usbd_conf.c ****     PA10     ------> USB_OTG_FS_ID
  80:usb/usbd_conf.c ****     PA11     ------> USB_OTG_FS_DM
  81:usb/usbd_conf.c ****     PA12     ------> USB_OTG_FS_DP
  82:usb/usbd_conf.c ****     */
  83:usb/usbd_conf.c ****     GPIO_InitStruct.Pin = USB_SOF_Pin|USB_ID_Pin|USB_DM_Pin|USB_DP_Pin;
  84:usb/usbd_conf.c ****     GPIO_InitStruct.Mode = GPIO_MODE_AF_PP;
  85:usb/usbd_conf.c ****     GPIO_InitStruct.Pull = GPIO_NOPULL;
  86:usb/usbd_conf.c ****     GPIO_InitStruct.Speed = GPIO_SPEED_FREQ_VERY_HIGH;
  87:usb/usbd_conf.c ****     GPIO_InitStruct.Alternate = GPIO_AF10_OTG_FS;
  88:usb/usbd_conf.c ****     HAL_GPIO_Init(GPIOA, &GPIO_InitStruct);
  89:usb/usbd_conf.c **** 
ARM GAS  C:\Users\BIGBIG~1\AppData\Local\Temp\ccbNRxPM.s 			page 3


  90:usb/usbd_conf.c ****     GPIO_InitStruct.Pin = USB_VBUS_Pin;
  91:usb/usbd_conf.c ****     GPIO_InitStruct.Mode = GPIO_MODE_INPUT;
  92:usb/usbd_conf.c ****     GPIO_InitStruct.Pull = GPIO_NOPULL;
  93:usb/usbd_conf.c ****     HAL_GPIO_Init(USB_VBUS_GPIO_Port, &GPIO_InitStruct);
  94:usb/usbd_conf.c **** 
  95:usb/usbd_conf.c ****     /* Peripheral clock enable */
  96:usb/usbd_conf.c ****     __HAL_RCC_USB_OTG_FS_CLK_ENABLE();
  97:usb/usbd_conf.c **** 
  98:usb/usbd_conf.c ****     /* Peripheral interrupt init */
  99:usb/usbd_conf.c ****     HAL_NVIC_SetPriority(OTG_FS_IRQn, 0, 0);
 100:usb/usbd_conf.c ****     HAL_NVIC_EnableIRQ(OTG_FS_IRQn);
 101:usb/usbd_conf.c ****   /* USER CODE BEGIN USB_OTG_FS_MspInit 1 */
 102:usb/usbd_conf.c **** 
 103:usb/usbd_conf.c ****   /* USER CODE END USB_OTG_FS_MspInit 1 */
 104:usb/usbd_conf.c ****   }
 105:usb/usbd_conf.c **** }
 106:usb/usbd_conf.c **** 
 107:usb/usbd_conf.c **** void HAL_PCD_MspDeInit(PCD_HandleTypeDef* pcdHandle)
 108:usb/usbd_conf.c **** {
 109:usb/usbd_conf.c ****   if(pcdHandle->Instance==USB_OTG_FS)
 110:usb/usbd_conf.c ****   {
 111:usb/usbd_conf.c ****   /* USER CODE BEGIN USB_OTG_FS_MspDeInit 0 */
 112:usb/usbd_conf.c **** 
 113:usb/usbd_conf.c ****   /* USER CODE END USB_OTG_FS_MspDeInit 0 */
 114:usb/usbd_conf.c ****     /* Peripheral clock disable */
 115:usb/usbd_conf.c ****     __HAL_RCC_USB_OTG_FS_CLK_DISABLE();
 116:usb/usbd_conf.c **** 
 117:usb/usbd_conf.c ****     /**USB_OTG_FS GPIO Configuration
 118:usb/usbd_conf.c ****     PA8     ------> USB_OTG_FS_SOF
 119:usb/usbd_conf.c ****     PA9     ------> USB_OTG_FS_VBUS
 120:usb/usbd_conf.c ****     PA10     ------> USB_OTG_FS_ID
 121:usb/usbd_conf.c ****     PA11     ------> USB_OTG_FS_DM
 122:usb/usbd_conf.c ****     PA12     ------> USB_OTG_FS_DP
 123:usb/usbd_conf.c ****     */
 124:usb/usbd_conf.c ****     HAL_GPIO_DeInit(GPIOA, USB_SOF_Pin|USB_VBUS_Pin|USB_ID_Pin|USB_DM_Pin
 125:usb/usbd_conf.c ****                           |USB_DP_Pin);
 126:usb/usbd_conf.c **** 
 127:usb/usbd_conf.c ****     /* Peripheral interrupt Deinit*/
 128:usb/usbd_conf.c ****     HAL_NVIC_DisableIRQ(OTG_FS_IRQn);
 129:usb/usbd_conf.c **** 
 130:usb/usbd_conf.c ****   /* USER CODE BEGIN USB_OTG_FS_MspDeInit 1 */
 131:usb/usbd_conf.c **** 
 132:usb/usbd_conf.c ****   /* USER CODE END USB_OTG_FS_MspDeInit 1 */
 133:usb/usbd_conf.c ****   }
 134:usb/usbd_conf.c **** }
 135:usb/usbd_conf.c **** 
 136:usb/usbd_conf.c **** /**
 137:usb/usbd_conf.c ****   * @brief  Setup stage callback
 138:usb/usbd_conf.c ****   * @param  hpcd: PCD handle
 139:usb/usbd_conf.c ****   * @retval None
 140:usb/usbd_conf.c ****   */
 141:usb/usbd_conf.c **** #if (USE_HAL_PCD_REGISTER_CALLBACKS == 1U)
 142:usb/usbd_conf.c **** static void PCD_SetupStageCallback(PCD_HandleTypeDef *hpcd)
 143:usb/usbd_conf.c **** #else
 144:usb/usbd_conf.c **** void HAL_PCD_SetupStageCallback(PCD_HandleTypeDef *hpcd)
 145:usb/usbd_conf.c **** #endif /* USE_HAL_PCD_REGISTER_CALLBACKS */
 146:usb/usbd_conf.c **** {
ARM GAS  C:\Users\BIGBIG~1\AppData\Local\Temp\ccbNRxPM.s 			page 4


 147:usb/usbd_conf.c ****   USBD_LL_SetupStage((USBD_HandleTypeDef*)hpcd->pData, (uint8_t *)hpcd->Setup);
 148:usb/usbd_conf.c **** }
 149:usb/usbd_conf.c **** 
 150:usb/usbd_conf.c **** /**
 151:usb/usbd_conf.c ****   * @brief  Data Out stage callback.
 152:usb/usbd_conf.c ****   * @param  hpcd: PCD handle
 153:usb/usbd_conf.c ****   * @param  epnum: Endpoint number
 154:usb/usbd_conf.c ****   * @retval None
 155:usb/usbd_conf.c ****   */
 156:usb/usbd_conf.c **** #if (USE_HAL_PCD_REGISTER_CALLBACKS == 1U)
 157:usb/usbd_conf.c **** static void PCD_DataOutStageCallback(PCD_HandleTypeDef *hpcd, uint8_t epnum)
 158:usb/usbd_conf.c **** #else
 159:usb/usbd_conf.c **** void HAL_PCD_DataOutStageCallback(PCD_HandleTypeDef *hpcd, uint8_t epnum)
 160:usb/usbd_conf.c **** #endif /* USE_HAL_PCD_REGISTER_CALLBACKS */
 161:usb/usbd_conf.c **** {
 162:usb/usbd_conf.c ****   USBD_LL_DataOutStage((USBD_HandleTypeDef*)hpcd->pData, epnum, hpcd->OUT_ep[epnum].xfer_buff);
 163:usb/usbd_conf.c **** }
 164:usb/usbd_conf.c **** 
 165:usb/usbd_conf.c **** /**
 166:usb/usbd_conf.c ****   * @brief  Data In stage callback.
 167:usb/usbd_conf.c ****   * @param  hpcd: PCD handle
 168:usb/usbd_conf.c ****   * @param  epnum: Endpoint number
 169:usb/usbd_conf.c ****   * @retval None
 170:usb/usbd_conf.c ****   */
 171:usb/usbd_conf.c **** #if (USE_HAL_PCD_REGISTER_CALLBACKS == 1U)
 172:usb/usbd_conf.c **** static void PCD_DataInStageCallback(PCD_HandleTypeDef *hpcd, uint8_t epnum)
 173:usb/usbd_conf.c **** #else
 174:usb/usbd_conf.c **** void HAL_PCD_DataInStageCallback(PCD_HandleTypeDef *hpcd, uint8_t epnum)
 175:usb/usbd_conf.c **** #endif /* USE_HAL_PCD_REGISTER_CALLBACKS */
 176:usb/usbd_conf.c **** {
 177:usb/usbd_conf.c ****   USBD_LL_DataInStage((USBD_HandleTypeDef*)hpcd->pData, epnum, hpcd->IN_ep[epnum].xfer_buff);
 178:usb/usbd_conf.c **** }
 179:usb/usbd_conf.c **** 
 180:usb/usbd_conf.c **** /**
 181:usb/usbd_conf.c ****   * @brief  SOF callback.
 182:usb/usbd_conf.c ****   * @param  hpcd: PCD handle
 183:usb/usbd_conf.c ****   * @retval None
 184:usb/usbd_conf.c ****   */
 185:usb/usbd_conf.c **** #if (USE_HAL_PCD_REGISTER_CALLBACKS == 1U)
 186:usb/usbd_conf.c **** static void PCD_SOFCallback(PCD_HandleTypeDef *hpcd)
 187:usb/usbd_conf.c **** #else
 188:usb/usbd_conf.c **** void HAL_PCD_SOFCallback(PCD_HandleTypeDef *hpcd)
 189:usb/usbd_conf.c **** #endif /* USE_HAL_PCD_REGISTER_CALLBACKS */
 190:usb/usbd_conf.c **** {
 191:usb/usbd_conf.c ****   USBD_LL_SOF((USBD_HandleTypeDef*)hpcd->pData);
 192:usb/usbd_conf.c **** }
 193:usb/usbd_conf.c **** 
 194:usb/usbd_conf.c **** /**
 195:usb/usbd_conf.c ****   * @brief  Reset callback.
 196:usb/usbd_conf.c ****   * @param  hpcd: PCD handle
 197:usb/usbd_conf.c ****   * @retval None
 198:usb/usbd_conf.c ****   */
 199:usb/usbd_conf.c **** #if (USE_HAL_PCD_REGISTER_CALLBACKS == 1U)
 200:usb/usbd_conf.c **** static void PCD_ResetCallback(PCD_HandleTypeDef *hpcd)
 201:usb/usbd_conf.c **** #else
 202:usb/usbd_conf.c **** void HAL_PCD_ResetCallback(PCD_HandleTypeDef *hpcd)
 203:usb/usbd_conf.c **** #endif /* USE_HAL_PCD_REGISTER_CALLBACKS */
ARM GAS  C:\Users\BIGBIG~1\AppData\Local\Temp\ccbNRxPM.s 			page 5


 204:usb/usbd_conf.c **** {
 205:usb/usbd_conf.c ****   USBD_SpeedTypeDef speed = USBD_SPEED_FULL;
 206:usb/usbd_conf.c **** 
 207:usb/usbd_conf.c ****   if ( hpcd->Init.speed == PCD_SPEED_HIGH)
 208:usb/usbd_conf.c ****   {
 209:usb/usbd_conf.c ****     speed = USBD_SPEED_HIGH;
 210:usb/usbd_conf.c ****   }
 211:usb/usbd_conf.c ****   else if ( hpcd->Init.speed == PCD_SPEED_FULL)
 212:usb/usbd_conf.c ****   {
 213:usb/usbd_conf.c ****     speed = USBD_SPEED_FULL;
 214:usb/usbd_conf.c ****   }
 215:usb/usbd_conf.c ****   else
 216:usb/usbd_conf.c ****   {
 217:usb/usbd_conf.c ****     Error_Handler("USB Speed Set fault");
 218:usb/usbd_conf.c ****   }
 219:usb/usbd_conf.c ****     /* Set Speed. */
 220:usb/usbd_conf.c ****   USBD_LL_SetSpeed((USBD_HandleTypeDef*)hpcd->pData, speed);
 221:usb/usbd_conf.c **** 
 222:usb/usbd_conf.c ****   /* Reset Device. */
 223:usb/usbd_conf.c ****   USBD_LL_Reset((USBD_HandleTypeDef*)hpcd->pData);
 224:usb/usbd_conf.c **** }
 225:usb/usbd_conf.c **** 
 226:usb/usbd_conf.c **** /**
 227:usb/usbd_conf.c ****   * @brief  Suspend callback.
 228:usb/usbd_conf.c ****   * When Low power mode is enabled the debug cannot be used (IAR, Keil doesn't support it)
 229:usb/usbd_conf.c ****   * @param  hpcd: PCD handle
 230:usb/usbd_conf.c ****   * @retval None
 231:usb/usbd_conf.c ****   */
 232:usb/usbd_conf.c **** #if (USE_HAL_PCD_REGISTER_CALLBACKS == 1U)
 233:usb/usbd_conf.c **** static void PCD_SuspendCallback(PCD_HandleTypeDef *hpcd)
 234:usb/usbd_conf.c **** #else
 235:usb/usbd_conf.c **** void HAL_PCD_SuspendCallback(PCD_HandleTypeDef *hpcd)
 236:usb/usbd_conf.c **** #endif /* USE_HAL_PCD_REGISTER_CALLBACKS */
 237:usb/usbd_conf.c **** {
 238:usb/usbd_conf.c ****   /* Inform USB library that core enters in suspend Mode. */
 239:usb/usbd_conf.c ****   USBD_LL_Suspend((USBD_HandleTypeDef*)hpcd->pData);
 240:usb/usbd_conf.c ****   __HAL_PCD_GATE_PHYCLOCK(hpcd);
 241:usb/usbd_conf.c ****   /* Enter in STOP mode. */
 242:usb/usbd_conf.c ****   /* USER CODE BEGIN 2 */
 243:usb/usbd_conf.c ****   if (hpcd->Init.low_power_enable)
 244:usb/usbd_conf.c ****   {
 245:usb/usbd_conf.c ****     /* Set SLEEPDEEP bit and SleepOnExit of Cortex System Control Register. */
 246:usb/usbd_conf.c ****     SCB->SCR |= (uint32_t)((uint32_t)(SCB_SCR_SLEEPDEEP_Msk | SCB_SCR_SLEEPONEXIT_Msk));
 247:usb/usbd_conf.c ****   }
 248:usb/usbd_conf.c ****   /* USER CODE END 2 */
 249:usb/usbd_conf.c **** }
 250:usb/usbd_conf.c **** 
 251:usb/usbd_conf.c **** /**
 252:usb/usbd_conf.c ****   * @brief  Resume callback.
 253:usb/usbd_conf.c ****   * When Low power mode is enabled the debug cannot be used (IAR, Keil doesn't support it)
 254:usb/usbd_conf.c ****   * @param  hpcd: PCD handle
 255:usb/usbd_conf.c ****   * @retval None
 256:usb/usbd_conf.c ****   */
 257:usb/usbd_conf.c **** #if (USE_HAL_PCD_REGISTER_CALLBACKS == 1U)
 258:usb/usbd_conf.c **** static void PCD_ResumeCallback(PCD_HandleTypeDef *hpcd)
 259:usb/usbd_conf.c **** #else
 260:usb/usbd_conf.c **** void HAL_PCD_ResumeCallback(PCD_HandleTypeDef *hpcd)
ARM GAS  C:\Users\BIGBIG~1\AppData\Local\Temp\ccbNRxPM.s 			page 6


 261:usb/usbd_conf.c **** #endif /* USE_HAL_PCD_REGISTER_CALLBACKS */
 262:usb/usbd_conf.c **** {
 263:usb/usbd_conf.c ****   /* USER CODE BEGIN 3 */
 264:usb/usbd_conf.c **** 
 265:usb/usbd_conf.c ****   /* USER CODE END 3 */
 266:usb/usbd_conf.c ****   USBD_LL_Resume((USBD_HandleTypeDef*)hpcd->pData);
 267:usb/usbd_conf.c **** }
 268:usb/usbd_conf.c **** 
 269:usb/usbd_conf.c **** /**
 270:usb/usbd_conf.c ****   * @brief  ISOOUTIncomplete callback.
 271:usb/usbd_conf.c ****   * @param  hpcd: PCD handle
 272:usb/usbd_conf.c ****   * @param  epnum: Endpoint number
 273:usb/usbd_conf.c ****   * @retval None
 274:usb/usbd_conf.c ****   */
 275:usb/usbd_conf.c **** #if (USE_HAL_PCD_REGISTER_CALLBACKS == 1U)
 276:usb/usbd_conf.c **** static void PCD_ISOOUTIncompleteCallback(PCD_HandleTypeDef *hpcd, uint8_t epnum)
 277:usb/usbd_conf.c **** #else
 278:usb/usbd_conf.c **** void HAL_PCD_ISOOUTIncompleteCallback(PCD_HandleTypeDef *hpcd, uint8_t epnum)
 279:usb/usbd_conf.c **** #endif /* USE_HAL_PCD_REGISTER_CALLBACKS */
 280:usb/usbd_conf.c **** {
 281:usb/usbd_conf.c ****   USBD_LL_IsoOUTIncomplete((USBD_HandleTypeDef*)hpcd->pData, epnum);
 282:usb/usbd_conf.c **** }
 283:usb/usbd_conf.c **** 
 284:usb/usbd_conf.c **** /**
 285:usb/usbd_conf.c ****   * @brief  ISOINIncomplete callback.
 286:usb/usbd_conf.c ****   * @param  hpcd: PCD handle
 287:usb/usbd_conf.c ****   * @param  epnum: Endpoint number
 288:usb/usbd_conf.c ****   * @retval None
 289:usb/usbd_conf.c ****   */
 290:usb/usbd_conf.c **** #if (USE_HAL_PCD_REGISTER_CALLBACKS == 1U)
 291:usb/usbd_conf.c **** static void PCD_ISOINIncompleteCallback(PCD_HandleTypeDef *hpcd, uint8_t epnum)
 292:usb/usbd_conf.c **** #else
 293:usb/usbd_conf.c **** void HAL_PCD_ISOINIncompleteCallback(PCD_HandleTypeDef *hpcd, uint8_t epnum)
 294:usb/usbd_conf.c **** #endif /* USE_HAL_PCD_REGISTER_CALLBACKS */
 295:usb/usbd_conf.c **** {
 296:usb/usbd_conf.c ****   USBD_LL_IsoINIncomplete((USBD_HandleTypeDef*)hpcd->pData, epnum);
 297:usb/usbd_conf.c **** }
 298:usb/usbd_conf.c **** 
 299:usb/usbd_conf.c **** /**
 300:usb/usbd_conf.c ****   * @brief  Connect callback.
 301:usb/usbd_conf.c ****   * @param  hpcd: PCD handle
 302:usb/usbd_conf.c ****   * @retval None
 303:usb/usbd_conf.c ****   */
 304:usb/usbd_conf.c **** #if (USE_HAL_PCD_REGISTER_CALLBACKS == 1U)
 305:usb/usbd_conf.c **** static void PCD_ConnectCallback(PCD_HandleTypeDef *hpcd)
 306:usb/usbd_conf.c **** #else
 307:usb/usbd_conf.c **** void HAL_PCD_ConnectCallback(PCD_HandleTypeDef *hpcd)
 308:usb/usbd_conf.c **** #endif /* USE_HAL_PCD_REGISTER_CALLBACKS */
 309:usb/usbd_conf.c **** {
 310:usb/usbd_conf.c ****   USBD_LL_DevConnected((USBD_HandleTypeDef*)hpcd->pData);
 311:usb/usbd_conf.c **** }
 312:usb/usbd_conf.c **** 
 313:usb/usbd_conf.c **** /**
 314:usb/usbd_conf.c ****   * @brief  Disconnect callback.
 315:usb/usbd_conf.c ****   * @param  hpcd: PCD handle
 316:usb/usbd_conf.c ****   * @retval None
 317:usb/usbd_conf.c ****   */
ARM GAS  C:\Users\BIGBIG~1\AppData\Local\Temp\ccbNRxPM.s 			page 7


 318:usb/usbd_conf.c **** #if (USE_HAL_PCD_REGISTER_CALLBACKS == 1U)
 319:usb/usbd_conf.c **** static void PCD_DisconnectCallback(PCD_HandleTypeDef *hpcd)
 320:usb/usbd_conf.c **** #else
 321:usb/usbd_conf.c **** void HAL_PCD_DisconnectCallback(PCD_HandleTypeDef *hpcd)
 322:usb/usbd_conf.c **** #endif /* USE_HAL_PCD_REGISTER_CALLBACKS */
 323:usb/usbd_conf.c **** {
 324:usb/usbd_conf.c ****   USBD_LL_DevDisconnected((USBD_HandleTypeDef*)hpcd->pData);
 325:usb/usbd_conf.c **** }
 326:usb/usbd_conf.c **** 
 327:usb/usbd_conf.c **** /*******************************************************************************
 328:usb/usbd_conf.c ****                        LL Driver Interface (USB Device Library --> PCD)
 329:usb/usbd_conf.c **** *******************************************************************************/
 330:usb/usbd_conf.c **** 
 331:usb/usbd_conf.c **** /**
 332:usb/usbd_conf.c ****   * @brief  Initializes the low level portion of the device driver.
 333:usb/usbd_conf.c ****   * @param  pdev: Device handle
 334:usb/usbd_conf.c ****   * @retval USBD status
 335:usb/usbd_conf.c ****   */
 336:usb/usbd_conf.c **** USBD_StatusTypeDef USBD_LL_Init(USBD_HandleTypeDef *pdev)
 337:usb/usbd_conf.c **** {
 338:usb/usbd_conf.c ****   /* Init USB Ip. */
 339:usb/usbd_conf.c ****   if (pdev->id == DEVICE_FS) {
 340:usb/usbd_conf.c ****   /* Link the driver to the stack. */
 341:usb/usbd_conf.c ****   hpcd_USB_OTG_FS.pData = pdev;
 342:usb/usbd_conf.c ****   pdev->pData = &hpcd_USB_OTG_FS;
 343:usb/usbd_conf.c **** 
 344:usb/usbd_conf.c ****   hpcd_USB_OTG_FS.Instance = USB_OTG_FS;
 345:usb/usbd_conf.c ****   hpcd_USB_OTG_FS.Init.dev_endpoints = 6;
 346:usb/usbd_conf.c ****   hpcd_USB_OTG_FS.Init.speed = PCD_SPEED_FULL;
 347:usb/usbd_conf.c ****   hpcd_USB_OTG_FS.Init.dma_enable = DISABLE;
 348:usb/usbd_conf.c ****   hpcd_USB_OTG_FS.Init.phy_itface = PCD_PHY_EMBEDDED;
 349:usb/usbd_conf.c ****   hpcd_USB_OTG_FS.Init.Sof_enable = ENABLE;
 350:usb/usbd_conf.c ****   hpcd_USB_OTG_FS.Init.low_power_enable = DISABLE;
 351:usb/usbd_conf.c ****   hpcd_USB_OTG_FS.Init.lpm_enable = DISABLE;
 352:usb/usbd_conf.c ****   hpcd_USB_OTG_FS.Init.vbus_sensing_enable = ENABLE;
 353:usb/usbd_conf.c ****   hpcd_USB_OTG_FS.Init.use_dedicated_ep1 = DISABLE;
 354:usb/usbd_conf.c ****   if (HAL_PCD_Init(&hpcd_USB_OTG_FS) != HAL_OK)
 355:usb/usbd_conf.c ****   {
 356:usb/usbd_conf.c ****     Error_Handler( "USBD LL fault");
 357:usb/usbd_conf.c ****   }
 358:usb/usbd_conf.c **** 
 359:usb/usbd_conf.c **** #if (USE_HAL_PCD_REGISTER_CALLBACKS == 1U)
 360:usb/usbd_conf.c ****   /* Register USB PCD CallBacks */
 361:usb/usbd_conf.c ****   HAL_PCD_RegisterCallback(&hpcd_USB_OTG_FS, HAL_PCD_SOF_CB_ID, PCD_SOFCallback);
 362:usb/usbd_conf.c ****   HAL_PCD_RegisterCallback(&hpcd_USB_OTG_FS, HAL_PCD_SETUPSTAGE_CB_ID, PCD_SetupStageCallback);
 363:usb/usbd_conf.c ****   HAL_PCD_RegisterCallback(&hpcd_USB_OTG_FS, HAL_PCD_RESET_CB_ID, PCD_ResetCallback);
 364:usb/usbd_conf.c ****   HAL_PCD_RegisterCallback(&hpcd_USB_OTG_FS, HAL_PCD_SUSPEND_CB_ID, PCD_SuspendCallback);
 365:usb/usbd_conf.c ****   HAL_PCD_RegisterCallback(&hpcd_USB_OTG_FS, HAL_PCD_RESUME_CB_ID, PCD_ResumeCallback);
 366:usb/usbd_conf.c ****   HAL_PCD_RegisterCallback(&hpcd_USB_OTG_FS, HAL_PCD_CONNECT_CB_ID, PCD_ConnectCallback);
 367:usb/usbd_conf.c ****   HAL_PCD_RegisterCallback(&hpcd_USB_OTG_FS, HAL_PCD_DISCONNECT_CB_ID, PCD_DisconnectCallback);
 368:usb/usbd_conf.c **** 
 369:usb/usbd_conf.c ****   HAL_PCD_RegisterDataOutStageCallback(&hpcd_USB_OTG_FS, PCD_DataOutStageCallback);
 370:usb/usbd_conf.c ****   HAL_PCD_RegisterDataInStageCallback(&hpcd_USB_OTG_FS, PCD_DataInStageCallback);
 371:usb/usbd_conf.c ****   HAL_PCD_RegisterIsoOutIncpltCallback(&hpcd_USB_OTG_FS, PCD_ISOOUTIncompleteCallback);
 372:usb/usbd_conf.c ****   HAL_PCD_RegisterIsoInIncpltCallback(&hpcd_USB_OTG_FS, PCD_ISOINIncompleteCallback);
 373:usb/usbd_conf.c **** #endif /* USE_HAL_PCD_REGISTER_CALLBACKS */
 374:usb/usbd_conf.c ****   HAL_PCDEx_SetRxFiFo(&hpcd_USB_OTG_FS, 0x80);
ARM GAS  C:\Users\BIGBIG~1\AppData\Local\Temp\ccbNRxPM.s 			page 8


 375:usb/usbd_conf.c ****   HAL_PCDEx_SetTxFiFo(&hpcd_USB_OTG_FS, 0, 0x40);
 376:usb/usbd_conf.c ****   HAL_PCDEx_SetTxFiFo(&hpcd_USB_OTG_FS, 1, 0x80);
 377:usb/usbd_conf.c ****   }
 378:usb/usbd_conf.c ****   return USBD_OK;
 379:usb/usbd_conf.c **** }
 380:usb/usbd_conf.c **** 
 381:usb/usbd_conf.c **** /**
 382:usb/usbd_conf.c ****   * @brief  De-Initializes the low level portion of the device driver.
 383:usb/usbd_conf.c ****   * @param  pdev: Device handle
 384:usb/usbd_conf.c ****   * @retval USBD status
 385:usb/usbd_conf.c ****   */
 386:usb/usbd_conf.c **** USBD_StatusTypeDef USBD_LL_DeInit(USBD_HandleTypeDef *pdev)
 387:usb/usbd_conf.c **** {
 388:usb/usbd_conf.c ****   HAL_StatusTypeDef hal_status = HAL_OK;
 389:usb/usbd_conf.c ****   USBD_StatusTypeDef usb_status = USBD_OK;
 390:usb/usbd_conf.c **** 
 391:usb/usbd_conf.c ****   hal_status = HAL_PCD_DeInit(pdev->pData);
 392:usb/usbd_conf.c **** 
 393:usb/usbd_conf.c ****   usb_status =  USBD_Get_USB_Status(hal_status);
 394:usb/usbd_conf.c **** 
 395:usb/usbd_conf.c ****   return usb_status;
 396:usb/usbd_conf.c **** }
 397:usb/usbd_conf.c **** 
 398:usb/usbd_conf.c **** /**
 399:usb/usbd_conf.c ****   * @brief  Starts the low level portion of the device driver.
 400:usb/usbd_conf.c ****   * @param  pdev: Device handle
 401:usb/usbd_conf.c ****   * @retval USBD status
 402:usb/usbd_conf.c ****   */
 403:usb/usbd_conf.c **** USBD_StatusTypeDef USBD_LL_Start(USBD_HandleTypeDef *pdev)
 404:usb/usbd_conf.c **** {
 405:usb/usbd_conf.c ****   HAL_StatusTypeDef hal_status = HAL_OK;
 406:usb/usbd_conf.c ****   USBD_StatusTypeDef usb_status = USBD_OK;
 407:usb/usbd_conf.c **** 
 408:usb/usbd_conf.c ****   hal_status = HAL_PCD_Start(pdev->pData);
 409:usb/usbd_conf.c **** 
 410:usb/usbd_conf.c ****   usb_status =  USBD_Get_USB_Status(hal_status);
 411:usb/usbd_conf.c **** 
 412:usb/usbd_conf.c ****   return usb_status;
 413:usb/usbd_conf.c **** }
 414:usb/usbd_conf.c **** 
 415:usb/usbd_conf.c **** /**
 416:usb/usbd_conf.c ****   * @brief  Stops the low level portion of the device driver.
 417:usb/usbd_conf.c ****   * @param  pdev: Device handle
 418:usb/usbd_conf.c ****   * @retval USBD status
 419:usb/usbd_conf.c ****   */
 420:usb/usbd_conf.c **** USBD_StatusTypeDef USBD_LL_Stop(USBD_HandleTypeDef *pdev)
 421:usb/usbd_conf.c **** {
 422:usb/usbd_conf.c ****   HAL_StatusTypeDef hal_status = HAL_OK;
 423:usb/usbd_conf.c ****   USBD_StatusTypeDef usb_status = USBD_OK;
 424:usb/usbd_conf.c **** 
 425:usb/usbd_conf.c ****   hal_status = HAL_PCD_Stop(pdev->pData);
 426:usb/usbd_conf.c **** 
 427:usb/usbd_conf.c ****   usb_status =  USBD_Get_USB_Status(hal_status);
 428:usb/usbd_conf.c **** 
 429:usb/usbd_conf.c ****   return usb_status;
 430:usb/usbd_conf.c **** }
 431:usb/usbd_conf.c **** 
ARM GAS  C:\Users\BIGBIG~1\AppData\Local\Temp\ccbNRxPM.s 			page 9


 432:usb/usbd_conf.c **** /**
 433:usb/usbd_conf.c ****   * @brief  Opens an endpoint of the low level driver.
 434:usb/usbd_conf.c ****   * @param  pdev: Device handle
 435:usb/usbd_conf.c ****   * @param  ep_addr: Endpoint number
 436:usb/usbd_conf.c ****   * @param  ep_type: Endpoint type
 437:usb/usbd_conf.c ****   * @param  ep_mps: Endpoint max packet size
 438:usb/usbd_conf.c ****   * @retval USBD status
 439:usb/usbd_conf.c ****   */
 440:usb/usbd_conf.c **** USBD_StatusTypeDef USBD_LL_OpenEP(USBD_HandleTypeDef *pdev, uint8_t ep_addr, uint8_t ep_type, uint1
 441:usb/usbd_conf.c **** {
 442:usb/usbd_conf.c ****   HAL_StatusTypeDef hal_status = HAL_OK;
 443:usb/usbd_conf.c ****   USBD_StatusTypeDef usb_status = USBD_OK;
 444:usb/usbd_conf.c **** 
 445:usb/usbd_conf.c ****   hal_status = HAL_PCD_EP_Open(pdev->pData, ep_addr, ep_mps, ep_type);
 446:usb/usbd_conf.c **** 
 447:usb/usbd_conf.c ****   usb_status =  USBD_Get_USB_Status(hal_status);
 448:usb/usbd_conf.c **** 
 449:usb/usbd_conf.c ****   return usb_status;
 450:usb/usbd_conf.c **** }
 451:usb/usbd_conf.c **** 
 452:usb/usbd_conf.c **** /**
 453:usb/usbd_conf.c ****   * @brief  Closes an endpoint of the low level driver.
 454:usb/usbd_conf.c ****   * @param  pdev: Device handle
 455:usb/usbd_conf.c ****   * @param  ep_addr: Endpoint number
 456:usb/usbd_conf.c ****   * @retval USBD status
 457:usb/usbd_conf.c ****   */
 458:usb/usbd_conf.c **** USBD_StatusTypeDef USBD_LL_CloseEP(USBD_HandleTypeDef *pdev, uint8_t ep_addr)
 459:usb/usbd_conf.c **** {
 460:usb/usbd_conf.c ****   HAL_StatusTypeDef hal_status = HAL_OK;
 461:usb/usbd_conf.c ****   USBD_StatusTypeDef usb_status = USBD_OK;
 462:usb/usbd_conf.c **** 
 463:usb/usbd_conf.c ****   hal_status = HAL_PCD_EP_Close(pdev->pData, ep_addr);
 464:usb/usbd_conf.c **** 
 465:usb/usbd_conf.c ****   usb_status =  USBD_Get_USB_Status(hal_status);
 466:usb/usbd_conf.c **** 
 467:usb/usbd_conf.c ****   return usb_status;
 468:usb/usbd_conf.c **** }
 469:usb/usbd_conf.c **** 
 470:usb/usbd_conf.c **** /**
 471:usb/usbd_conf.c ****   * @brief  Flushes an endpoint of the Low Level Driver.
 472:usb/usbd_conf.c ****   * @param  pdev: Device handle
 473:usb/usbd_conf.c ****   * @param  ep_addr: Endpoint number
 474:usb/usbd_conf.c ****   * @retval USBD status
 475:usb/usbd_conf.c ****   */
 476:usb/usbd_conf.c **** USBD_StatusTypeDef USBD_LL_FlushEP(USBD_HandleTypeDef *pdev, uint8_t ep_addr)
 477:usb/usbd_conf.c **** {
 478:usb/usbd_conf.c ****   HAL_StatusTypeDef hal_status = HAL_OK;
 479:usb/usbd_conf.c ****   USBD_StatusTypeDef usb_status = USBD_OK;
 480:usb/usbd_conf.c **** 
 481:usb/usbd_conf.c ****   hal_status = HAL_PCD_EP_Flush(pdev->pData, ep_addr);
 482:usb/usbd_conf.c **** 
 483:usb/usbd_conf.c ****   usb_status =  USBD_Get_USB_Status(hal_status);
 484:usb/usbd_conf.c **** 
 485:usb/usbd_conf.c ****   return usb_status;
 486:usb/usbd_conf.c **** }
 487:usb/usbd_conf.c **** 
 488:usb/usbd_conf.c **** /**
ARM GAS  C:\Users\BIGBIG~1\AppData\Local\Temp\ccbNRxPM.s 			page 10


 489:usb/usbd_conf.c ****   * @brief  Sets a Stall condition on an endpoint of the Low Level Driver.
 490:usb/usbd_conf.c ****   * @param  pdev: Device handle
 491:usb/usbd_conf.c ****   * @param  ep_addr: Endpoint number
 492:usb/usbd_conf.c ****   * @retval USBD status
 493:usb/usbd_conf.c ****   */
 494:usb/usbd_conf.c **** USBD_StatusTypeDef USBD_LL_StallEP(USBD_HandleTypeDef *pdev, uint8_t ep_addr)
 495:usb/usbd_conf.c **** {
 496:usb/usbd_conf.c ****   HAL_StatusTypeDef hal_status = HAL_OK;
 497:usb/usbd_conf.c ****   USBD_StatusTypeDef usb_status = USBD_OK;
 498:usb/usbd_conf.c **** 
 499:usb/usbd_conf.c ****   hal_status = HAL_PCD_EP_SetStall(pdev->pData, ep_addr);
 500:usb/usbd_conf.c **** 
 501:usb/usbd_conf.c ****   usb_status =  USBD_Get_USB_Status(hal_status);
 502:usb/usbd_conf.c **** 
 503:usb/usbd_conf.c ****   return usb_status;
 504:usb/usbd_conf.c **** }
 505:usb/usbd_conf.c **** 
 506:usb/usbd_conf.c **** /**
 507:usb/usbd_conf.c ****   * @brief  Clears a Stall condition on an endpoint of the Low Level Driver.
 508:usb/usbd_conf.c ****   * @param  pdev: Device handle
 509:usb/usbd_conf.c ****   * @param  ep_addr: Endpoint number
 510:usb/usbd_conf.c ****   * @retval USBD status
 511:usb/usbd_conf.c ****   */
 512:usb/usbd_conf.c **** USBD_StatusTypeDef USBD_LL_ClearStallEP(USBD_HandleTypeDef *pdev, uint8_t ep_addr)
 513:usb/usbd_conf.c **** {
 514:usb/usbd_conf.c ****   HAL_StatusTypeDef hal_status = HAL_OK;
 515:usb/usbd_conf.c ****   USBD_StatusTypeDef usb_status = USBD_OK;
 516:usb/usbd_conf.c **** 
 517:usb/usbd_conf.c ****   hal_status = HAL_PCD_EP_ClrStall(pdev->pData, ep_addr);
 518:usb/usbd_conf.c **** 
 519:usb/usbd_conf.c ****   usb_status =  USBD_Get_USB_Status(hal_status);
 520:usb/usbd_conf.c **** 
 521:usb/usbd_conf.c ****   return usb_status;
 522:usb/usbd_conf.c **** }
 523:usb/usbd_conf.c **** 
 524:usb/usbd_conf.c **** /**
 525:usb/usbd_conf.c ****   * @brief  Returns Stall condition.
 526:usb/usbd_conf.c ****   * @param  pdev: Device handle
 527:usb/usbd_conf.c ****   * @param  ep_addr: Endpoint number
 528:usb/usbd_conf.c ****   * @retval Stall (1: Yes, 0: No)
 529:usb/usbd_conf.c ****   */
 530:usb/usbd_conf.c **** uint8_t USBD_LL_IsStallEP(USBD_HandleTypeDef *pdev, uint8_t ep_addr)
 531:usb/usbd_conf.c **** {
 532:usb/usbd_conf.c ****   PCD_HandleTypeDef *hpcd = (PCD_HandleTypeDef*) pdev->pData;
 533:usb/usbd_conf.c **** 
 534:usb/usbd_conf.c ****   if((ep_addr & 0x80) == 0x80)
 535:usb/usbd_conf.c ****   {
 536:usb/usbd_conf.c ****     return hpcd->IN_ep[ep_addr & 0x7F].is_stall;
 537:usb/usbd_conf.c ****   }
 538:usb/usbd_conf.c ****   else
 539:usb/usbd_conf.c ****   {
 540:usb/usbd_conf.c ****     return hpcd->OUT_ep[ep_addr & 0x7F].is_stall;
 541:usb/usbd_conf.c ****   }
 542:usb/usbd_conf.c **** }
 543:usb/usbd_conf.c **** 
 544:usb/usbd_conf.c **** /**
 545:usb/usbd_conf.c ****   * @brief  Assigns a USB address to the device.
ARM GAS  C:\Users\BIGBIG~1\AppData\Local\Temp\ccbNRxPM.s 			page 11


 546:usb/usbd_conf.c ****   * @param  pdev: Device handle
 547:usb/usbd_conf.c ****   * @param  dev_addr: Device address
 548:usb/usbd_conf.c ****   * @retval USBD status
 549:usb/usbd_conf.c ****   */
 550:usb/usbd_conf.c **** USBD_StatusTypeDef USBD_LL_SetUSBAddress(USBD_HandleTypeDef *pdev, uint8_t dev_addr)
 551:usb/usbd_conf.c **** {
 552:usb/usbd_conf.c ****   HAL_StatusTypeDef hal_status = HAL_OK;
 553:usb/usbd_conf.c ****   USBD_StatusTypeDef usb_status = USBD_OK;
 554:usb/usbd_conf.c **** 
 555:usb/usbd_conf.c ****   hal_status = HAL_PCD_SetAddress(pdev->pData, dev_addr);
 556:usb/usbd_conf.c **** 
 557:usb/usbd_conf.c ****   usb_status =  USBD_Get_USB_Status(hal_status);
 558:usb/usbd_conf.c **** 
 559:usb/usbd_conf.c ****   return usb_status;
 560:usb/usbd_conf.c **** }
 561:usb/usbd_conf.c **** 
 562:usb/usbd_conf.c **** /**
 563:usb/usbd_conf.c ****   * @brief  Transmits data over an endpoint.
 564:usb/usbd_conf.c ****   * @param  pdev: Device handle
 565:usb/usbd_conf.c ****   * @param  ep_addr: Endpoint number
 566:usb/usbd_conf.c ****   * @param  pbuf: Pointer to data to be sent
 567:usb/usbd_conf.c ****   * @param  size: Data size
 568:usb/usbd_conf.c ****   * @retval USBD status
 569:usb/usbd_conf.c ****   */
 570:usb/usbd_conf.c **** USBD_StatusTypeDef USBD_LL_Transmit(USBD_HandleTypeDef *pdev, uint8_t ep_addr, uint8_t *pbuf, uint3
 571:usb/usbd_conf.c **** {
 572:usb/usbd_conf.c ****   HAL_StatusTypeDef hal_status = HAL_OK;
 573:usb/usbd_conf.c ****   USBD_StatusTypeDef usb_status = USBD_OK;
 574:usb/usbd_conf.c **** 
 575:usb/usbd_conf.c ****   hal_status = HAL_PCD_EP_Transmit(pdev->pData, ep_addr, pbuf, size);
 576:usb/usbd_conf.c **** 
 577:usb/usbd_conf.c ****   usb_status =  USBD_Get_USB_Status(hal_status);
 578:usb/usbd_conf.c **** 
 579:usb/usbd_conf.c ****   return usb_status;
 580:usb/usbd_conf.c **** }
 581:usb/usbd_conf.c **** 
 582:usb/usbd_conf.c **** /**
 583:usb/usbd_conf.c ****   * @brief  Prepares an endpoint for reception.
 584:usb/usbd_conf.c ****   * @param  pdev: Device handle
 585:usb/usbd_conf.c ****   * @param  ep_addr: Endpoint number
 586:usb/usbd_conf.c ****   * @param  pbuf: Pointer to data to be received
 587:usb/usbd_conf.c ****   * @param  size: Data size
 588:usb/usbd_conf.c ****   * @retval USBD status
 589:usb/usbd_conf.c ****   */
 590:usb/usbd_conf.c **** USBD_StatusTypeDef USBD_LL_PrepareReceive(USBD_HandleTypeDef *pdev, uint8_t ep_addr, uint8_t *pbuf,
 591:usb/usbd_conf.c **** {
 592:usb/usbd_conf.c ****   HAL_StatusTypeDef hal_status = HAL_OK;
 593:usb/usbd_conf.c ****   USBD_StatusTypeDef usb_status = USBD_OK;
 594:usb/usbd_conf.c **** 
 595:usb/usbd_conf.c ****   hal_status = HAL_PCD_EP_Receive(pdev->pData, ep_addr, pbuf, size);
 596:usb/usbd_conf.c **** 
 597:usb/usbd_conf.c ****   usb_status =  USBD_Get_USB_Status(hal_status);
 598:usb/usbd_conf.c **** 
 599:usb/usbd_conf.c ****   return usb_status;
 600:usb/usbd_conf.c **** }
 601:usb/usbd_conf.c **** 
 602:usb/usbd_conf.c **** /**
ARM GAS  C:\Users\BIGBIG~1\AppData\Local\Temp\ccbNRxPM.s 			page 12


 603:usb/usbd_conf.c ****   * @brief  Returns the last transfered packet size.
 604:usb/usbd_conf.c ****   * @param  pdev: Device handle
 605:usb/usbd_conf.c ****   * @param  ep_addr: Endpoint number
 606:usb/usbd_conf.c ****   * @retval Recived Data Size
 607:usb/usbd_conf.c ****   */
 608:usb/usbd_conf.c **** uint32_t USBD_LL_GetRxDataSize(USBD_HandleTypeDef *pdev, uint8_t ep_addr)
 609:usb/usbd_conf.c **** {
 610:usb/usbd_conf.c ****   return HAL_PCD_EP_GetRxCount((PCD_HandleTypeDef*) pdev->pData, ep_addr);
 611:usb/usbd_conf.c **** }
 612:usb/usbd_conf.c **** 
 613:usb/usbd_conf.c **** /**
 614:usb/usbd_conf.c ****   * @brief  Send LPM message to user layer
 615:usb/usbd_conf.c ****   * @param  hpcd: PCD handle
 616:usb/usbd_conf.c ****   * @param  msg: LPM message
 617:usb/usbd_conf.c ****   * @retval None
 618:usb/usbd_conf.c ****   */
 619:usb/usbd_conf.c **** void HAL_PCDEx_LPM_Callback(PCD_HandleTypeDef *hpcd, PCD_LPM_MsgTypeDef msg)
 620:usb/usbd_conf.c **** {
 621:usb/usbd_conf.c ****   switch (msg)
 622:usb/usbd_conf.c ****   {
 623:usb/usbd_conf.c ****   case PCD_LPM_L0_ACTIVE:
 624:usb/usbd_conf.c ****     if (hpcd->Init.low_power_enable)
 625:usb/usbd_conf.c ****     {
 626:usb/usbd_conf.c ****       SystemClockConfig_Resume();
 627:usb/usbd_conf.c **** 
 628:usb/usbd_conf.c ****       /* Reset SLEEPDEEP bit of Cortex System Control Register. */
 629:usb/usbd_conf.c ****       SCB->SCR &= (uint32_t)~((uint32_t)(SCB_SCR_SLEEPDEEP_Msk | SCB_SCR_SLEEPONEXIT_Msk));
 630:usb/usbd_conf.c ****     }
 631:usb/usbd_conf.c ****     __HAL_PCD_UNGATE_PHYCLOCK(hpcd);
 632:usb/usbd_conf.c ****     USBD_LL_Resume(hpcd->pData);
 633:usb/usbd_conf.c ****     break;
 634:usb/usbd_conf.c **** 
 635:usb/usbd_conf.c ****   case PCD_LPM_L1_ACTIVE:
 636:usb/usbd_conf.c ****     __HAL_PCD_GATE_PHYCLOCK(hpcd);
 637:usb/usbd_conf.c ****     USBD_LL_Suspend(hpcd->pData);
 638:usb/usbd_conf.c **** 
 639:usb/usbd_conf.c ****     /* Enter in STOP mode. */
 640:usb/usbd_conf.c ****     if (hpcd->Init.low_power_enable)
 641:usb/usbd_conf.c ****     {
 642:usb/usbd_conf.c ****       /* Set SLEEPDEEP bit and SleepOnExit of Cortex System Control Register. */
 643:usb/usbd_conf.c ****       SCB->SCR |= (uint32_t)((uint32_t)(SCB_SCR_SLEEPDEEP_Msk | SCB_SCR_SLEEPONEXIT_Msk));
 644:usb/usbd_conf.c ****     }
 645:usb/usbd_conf.c ****     break;
 646:usb/usbd_conf.c ****   }
 647:usb/usbd_conf.c **** }
 648:usb/usbd_conf.c **** 
 649:usb/usbd_conf.c **** /**
 650:usb/usbd_conf.c ****   * @brief  Delays routine for the USB device library.
 651:usb/usbd_conf.c ****   * @param  Delay: Delay in ms
 652:usb/usbd_conf.c ****   * @retval None
 653:usb/usbd_conf.c ****   */
 654:usb/usbd_conf.c **** void USBD_LL_Delay(uint32_t Delay)
 655:usb/usbd_conf.c **** {
 656:usb/usbd_conf.c ****   HAL_Delay(Delay);
 657:usb/usbd_conf.c **** }
 658:usb/usbd_conf.c **** 
 659:usb/usbd_conf.c **** /* USER CODE BEGIN 5 */
ARM GAS  C:\Users\BIGBIG~1\AppData\Local\Temp\ccbNRxPM.s 			page 13


 660:usb/usbd_conf.c **** /**
 661:usb/usbd_conf.c ****   * @brief  Configures system clock after wake-up from USB resume callBack:
 662:usb/usbd_conf.c ****   *         enable HSI, PLL and select PLL as system clock source.
 663:usb/usbd_conf.c ****   * @retval None
 664:usb/usbd_conf.c ****   */
 665:usb/usbd_conf.c **** static void SystemClockConfig_Resume(void)
 666:usb/usbd_conf.c **** {
  27              		.loc 1 666 1 view -0
  28              		.cfi_startproc
  29              		@ args = 0, pretend = 0, frame = 0
  30              		@ frame_needed = 0, uses_anonymous_args = 0
  31 0000 08B5     		push	{r3, lr}
  32              	.LCFI0:
  33              		.cfi_def_cfa_offset 8
  34              		.cfi_offset 3, -8
  35              		.cfi_offset 14, -4
 667:usb/usbd_conf.c ****   SystemClock_Config();
  36              		.loc 1 667 3 view .LVU1
  37 0002 FFF7FEFF 		bl	SystemClock_Config
  38              	.LVL0:
 668:usb/usbd_conf.c **** }
  39              		.loc 1 668 1 is_stmt 0 view .LVU2
  40 0006 08BD     		pop	{r3, pc}
  41              		.cfi_endproc
  42              	.LFE174:
  44              		.section	.text.HAL_PCD_MspInit,"ax",%progbits
  45              		.align	1
  46              		.global	HAL_PCD_MspInit
  47              		.syntax unified
  48              		.thumb
  49              		.thumb_func
  50              		.fpu fpv5-d16
  52              	HAL_PCD_MspInit:
  53              	.LVL1:
  54              	.LFB145:
  67:usb/usbd_conf.c ****   GPIO_InitTypeDef GPIO_InitStruct = {0};
  55              		.loc 1 67 1 is_stmt 1 view -0
  56              		.cfi_startproc
  57              		@ args = 0, pretend = 0, frame = 32
  58              		@ frame_needed = 0, uses_anonymous_args = 0
  67:usb/usbd_conf.c ****   GPIO_InitTypeDef GPIO_InitStruct = {0};
  59              		.loc 1 67 1 is_stmt 0 view .LVU4
  60 0000 70B5     		push	{r4, r5, r6, lr}
  61              	.LCFI1:
  62              		.cfi_def_cfa_offset 16
  63              		.cfi_offset 4, -16
  64              		.cfi_offset 5, -12
  65              		.cfi_offset 6, -8
  66              		.cfi_offset 14, -4
  67 0002 88B0     		sub	sp, sp, #32
  68              	.LCFI2:
  69              		.cfi_def_cfa_offset 48
  68:usb/usbd_conf.c ****   if(pcdHandle->Instance==USB_OTG_FS)
  70              		.loc 1 68 3 is_stmt 1 view .LVU5
  68:usb/usbd_conf.c ****   if(pcdHandle->Instance==USB_OTG_FS)
  71              		.loc 1 68 20 is_stmt 0 view .LVU6
  72 0004 0023     		movs	r3, #0
ARM GAS  C:\Users\BIGBIG~1\AppData\Local\Temp\ccbNRxPM.s 			page 14


  73 0006 0393     		str	r3, [sp, #12]
  74 0008 0493     		str	r3, [sp, #16]
  75 000a 0593     		str	r3, [sp, #20]
  76 000c 0693     		str	r3, [sp, #24]
  77 000e 0793     		str	r3, [sp, #28]
  69:usb/usbd_conf.c ****   {
  78              		.loc 1 69 3 is_stmt 1 view .LVU7
  69:usb/usbd_conf.c ****   {
  79              		.loc 1 69 15 is_stmt 0 view .LVU8
  80 0010 0368     		ldr	r3, [r0]
  69:usb/usbd_conf.c ****   {
  81              		.loc 1 69 5 view .LVU9
  82 0012 B3F1A04F 		cmp	r3, #1342177280
  83 0016 01D0     		beq	.L6
  84              	.LVL2:
  85              	.L3:
 105:usb/usbd_conf.c **** 
  86              		.loc 1 105 1 view .LVU10
  87 0018 08B0     		add	sp, sp, #32
  88              	.LCFI3:
  89              		.cfi_remember_state
  90              		.cfi_def_cfa_offset 16
  91              		@ sp needed
  92 001a 70BD     		pop	{r4, r5, r6, pc}
  93              	.LVL3:
  94              	.L6:
  95              	.LCFI4:
  96              		.cfi_restore_state
  75:usb/usbd_conf.c ****     /**USB_OTG_FS GPIO Configuration
  97              		.loc 1 75 5 is_stmt 1 view .LVU11
  98              	.LBB2:
  75:usb/usbd_conf.c ****     /**USB_OTG_FS GPIO Configuration
  99              		.loc 1 75 5 view .LVU12
  75:usb/usbd_conf.c ****     /**USB_OTG_FS GPIO Configuration
 100              		.loc 1 75 5 view .LVU13
 101 001c 1E4C     		ldr	r4, .L7
 102 001e 236B     		ldr	r3, [r4, #48]
 103 0020 43F00103 		orr	r3, r3, #1
 104 0024 2363     		str	r3, [r4, #48]
  75:usb/usbd_conf.c ****     /**USB_OTG_FS GPIO Configuration
 105              		.loc 1 75 5 view .LVU14
 106 0026 236B     		ldr	r3, [r4, #48]
 107 0028 03F00103 		and	r3, r3, #1
 108 002c 0093     		str	r3, [sp]
  75:usb/usbd_conf.c ****     /**USB_OTG_FS GPIO Configuration
 109              		.loc 1 75 5 view .LVU15
 110 002e 009B     		ldr	r3, [sp]
 111              	.LBE2:
  75:usb/usbd_conf.c ****     /**USB_OTG_FS GPIO Configuration
 112              		.loc 1 75 5 view .LVU16
  83:usb/usbd_conf.c ****     GPIO_InitStruct.Mode = GPIO_MODE_AF_PP;
 113              		.loc 1 83 5 view .LVU17
  83:usb/usbd_conf.c ****     GPIO_InitStruct.Mode = GPIO_MODE_AF_PP;
 114              		.loc 1 83 25 is_stmt 0 view .LVU18
 115 0030 4FF4E853 		mov	r3, #7424
 116 0034 0393     		str	r3, [sp, #12]
  84:usb/usbd_conf.c ****     GPIO_InitStruct.Pull = GPIO_NOPULL;
ARM GAS  C:\Users\BIGBIG~1\AppData\Local\Temp\ccbNRxPM.s 			page 15


 117              		.loc 1 84 5 is_stmt 1 view .LVU19
  84:usb/usbd_conf.c ****     GPIO_InitStruct.Pull = GPIO_NOPULL;
 118              		.loc 1 84 26 is_stmt 0 view .LVU20
 119 0036 0223     		movs	r3, #2
 120 0038 0493     		str	r3, [sp, #16]
  85:usb/usbd_conf.c ****     GPIO_InitStruct.Speed = GPIO_SPEED_FREQ_VERY_HIGH;
 121              		.loc 1 85 5 is_stmt 1 view .LVU21
  85:usb/usbd_conf.c ****     GPIO_InitStruct.Speed = GPIO_SPEED_FREQ_VERY_HIGH;
 122              		.loc 1 85 26 is_stmt 0 view .LVU22
 123 003a 0025     		movs	r5, #0
 124 003c 0595     		str	r5, [sp, #20]
  86:usb/usbd_conf.c ****     GPIO_InitStruct.Alternate = GPIO_AF10_OTG_FS;
 125              		.loc 1 86 5 is_stmt 1 view .LVU23
  86:usb/usbd_conf.c ****     GPIO_InitStruct.Alternate = GPIO_AF10_OTG_FS;
 126              		.loc 1 86 27 is_stmt 0 view .LVU24
 127 003e 0323     		movs	r3, #3
 128 0040 0693     		str	r3, [sp, #24]
  87:usb/usbd_conf.c ****     HAL_GPIO_Init(GPIOA, &GPIO_InitStruct);
 129              		.loc 1 87 5 is_stmt 1 view .LVU25
  87:usb/usbd_conf.c ****     HAL_GPIO_Init(GPIOA, &GPIO_InitStruct);
 130              		.loc 1 87 31 is_stmt 0 view .LVU26
 131 0042 0A23     		movs	r3, #10
 132 0044 0793     		str	r3, [sp, #28]
  88:usb/usbd_conf.c **** 
 133              		.loc 1 88 5 is_stmt 1 view .LVU27
 134 0046 154E     		ldr	r6, .L7+4
 135 0048 03A9     		add	r1, sp, #12
 136 004a 3046     		mov	r0, r6
 137              	.LVL4:
  88:usb/usbd_conf.c **** 
 138              		.loc 1 88 5 is_stmt 0 view .LVU28
 139 004c FFF7FEFF 		bl	HAL_GPIO_Init
 140              	.LVL5:
  90:usb/usbd_conf.c ****     GPIO_InitStruct.Mode = GPIO_MODE_INPUT;
 141              		.loc 1 90 5 is_stmt 1 view .LVU29
  90:usb/usbd_conf.c ****     GPIO_InitStruct.Mode = GPIO_MODE_INPUT;
 142              		.loc 1 90 25 is_stmt 0 view .LVU30
 143 0050 4FF40073 		mov	r3, #512
 144 0054 0393     		str	r3, [sp, #12]
  91:usb/usbd_conf.c ****     GPIO_InitStruct.Pull = GPIO_NOPULL;
 145              		.loc 1 91 5 is_stmt 1 view .LVU31
  91:usb/usbd_conf.c ****     GPIO_InitStruct.Pull = GPIO_NOPULL;
 146              		.loc 1 91 26 is_stmt 0 view .LVU32
 147 0056 0495     		str	r5, [sp, #16]
  92:usb/usbd_conf.c ****     HAL_GPIO_Init(USB_VBUS_GPIO_Port, &GPIO_InitStruct);
 148              		.loc 1 92 5 is_stmt 1 view .LVU33
  92:usb/usbd_conf.c ****     HAL_GPIO_Init(USB_VBUS_GPIO_Port, &GPIO_InitStruct);
 149              		.loc 1 92 26 is_stmt 0 view .LVU34
 150 0058 0595     		str	r5, [sp, #20]
  93:usb/usbd_conf.c **** 
 151              		.loc 1 93 5 is_stmt 1 view .LVU35
 152 005a 03A9     		add	r1, sp, #12
 153 005c 3046     		mov	r0, r6
 154 005e FFF7FEFF 		bl	HAL_GPIO_Init
 155              	.LVL6:
  96:usb/usbd_conf.c **** 
 156              		.loc 1 96 5 view .LVU36
ARM GAS  C:\Users\BIGBIG~1\AppData\Local\Temp\ccbNRxPM.s 			page 16


 157              	.LBB3:
  96:usb/usbd_conf.c **** 
 158              		.loc 1 96 5 view .LVU37
  96:usb/usbd_conf.c **** 
 159              		.loc 1 96 5 view .LVU38
 160 0062 636B     		ldr	r3, [r4, #52]
 161 0064 43F08003 		orr	r3, r3, #128
 162 0068 6363     		str	r3, [r4, #52]
  96:usb/usbd_conf.c **** 
 163              		.loc 1 96 5 view .LVU39
 164 006a 636B     		ldr	r3, [r4, #52]
 165 006c 03F08003 		and	r3, r3, #128
 166 0070 0193     		str	r3, [sp, #4]
  96:usb/usbd_conf.c **** 
 167              		.loc 1 96 5 view .LVU40
 168 0072 019B     		ldr	r3, [sp, #4]
  96:usb/usbd_conf.c **** 
 169              		.loc 1 96 5 view .LVU41
 170              	.LBB4:
  96:usb/usbd_conf.c **** 
 171              		.loc 1 96 5 view .LVU42
  96:usb/usbd_conf.c **** 
 172              		.loc 1 96 5 view .LVU43
 173 0074 636C     		ldr	r3, [r4, #68]
 174 0076 43F48043 		orr	r3, r3, #16384
 175 007a 6364     		str	r3, [r4, #68]
  96:usb/usbd_conf.c **** 
 176              		.loc 1 96 5 view .LVU44
 177 007c 636C     		ldr	r3, [r4, #68]
 178 007e 03F48043 		and	r3, r3, #16384
 179 0082 0293     		str	r3, [sp, #8]
  96:usb/usbd_conf.c **** 
 180              		.loc 1 96 5 view .LVU45
 181 0084 029B     		ldr	r3, [sp, #8]
 182              	.LBE4:
  96:usb/usbd_conf.c **** 
 183              		.loc 1 96 5 view .LVU46
 184              	.LBE3:
  96:usb/usbd_conf.c **** 
 185              		.loc 1 96 5 view .LVU47
  99:usb/usbd_conf.c ****     HAL_NVIC_EnableIRQ(OTG_FS_IRQn);
 186              		.loc 1 99 5 view .LVU48
 187 0086 2A46     		mov	r2, r5
 188 0088 2946     		mov	r1, r5
 189 008a 4320     		movs	r0, #67
 190 008c FFF7FEFF 		bl	HAL_NVIC_SetPriority
 191              	.LVL7:
 100:usb/usbd_conf.c ****   /* USER CODE BEGIN USB_OTG_FS_MspInit 1 */
 192              		.loc 1 100 5 view .LVU49
 193 0090 4320     		movs	r0, #67
 194 0092 FFF7FEFF 		bl	HAL_NVIC_EnableIRQ
 195              	.LVL8:
 105:usb/usbd_conf.c **** 
 196              		.loc 1 105 1 is_stmt 0 view .LVU50
 197 0096 BFE7     		b	.L3
 198              	.L8:
 199              		.align	2
ARM GAS  C:\Users\BIGBIG~1\AppData\Local\Temp\ccbNRxPM.s 			page 17


 200              	.L7:
 201 0098 00380240 		.word	1073887232
 202 009c 00000240 		.word	1073872896
 203              		.cfi_endproc
 204              	.LFE145:
 206              		.section	.text.HAL_PCD_MspDeInit,"ax",%progbits
 207              		.align	1
 208              		.global	HAL_PCD_MspDeInit
 209              		.syntax unified
 210              		.thumb
 211              		.thumb_func
 212              		.fpu fpv5-d16
 214              	HAL_PCD_MspDeInit:
 215              	.LVL9:
 216              	.LFB146:
 108:usb/usbd_conf.c ****   if(pcdHandle->Instance==USB_OTG_FS)
 217              		.loc 1 108 1 is_stmt 1 view -0
 218              		.cfi_startproc
 219              		@ args = 0, pretend = 0, frame = 0
 220              		@ frame_needed = 0, uses_anonymous_args = 0
 108:usb/usbd_conf.c ****   if(pcdHandle->Instance==USB_OTG_FS)
 221              		.loc 1 108 1 is_stmt 0 view .LVU52
 222 0000 08B5     		push	{r3, lr}
 223              	.LCFI5:
 224              		.cfi_def_cfa_offset 8
 225              		.cfi_offset 3, -8
 226              		.cfi_offset 14, -4
 109:usb/usbd_conf.c ****   {
 227              		.loc 1 109 3 is_stmt 1 view .LVU53
 109:usb/usbd_conf.c ****   {
 228              		.loc 1 109 15 is_stmt 0 view .LVU54
 229 0002 0368     		ldr	r3, [r0]
 109:usb/usbd_conf.c ****   {
 230              		.loc 1 109 5 view .LVU55
 231 0004 B3F1A04F 		cmp	r3, #1342177280
 232 0008 00D0     		beq	.L12
 233              	.LVL10:
 234              	.L9:
 134:usb/usbd_conf.c **** 
 235              		.loc 1 134 1 view .LVU56
 236 000a 08BD     		pop	{r3, pc}
 237              	.LVL11:
 238              	.L12:
 115:usb/usbd_conf.c **** 
 239              		.loc 1 115 5 is_stmt 1 view .LVU57
 240 000c 064A     		ldr	r2, .L13
 241 000e 536B     		ldr	r3, [r2, #52]
 242 0010 23F08003 		bic	r3, r3, #128
 243 0014 5363     		str	r3, [r2, #52]
 124:usb/usbd_conf.c ****                           |USB_DP_Pin);
 244              		.loc 1 124 5 view .LVU58
 245 0016 4FF4F851 		mov	r1, #7936
 246 001a 0448     		ldr	r0, .L13+4
 247              	.LVL12:
 124:usb/usbd_conf.c ****                           |USB_DP_Pin);
 248              		.loc 1 124 5 is_stmt 0 view .LVU59
 249 001c FFF7FEFF 		bl	HAL_GPIO_DeInit
ARM GAS  C:\Users\BIGBIG~1\AppData\Local\Temp\ccbNRxPM.s 			page 18


 250              	.LVL13:
 128:usb/usbd_conf.c **** 
 251              		.loc 1 128 5 is_stmt 1 view .LVU60
 252 0020 4320     		movs	r0, #67
 253 0022 FFF7FEFF 		bl	HAL_NVIC_DisableIRQ
 254              	.LVL14:
 134:usb/usbd_conf.c **** 
 255              		.loc 1 134 1 is_stmt 0 view .LVU61
 256 0026 F0E7     		b	.L9
 257              	.L14:
 258              		.align	2
 259              	.L13:
 260 0028 00380240 		.word	1073887232
 261 002c 00000240 		.word	1073872896
 262              		.cfi_endproc
 263              	.LFE146:
 265              		.section	.text.HAL_PCD_SetupStageCallback,"ax",%progbits
 266              		.align	1
 267              		.global	HAL_PCD_SetupStageCallback
 268              		.syntax unified
 269              		.thumb
 270              		.thumb_func
 271              		.fpu fpv5-d16
 273              	HAL_PCD_SetupStageCallback:
 274              	.LVL15:
 275              	.LFB147:
 146:usb/usbd_conf.c ****   USBD_LL_SetupStage((USBD_HandleTypeDef*)hpcd->pData, (uint8_t *)hpcd->Setup);
 276              		.loc 1 146 1 is_stmt 1 view -0
 277              		.cfi_startproc
 278              		@ args = 0, pretend = 0, frame = 0
 279              		@ frame_needed = 0, uses_anonymous_args = 0
 146:usb/usbd_conf.c ****   USBD_LL_SetupStage((USBD_HandleTypeDef*)hpcd->pData, (uint8_t *)hpcd->Setup);
 280              		.loc 1 146 1 is_stmt 0 view .LVU63
 281 0000 08B5     		push	{r3, lr}
 282              	.LCFI6:
 283              		.cfi_def_cfa_offset 8
 284              		.cfi_offset 3, -8
 285              		.cfi_offset 14, -4
 147:usb/usbd_conf.c **** }
 286              		.loc 1 147 3 is_stmt 1 view .LVU64
 287 0002 00F57171 		add	r1, r0, #964
 288 0006 D0F80004 		ldr	r0, [r0, #1024]
 289              	.LVL16:
 147:usb/usbd_conf.c **** }
 290              		.loc 1 147 3 is_stmt 0 view .LVU65
 291 000a FFF7FEFF 		bl	USBD_LL_SetupStage
 292              	.LVL17:
 148:usb/usbd_conf.c **** 
 293              		.loc 1 148 1 view .LVU66
 294 000e 08BD     		pop	{r3, pc}
 295              		.cfi_endproc
 296              	.LFE147:
 298              		.section	.text.HAL_PCD_DataOutStageCallback,"ax",%progbits
 299              		.align	1
 300              		.global	HAL_PCD_DataOutStageCallback
 301              		.syntax unified
 302              		.thumb
ARM GAS  C:\Users\BIGBIG~1\AppData\Local\Temp\ccbNRxPM.s 			page 19


 303              		.thumb_func
 304              		.fpu fpv5-d16
 306              	HAL_PCD_DataOutStageCallback:
 307              	.LVL18:
 308              	.LFB148:
 161:usb/usbd_conf.c ****   USBD_LL_DataOutStage((USBD_HandleTypeDef*)hpcd->pData, epnum, hpcd->OUT_ep[epnum].xfer_buff);
 309              		.loc 1 161 1 is_stmt 1 view -0
 310              		.cfi_startproc
 311              		@ args = 0, pretend = 0, frame = 0
 312              		@ frame_needed = 0, uses_anonymous_args = 0
 161:usb/usbd_conf.c ****   USBD_LL_DataOutStage((USBD_HandleTypeDef*)hpcd->pData, epnum, hpcd->OUT_ep[epnum].xfer_buff);
 313              		.loc 1 161 1 is_stmt 0 view .LVU68
 314 0000 08B5     		push	{r3, lr}
 315              	.LCFI7:
 316              		.cfi_def_cfa_offset 8
 317              		.cfi_offset 3, -8
 318              		.cfi_offset 14, -4
 162:usb/usbd_conf.c **** }
 319              		.loc 1 162 3 is_stmt 1 view .LVU69
 320 0002 C1EBC103 		rsb	r3, r1, r1, lsl #3
 321 0006 00EB8303 		add	r3, r0, r3, lsl #2
 322 000a D3F80822 		ldr	r2, [r3, #520]
 323 000e D0F80004 		ldr	r0, [r0, #1024]
 324              	.LVL19:
 162:usb/usbd_conf.c **** }
 325              		.loc 1 162 3 is_stmt 0 view .LVU70
 326 0012 FFF7FEFF 		bl	USBD_LL_DataOutStage
 327              	.LVL20:
 163:usb/usbd_conf.c **** 
 328              		.loc 1 163 1 view .LVU71
 329 0016 08BD     		pop	{r3, pc}
 330              		.cfi_endproc
 331              	.LFE148:
 333              		.section	.text.HAL_PCD_DataInStageCallback,"ax",%progbits
 334              		.align	1
 335              		.global	HAL_PCD_DataInStageCallback
 336              		.syntax unified
 337              		.thumb
 338              		.thumb_func
 339              		.fpu fpv5-d16
 341              	HAL_PCD_DataInStageCallback:
 342              	.LVL21:
 343              	.LFB149:
 176:usb/usbd_conf.c ****   USBD_LL_DataInStage((USBD_HandleTypeDef*)hpcd->pData, epnum, hpcd->IN_ep[epnum].xfer_buff);
 344              		.loc 1 176 1 is_stmt 1 view -0
 345              		.cfi_startproc
 346              		@ args = 0, pretend = 0, frame = 0
 347              		@ frame_needed = 0, uses_anonymous_args = 0
 176:usb/usbd_conf.c ****   USBD_LL_DataInStage((USBD_HandleTypeDef*)hpcd->pData, epnum, hpcd->IN_ep[epnum].xfer_buff);
 348              		.loc 1 176 1 is_stmt 0 view .LVU73
 349 0000 08B5     		push	{r3, lr}
 350              	.LCFI8:
 351              		.cfi_def_cfa_offset 8
 352              		.cfi_offset 3, -8
 353              		.cfi_offset 14, -4
 177:usb/usbd_conf.c **** }
 354              		.loc 1 177 3 is_stmt 1 view .LVU74
ARM GAS  C:\Users\BIGBIG~1\AppData\Local\Temp\ccbNRxPM.s 			page 20


 355 0002 C1EBC103 		rsb	r3, r1, r1, lsl #3
 356 0006 00EB8303 		add	r3, r0, r3, lsl #2
 357 000a 9A6C     		ldr	r2, [r3, #72]
 358 000c D0F80004 		ldr	r0, [r0, #1024]
 359              	.LVL22:
 177:usb/usbd_conf.c **** }
 360              		.loc 1 177 3 is_stmt 0 view .LVU75
 361 0010 FFF7FEFF 		bl	USBD_LL_DataInStage
 362              	.LVL23:
 178:usb/usbd_conf.c **** 
 363              		.loc 1 178 1 view .LVU76
 364 0014 08BD     		pop	{r3, pc}
 365              		.cfi_endproc
 366              	.LFE149:
 368              		.section	.text.HAL_PCD_SOFCallback,"ax",%progbits
 369              		.align	1
 370              		.global	HAL_PCD_SOFCallback
 371              		.syntax unified
 372              		.thumb
 373              		.thumb_func
 374              		.fpu fpv5-d16
 376              	HAL_PCD_SOFCallback:
 377              	.LVL24:
 378              	.LFB150:
 190:usb/usbd_conf.c ****   USBD_LL_SOF((USBD_HandleTypeDef*)hpcd->pData);
 379              		.loc 1 190 1 is_stmt 1 view -0
 380              		.cfi_startproc
 381              		@ args = 0, pretend = 0, frame = 0
 382              		@ frame_needed = 0, uses_anonymous_args = 0
 190:usb/usbd_conf.c ****   USBD_LL_SOF((USBD_HandleTypeDef*)hpcd->pData);
 383              		.loc 1 190 1 is_stmt 0 view .LVU78
 384 0000 08B5     		push	{r3, lr}
 385              	.LCFI9:
 386              		.cfi_def_cfa_offset 8
 387              		.cfi_offset 3, -8
 388              		.cfi_offset 14, -4
 191:usb/usbd_conf.c **** }
 389              		.loc 1 191 3 is_stmt 1 view .LVU79
 390 0002 D0F80004 		ldr	r0, [r0, #1024]
 391              	.LVL25:
 191:usb/usbd_conf.c **** }
 392              		.loc 1 191 3 is_stmt 0 view .LVU80
 393 0006 FFF7FEFF 		bl	USBD_LL_SOF
 394              	.LVL26:
 192:usb/usbd_conf.c **** 
 395              		.loc 1 192 1 view .LVU81
 396 000a 08BD     		pop	{r3, pc}
 397              		.cfi_endproc
 398              	.LFE150:
 400              		.section	.rodata.HAL_PCD_ResetCallback.str1.4,"aMS",%progbits,1
 401              		.align	2
 402              	.LC0:
 403 0000 55534220 		.ascii	"USB Speed Set fault\000"
 403      53706565 
 403      64205365 
 403      74206661 
 403      756C7400 
ARM GAS  C:\Users\BIGBIG~1\AppData\Local\Temp\ccbNRxPM.s 			page 21


 404              		.section	.text.HAL_PCD_ResetCallback,"ax",%progbits
 405              		.align	1
 406              		.global	HAL_PCD_ResetCallback
 407              		.syntax unified
 408              		.thumb
 409              		.thumb_func
 410              		.fpu fpv5-d16
 412              	HAL_PCD_ResetCallback:
 413              	.LVL27:
 414              	.LFB151:
 204:usb/usbd_conf.c ****   USBD_SpeedTypeDef speed = USBD_SPEED_FULL;
 415              		.loc 1 204 1 is_stmt 1 view -0
 416              		.cfi_startproc
 417              		@ args = 0, pretend = 0, frame = 0
 418              		@ frame_needed = 0, uses_anonymous_args = 0
 204:usb/usbd_conf.c ****   USBD_SpeedTypeDef speed = USBD_SPEED_FULL;
 419              		.loc 1 204 1 is_stmt 0 view .LVU83
 420 0000 10B5     		push	{r4, lr}
 421              	.LCFI10:
 422              		.cfi_def_cfa_offset 8
 423              		.cfi_offset 4, -8
 424              		.cfi_offset 14, -4
 425 0002 0446     		mov	r4, r0
 205:usb/usbd_conf.c **** 
 426              		.loc 1 205 3 is_stmt 1 view .LVU84
 427              	.LVL28:
 207:usb/usbd_conf.c ****   {
 428              		.loc 1 207 3 view .LVU85
 207:usb/usbd_conf.c ****   {
 429              		.loc 1 207 18 is_stmt 0 view .LVU86
 430 0004 C368     		ldr	r3, [r0, #12]
 207:usb/usbd_conf.c ****   {
 431              		.loc 1 207 6 view .LVU87
 432 0006 43B1     		cbz	r3, .L25
 211:usb/usbd_conf.c ****   {
 433              		.loc 1 211 8 is_stmt 1 view .LVU88
 211:usb/usbd_conf.c ****   {
 434              		.loc 1 211 11 is_stmt 0 view .LVU89
 435 0008 022B     		cmp	r3, #2
 436 000a 01D1     		bne	.L28
 213:usb/usbd_conf.c ****   }
 437              		.loc 1 213 11 view .LVU90
 438 000c 0121     		movs	r1, #1
 439 000e 05E0     		b	.L24
 440              	.L28:
 217:usb/usbd_conf.c ****   }
 441              		.loc 1 217 5 is_stmt 1 view .LVU91
 442 0010 0748     		ldr	r0, .L29
 443              	.LVL29:
 217:usb/usbd_conf.c ****   }
 444              		.loc 1 217 5 is_stmt 0 view .LVU92
 445 0012 FFF7FEFF 		bl	Error_Handler
 446              	.LVL30:
 205:usb/usbd_conf.c **** 
 447              		.loc 1 205 21 view .LVU93
 448 0016 0121     		movs	r1, #1
 449 0018 00E0     		b	.L24
ARM GAS  C:\Users\BIGBIG~1\AppData\Local\Temp\ccbNRxPM.s 			page 22


 450              	.LVL31:
 451              	.L25:
 209:usb/usbd_conf.c ****   }
 452              		.loc 1 209 11 view .LVU94
 453 001a 0021     		movs	r1, #0
 454              	.LVL32:
 455              	.L24:
 220:usb/usbd_conf.c **** 
 456              		.loc 1 220 3 is_stmt 1 view .LVU95
 457 001c D4F80004 		ldr	r0, [r4, #1024]
 458 0020 FFF7FEFF 		bl	USBD_LL_SetSpeed
 459              	.LVL33:
 223:usb/usbd_conf.c **** }
 460              		.loc 1 223 3 view .LVU96
 461 0024 D4F80004 		ldr	r0, [r4, #1024]
 462 0028 FFF7FEFF 		bl	USBD_LL_Reset
 463              	.LVL34:
 224:usb/usbd_conf.c **** 
 464              		.loc 1 224 1 is_stmt 0 view .LVU97
 465 002c 10BD     		pop	{r4, pc}
 466              	.LVL35:
 467              	.L30:
 224:usb/usbd_conf.c **** 
 468              		.loc 1 224 1 view .LVU98
 469 002e 00BF     		.align	2
 470              	.L29:
 471 0030 00000000 		.word	.LC0
 472              		.cfi_endproc
 473              	.LFE151:
 475              		.section	.text.HAL_PCD_SuspendCallback,"ax",%progbits
 476              		.align	1
 477              		.global	HAL_PCD_SuspendCallback
 478              		.syntax unified
 479              		.thumb
 480              		.thumb_func
 481              		.fpu fpv5-d16
 483              	HAL_PCD_SuspendCallback:
 484              	.LVL36:
 485              	.LFB152:
 237:usb/usbd_conf.c ****   /* Inform USB library that core enters in suspend Mode. */
 486              		.loc 1 237 1 is_stmt 1 view -0
 487              		.cfi_startproc
 488              		@ args = 0, pretend = 0, frame = 0
 489              		@ frame_needed = 0, uses_anonymous_args = 0
 237:usb/usbd_conf.c ****   /* Inform USB library that core enters in suspend Mode. */
 490              		.loc 1 237 1 is_stmt 0 view .LVU100
 491 0000 10B5     		push	{r4, lr}
 492              	.LCFI11:
 493              		.cfi_def_cfa_offset 8
 494              		.cfi_offset 4, -8
 495              		.cfi_offset 14, -4
 496 0002 0446     		mov	r4, r0
 239:usb/usbd_conf.c ****   __HAL_PCD_GATE_PHYCLOCK(hpcd);
 497              		.loc 1 239 3 is_stmt 1 view .LVU101
 498 0004 D0F80004 		ldr	r0, [r0, #1024]
 499              	.LVL37:
 239:usb/usbd_conf.c ****   __HAL_PCD_GATE_PHYCLOCK(hpcd);
ARM GAS  C:\Users\BIGBIG~1\AppData\Local\Temp\ccbNRxPM.s 			page 23


 500              		.loc 1 239 3 is_stmt 0 view .LVU102
 501 0008 FFF7FEFF 		bl	USBD_LL_Suspend
 502              	.LVL38:
 240:usb/usbd_conf.c ****   /* Enter in STOP mode. */
 503              		.loc 1 240 3 is_stmt 1 view .LVU103
 504 000c 2268     		ldr	r2, [r4]
 505 000e D2F8003E 		ldr	r3, [r2, #3584]
 506 0012 43F00103 		orr	r3, r3, #1
 507 0016 C2F8003E 		str	r3, [r2, #3584]
 243:usb/usbd_conf.c ****   {
 508              		.loc 1 243 3 view .LVU104
 243:usb/usbd_conf.c ****   {
 509              		.loc 1 243 17 is_stmt 0 view .LVU105
 510 001a 236A     		ldr	r3, [r4, #32]
 243:usb/usbd_conf.c ****   {
 511              		.loc 1 243 6 view .LVU106
 512 001c 23B1     		cbz	r3, .L31
 246:usb/usbd_conf.c ****   }
 513              		.loc 1 246 5 is_stmt 1 view .LVU107
 246:usb/usbd_conf.c ****   }
 514              		.loc 1 246 14 is_stmt 0 view .LVU108
 515 001e 034A     		ldr	r2, .L34
 516 0020 1369     		ldr	r3, [r2, #16]
 517 0022 43F00603 		orr	r3, r3, #6
 518 0026 1361     		str	r3, [r2, #16]
 519              	.L31:
 249:usb/usbd_conf.c **** 
 520              		.loc 1 249 1 view .LVU109
 521 0028 10BD     		pop	{r4, pc}
 522              	.LVL39:
 523              	.L35:
 249:usb/usbd_conf.c **** 
 524              		.loc 1 249 1 view .LVU110
 525 002a 00BF     		.align	2
 526              	.L34:
 527 002c 00ED00E0 		.word	-536810240
 528              		.cfi_endproc
 529              	.LFE152:
 531              		.section	.text.HAL_PCD_ResumeCallback,"ax",%progbits
 532              		.align	1
 533              		.global	HAL_PCD_ResumeCallback
 534              		.syntax unified
 535              		.thumb
 536              		.thumb_func
 537              		.fpu fpv5-d16
 539              	HAL_PCD_ResumeCallback:
 540              	.LVL40:
 541              	.LFB153:
 262:usb/usbd_conf.c ****   /* USER CODE BEGIN 3 */
 542              		.loc 1 262 1 is_stmt 1 view -0
 543              		.cfi_startproc
 544              		@ args = 0, pretend = 0, frame = 0
 545              		@ frame_needed = 0, uses_anonymous_args = 0
 262:usb/usbd_conf.c ****   /* USER CODE BEGIN 3 */
 546              		.loc 1 262 1 is_stmt 0 view .LVU112
 547 0000 08B5     		push	{r3, lr}
 548              	.LCFI12:
ARM GAS  C:\Users\BIGBIG~1\AppData\Local\Temp\ccbNRxPM.s 			page 24


 549              		.cfi_def_cfa_offset 8
 550              		.cfi_offset 3, -8
 551              		.cfi_offset 14, -4
 266:usb/usbd_conf.c **** }
 552              		.loc 1 266 3 is_stmt 1 view .LVU113
 553 0002 D0F80004 		ldr	r0, [r0, #1024]
 554              	.LVL41:
 266:usb/usbd_conf.c **** }
 555              		.loc 1 266 3 is_stmt 0 view .LVU114
 556 0006 FFF7FEFF 		bl	USBD_LL_Resume
 557              	.LVL42:
 267:usb/usbd_conf.c **** 
 558              		.loc 1 267 1 view .LVU115
 559 000a 08BD     		pop	{r3, pc}
 560              		.cfi_endproc
 561              	.LFE153:
 563              		.section	.text.HAL_PCD_ISOOUTIncompleteCallback,"ax",%progbits
 564              		.align	1
 565              		.global	HAL_PCD_ISOOUTIncompleteCallback
 566              		.syntax unified
 567              		.thumb
 568              		.thumb_func
 569              		.fpu fpv5-d16
 571              	HAL_PCD_ISOOUTIncompleteCallback:
 572              	.LVL43:
 573              	.LFB154:
 280:usb/usbd_conf.c ****   USBD_LL_IsoOUTIncomplete((USBD_HandleTypeDef*)hpcd->pData, epnum);
 574              		.loc 1 280 1 is_stmt 1 view -0
 575              		.cfi_startproc
 576              		@ args = 0, pretend = 0, frame = 0
 577              		@ frame_needed = 0, uses_anonymous_args = 0
 280:usb/usbd_conf.c ****   USBD_LL_IsoOUTIncomplete((USBD_HandleTypeDef*)hpcd->pData, epnum);
 578              		.loc 1 280 1 is_stmt 0 view .LVU117
 579 0000 08B5     		push	{r3, lr}
 580              	.LCFI13:
 581              		.cfi_def_cfa_offset 8
 582              		.cfi_offset 3, -8
 583              		.cfi_offset 14, -4
 281:usb/usbd_conf.c **** }
 584              		.loc 1 281 3 is_stmt 1 view .LVU118
 585 0002 D0F80004 		ldr	r0, [r0, #1024]
 586              	.LVL44:
 281:usb/usbd_conf.c **** }
 587              		.loc 1 281 3 is_stmt 0 view .LVU119
 588 0006 FFF7FEFF 		bl	USBD_LL_IsoOUTIncomplete
 589              	.LVL45:
 282:usb/usbd_conf.c **** 
 590              		.loc 1 282 1 view .LVU120
 591 000a 08BD     		pop	{r3, pc}
 592              		.cfi_endproc
 593              	.LFE154:
 595              		.section	.text.HAL_PCD_ISOINIncompleteCallback,"ax",%progbits
 596              		.align	1
 597              		.global	HAL_PCD_ISOINIncompleteCallback
 598              		.syntax unified
 599              		.thumb
 600              		.thumb_func
ARM GAS  C:\Users\BIGBIG~1\AppData\Local\Temp\ccbNRxPM.s 			page 25


 601              		.fpu fpv5-d16
 603              	HAL_PCD_ISOINIncompleteCallback:
 604              	.LVL46:
 605              	.LFB155:
 295:usb/usbd_conf.c ****   USBD_LL_IsoINIncomplete((USBD_HandleTypeDef*)hpcd->pData, epnum);
 606              		.loc 1 295 1 is_stmt 1 view -0
 607              		.cfi_startproc
 608              		@ args = 0, pretend = 0, frame = 0
 609              		@ frame_needed = 0, uses_anonymous_args = 0
 295:usb/usbd_conf.c ****   USBD_LL_IsoINIncomplete((USBD_HandleTypeDef*)hpcd->pData, epnum);
 610              		.loc 1 295 1 is_stmt 0 view .LVU122
 611 0000 08B5     		push	{r3, lr}
 612              	.LCFI14:
 613              		.cfi_def_cfa_offset 8
 614              		.cfi_offset 3, -8
 615              		.cfi_offset 14, -4
 296:usb/usbd_conf.c **** }
 616              		.loc 1 296 3 is_stmt 1 view .LVU123
 617 0002 D0F80004 		ldr	r0, [r0, #1024]
 618              	.LVL47:
 296:usb/usbd_conf.c **** }
 619              		.loc 1 296 3 is_stmt 0 view .LVU124
 620 0006 FFF7FEFF 		bl	USBD_LL_IsoINIncomplete
 621              	.LVL48:
 297:usb/usbd_conf.c **** 
 622              		.loc 1 297 1 view .LVU125
 623 000a 08BD     		pop	{r3, pc}
 624              		.cfi_endproc
 625              	.LFE155:
 627              		.section	.text.HAL_PCD_ConnectCallback,"ax",%progbits
 628              		.align	1
 629              		.global	HAL_PCD_ConnectCallback
 630              		.syntax unified
 631              		.thumb
 632              		.thumb_func
 633              		.fpu fpv5-d16
 635              	HAL_PCD_ConnectCallback:
 636              	.LVL49:
 637              	.LFB156:
 309:usb/usbd_conf.c ****   USBD_LL_DevConnected((USBD_HandleTypeDef*)hpcd->pData);
 638              		.loc 1 309 1 is_stmt 1 view -0
 639              		.cfi_startproc
 640              		@ args = 0, pretend = 0, frame = 0
 641              		@ frame_needed = 0, uses_anonymous_args = 0
 309:usb/usbd_conf.c ****   USBD_LL_DevConnected((USBD_HandleTypeDef*)hpcd->pData);
 642              		.loc 1 309 1 is_stmt 0 view .LVU127
 643 0000 08B5     		push	{r3, lr}
 644              	.LCFI15:
 645              		.cfi_def_cfa_offset 8
 646              		.cfi_offset 3, -8
 647              		.cfi_offset 14, -4
 310:usb/usbd_conf.c **** }
 648              		.loc 1 310 3 is_stmt 1 view .LVU128
 649 0002 D0F80004 		ldr	r0, [r0, #1024]
 650              	.LVL50:
 310:usb/usbd_conf.c **** }
 651              		.loc 1 310 3 is_stmt 0 view .LVU129
ARM GAS  C:\Users\BIGBIG~1\AppData\Local\Temp\ccbNRxPM.s 			page 26


 652 0006 FFF7FEFF 		bl	USBD_LL_DevConnected
 653              	.LVL51:
 311:usb/usbd_conf.c **** 
 654              		.loc 1 311 1 view .LVU130
 655 000a 08BD     		pop	{r3, pc}
 656              		.cfi_endproc
 657              	.LFE156:
 659              		.section	.text.HAL_PCD_DisconnectCallback,"ax",%progbits
 660              		.align	1
 661              		.global	HAL_PCD_DisconnectCallback
 662              		.syntax unified
 663              		.thumb
 664              		.thumb_func
 665              		.fpu fpv5-d16
 667              	HAL_PCD_DisconnectCallback:
 668              	.LVL52:
 669              	.LFB157:
 323:usb/usbd_conf.c ****   USBD_LL_DevDisconnected((USBD_HandleTypeDef*)hpcd->pData);
 670              		.loc 1 323 1 is_stmt 1 view -0
 671              		.cfi_startproc
 672              		@ args = 0, pretend = 0, frame = 0
 673              		@ frame_needed = 0, uses_anonymous_args = 0
 323:usb/usbd_conf.c ****   USBD_LL_DevDisconnected((USBD_HandleTypeDef*)hpcd->pData);
 674              		.loc 1 323 1 is_stmt 0 view .LVU132
 675 0000 08B5     		push	{r3, lr}
 676              	.LCFI16:
 677              		.cfi_def_cfa_offset 8
 678              		.cfi_offset 3, -8
 679              		.cfi_offset 14, -4
 324:usb/usbd_conf.c **** }
 680              		.loc 1 324 3 is_stmt 1 view .LVU133
 681 0002 D0F80004 		ldr	r0, [r0, #1024]
 682              	.LVL53:
 324:usb/usbd_conf.c **** }
 683              		.loc 1 324 3 is_stmt 0 view .LVU134
 684 0006 FFF7FEFF 		bl	USBD_LL_DevDisconnected
 685              	.LVL54:
 325:usb/usbd_conf.c **** 
 686              		.loc 1 325 1 view .LVU135
 687 000a 08BD     		pop	{r3, pc}
 688              		.cfi_endproc
 689              	.LFE157:
 691              		.section	.rodata.USBD_LL_Init.str1.4,"aMS",%progbits,1
 692              		.align	2
 693              	.LC1:
 694 0000 55534244 		.ascii	"USBD LL fault\000"
 694      204C4C20 
 694      6661756C 
 694      7400
 695              		.section	.text.USBD_LL_Init,"ax",%progbits
 696              		.align	1
 697              		.global	USBD_LL_Init
 698              		.syntax unified
 699              		.thumb
 700              		.thumb_func
 701              		.fpu fpv5-d16
 703              	USBD_LL_Init:
ARM GAS  C:\Users\BIGBIG~1\AppData\Local\Temp\ccbNRxPM.s 			page 27


 704              	.LVL55:
 705              	.LFB158:
 337:usb/usbd_conf.c ****   /* Init USB Ip. */
 706              		.loc 1 337 1 is_stmt 1 view -0
 707              		.cfi_startproc
 708              		@ args = 0, pretend = 0, frame = 0
 709              		@ frame_needed = 0, uses_anonymous_args = 0
 339:usb/usbd_conf.c ****   /* Link the driver to the stack. */
 710              		.loc 1 339 3 view .LVU137
 339:usb/usbd_conf.c ****   /* Link the driver to the stack. */
 711              		.loc 1 339 11 is_stmt 0 view .LVU138
 712 0000 0278     		ldrb	r2, [r0]	@ zero_extendqisi2
 339:usb/usbd_conf.c ****   /* Link the driver to the stack. */
 713              		.loc 1 339 6 view .LVU139
 714 0002 0AB1     		cbz	r2, .L53
 378:usb/usbd_conf.c **** }
 715              		.loc 1 378 3 is_stmt 1 view .LVU140
 379:usb/usbd_conf.c **** 
 716              		.loc 1 379 1 is_stmt 0 view .LVU141
 717 0004 0020     		movs	r0, #0
 718              	.LVL56:
 379:usb/usbd_conf.c **** 
 719              		.loc 1 379 1 view .LVU142
 720 0006 7047     		bx	lr
 721              	.LVL57:
 722              	.L53:
 337:usb/usbd_conf.c ****   /* Init USB Ip. */
 723              		.loc 1 337 1 view .LVU143
 724 0008 10B5     		push	{r4, lr}
 725              	.LCFI17:
 726              		.cfi_def_cfa_offset 8
 727              		.cfi_offset 4, -8
 728              		.cfi_offset 14, -4
 729 000a 0346     		mov	r3, r0
 341:usb/usbd_conf.c ****   pdev->pData = &hpcd_USB_OTG_FS;
 730              		.loc 1 341 3 is_stmt 1 view .LVU144
 341:usb/usbd_conf.c ****   pdev->pData = &hpcd_USB_OTG_FS;
 731              		.loc 1 341 25 is_stmt 0 view .LVU145
 732 000c 1648     		ldr	r0, .L55
 733              	.LVL58:
 341:usb/usbd_conf.c ****   pdev->pData = &hpcd_USB_OTG_FS;
 734              		.loc 1 341 25 view .LVU146
 735 000e C0F80034 		str	r3, [r0, #1024]
 342:usb/usbd_conf.c **** 
 736              		.loc 1 342 3 is_stmt 1 view .LVU147
 342:usb/usbd_conf.c **** 
 737              		.loc 1 342 15 is_stmt 0 view .LVU148
 738 0012 C3F8C402 		str	r0, [r3, #708]
 344:usb/usbd_conf.c ****   hpcd_USB_OTG_FS.Init.dev_endpoints = 6;
 739              		.loc 1 344 3 is_stmt 1 view .LVU149
 344:usb/usbd_conf.c ****   hpcd_USB_OTG_FS.Init.dev_endpoints = 6;
 740              		.loc 1 344 28 is_stmt 0 view .LVU150
 741 0016 4FF0A043 		mov	r3, #1342177280
 742              	.LVL59:
 344:usb/usbd_conf.c ****   hpcd_USB_OTG_FS.Init.dev_endpoints = 6;
 743              		.loc 1 344 28 view .LVU151
 744 001a 0360     		str	r3, [r0]
ARM GAS  C:\Users\BIGBIG~1\AppData\Local\Temp\ccbNRxPM.s 			page 28


 345:usb/usbd_conf.c ****   hpcd_USB_OTG_FS.Init.speed = PCD_SPEED_FULL;
 745              		.loc 1 345 3 is_stmt 1 view .LVU152
 345:usb/usbd_conf.c ****   hpcd_USB_OTG_FS.Init.speed = PCD_SPEED_FULL;
 746              		.loc 1 345 38 is_stmt 0 view .LVU153
 747 001c 0623     		movs	r3, #6
 748 001e 4360     		str	r3, [r0, #4]
 346:usb/usbd_conf.c ****   hpcd_USB_OTG_FS.Init.dma_enable = DISABLE;
 749              		.loc 1 346 3 is_stmt 1 view .LVU154
 346:usb/usbd_conf.c ****   hpcd_USB_OTG_FS.Init.dma_enable = DISABLE;
 750              		.loc 1 346 30 is_stmt 0 view .LVU155
 751 0020 0222     		movs	r2, #2
 752 0022 C260     		str	r2, [r0, #12]
 347:usb/usbd_conf.c ****   hpcd_USB_OTG_FS.Init.phy_itface = PCD_PHY_EMBEDDED;
 753              		.loc 1 347 3 is_stmt 1 view .LVU156
 347:usb/usbd_conf.c ****   hpcd_USB_OTG_FS.Init.phy_itface = PCD_PHY_EMBEDDED;
 754              		.loc 1 347 35 is_stmt 0 view .LVU157
 755 0024 0023     		movs	r3, #0
 756 0026 0361     		str	r3, [r0, #16]
 348:usb/usbd_conf.c ****   hpcd_USB_OTG_FS.Init.Sof_enable = ENABLE;
 757              		.loc 1 348 3 is_stmt 1 view .LVU158
 348:usb/usbd_conf.c ****   hpcd_USB_OTG_FS.Init.Sof_enable = ENABLE;
 758              		.loc 1 348 35 is_stmt 0 view .LVU159
 759 0028 8261     		str	r2, [r0, #24]
 349:usb/usbd_conf.c ****   hpcd_USB_OTG_FS.Init.low_power_enable = DISABLE;
 760              		.loc 1 349 3 is_stmt 1 view .LVU160
 349:usb/usbd_conf.c ****   hpcd_USB_OTG_FS.Init.low_power_enable = DISABLE;
 761              		.loc 1 349 35 is_stmt 0 view .LVU161
 762 002a 0122     		movs	r2, #1
 763 002c C261     		str	r2, [r0, #28]
 350:usb/usbd_conf.c ****   hpcd_USB_OTG_FS.Init.lpm_enable = DISABLE;
 764              		.loc 1 350 3 is_stmt 1 view .LVU162
 350:usb/usbd_conf.c ****   hpcd_USB_OTG_FS.Init.lpm_enable = DISABLE;
 765              		.loc 1 350 41 is_stmt 0 view .LVU163
 766 002e 0362     		str	r3, [r0, #32]
 351:usb/usbd_conf.c ****   hpcd_USB_OTG_FS.Init.vbus_sensing_enable = ENABLE;
 767              		.loc 1 351 3 is_stmt 1 view .LVU164
 351:usb/usbd_conf.c ****   hpcd_USB_OTG_FS.Init.vbus_sensing_enable = ENABLE;
 768              		.loc 1 351 35 is_stmt 0 view .LVU165
 769 0030 4362     		str	r3, [r0, #36]
 352:usb/usbd_conf.c ****   hpcd_USB_OTG_FS.Init.use_dedicated_ep1 = DISABLE;
 770              		.loc 1 352 3 is_stmt 1 view .LVU166
 352:usb/usbd_conf.c ****   hpcd_USB_OTG_FS.Init.use_dedicated_ep1 = DISABLE;
 771              		.loc 1 352 44 is_stmt 0 view .LVU167
 772 0032 C262     		str	r2, [r0, #44]
 353:usb/usbd_conf.c ****   if (HAL_PCD_Init(&hpcd_USB_OTG_FS) != HAL_OK)
 773              		.loc 1 353 3 is_stmt 1 view .LVU168
 353:usb/usbd_conf.c ****   if (HAL_PCD_Init(&hpcd_USB_OTG_FS) != HAL_OK)
 774              		.loc 1 353 42 is_stmt 0 view .LVU169
 775 0034 0363     		str	r3, [r0, #48]
 354:usb/usbd_conf.c ****   {
 776              		.loc 1 354 3 is_stmt 1 view .LVU170
 354:usb/usbd_conf.c ****   {
 777              		.loc 1 354 7 is_stmt 0 view .LVU171
 778 0036 FFF7FEFF 		bl	HAL_PCD_Init
 779              	.LVL60:
 354:usb/usbd_conf.c ****   {
 780              		.loc 1 354 6 view .LVU172
ARM GAS  C:\Users\BIGBIG~1\AppData\Local\Temp\ccbNRxPM.s 			page 29


 781 003a 80B9     		cbnz	r0, .L54
 782              	.L48:
 374:usb/usbd_conf.c ****   HAL_PCDEx_SetTxFiFo(&hpcd_USB_OTG_FS, 0, 0x40);
 783              		.loc 1 374 3 is_stmt 1 view .LVU173
 784 003c 0A4C     		ldr	r4, .L55
 785 003e 8021     		movs	r1, #128
 786 0040 2046     		mov	r0, r4
 787 0042 FFF7FEFF 		bl	HAL_PCDEx_SetRxFiFo
 788              	.LVL61:
 375:usb/usbd_conf.c ****   HAL_PCDEx_SetTxFiFo(&hpcd_USB_OTG_FS, 1, 0x80);
 789              		.loc 1 375 3 view .LVU174
 790 0046 4022     		movs	r2, #64
 791 0048 0021     		movs	r1, #0
 792 004a 2046     		mov	r0, r4
 793 004c FFF7FEFF 		bl	HAL_PCDEx_SetTxFiFo
 794              	.LVL62:
 376:usb/usbd_conf.c ****   }
 795              		.loc 1 376 3 view .LVU175
 796 0050 8022     		movs	r2, #128
 797 0052 0121     		movs	r1, #1
 798 0054 2046     		mov	r0, r4
 799 0056 FFF7FEFF 		bl	HAL_PCDEx_SetTxFiFo
 800              	.LVL63:
 378:usb/usbd_conf.c **** }
 801              		.loc 1 378 3 view .LVU176
 379:usb/usbd_conf.c **** 
 802              		.loc 1 379 1 is_stmt 0 view .LVU177
 803 005a 0020     		movs	r0, #0
 804 005c 10BD     		pop	{r4, pc}
 805              	.L54:
 356:usb/usbd_conf.c ****   }
 806              		.loc 1 356 5 is_stmt 1 view .LVU178
 807 005e 0348     		ldr	r0, .L55+4
 808 0060 FFF7FEFF 		bl	Error_Handler
 809              	.LVL64:
 810 0064 EAE7     		b	.L48
 811              	.L56:
 812 0066 00BF     		.align	2
 813              	.L55:
 814 0068 00000000 		.word	hpcd_USB_OTG_FS
 815 006c 00000000 		.word	.LC1
 816              		.cfi_endproc
 817              	.LFE158:
 819              		.section	.text.USBD_LL_IsStallEP,"ax",%progbits
 820              		.align	1
 821              		.global	USBD_LL_IsStallEP
 822              		.syntax unified
 823              		.thumb
 824              		.thumb_func
 825              		.fpu fpv5-d16
 827              	USBD_LL_IsStallEP:
 828              	.LVL65:
 829              	.LFB167:
 531:usb/usbd_conf.c ****   PCD_HandleTypeDef *hpcd = (PCD_HandleTypeDef*) pdev->pData;
 830              		.loc 1 531 1 view -0
 831              		.cfi_startproc
 832              		@ args = 0, pretend = 0, frame = 0
ARM GAS  C:\Users\BIGBIG~1\AppData\Local\Temp\ccbNRxPM.s 			page 30


 833              		@ frame_needed = 0, uses_anonymous_args = 0
 834              		@ link register save eliminated.
 532:usb/usbd_conf.c **** 
 835              		.loc 1 532 3 view .LVU180
 532:usb/usbd_conf.c **** 
 836              		.loc 1 532 22 is_stmt 0 view .LVU181
 837 0000 D0F8C432 		ldr	r3, [r0, #708]
 838              	.LVL66:
 534:usb/usbd_conf.c ****   {
 839              		.loc 1 534 3 is_stmt 1 view .LVU182
 534:usb/usbd_conf.c ****   {
 840              		.loc 1 534 5 is_stmt 0 view .LVU183
 841 0004 11F0800F 		tst	r1, #128
 842 0008 08D1     		bne	.L60
 540:usb/usbd_conf.c ****   }
 843              		.loc 1 540 5 is_stmt 1 view .LVU184
 540:usb/usbd_conf.c ****   }
 844              		.loc 1 540 33 is_stmt 0 view .LVU185
 845 000a 01F07F01 		and	r1, r1, #127
 846              	.LVL67:
 540:usb/usbd_conf.c ****   }
 847              		.loc 1 540 40 view .LVU186
 848 000e C1EBC101 		rsb	r1, r1, r1, lsl #3
 849 0012 03EB8101 		add	r1, r3, r1, lsl #2
 850 0016 91F8FE01 		ldrb	r0, [r1, #510]	@ zero_extendqisi2
 851              	.LVL68:
 542:usb/usbd_conf.c **** 
 852              		.loc 1 542 1 view .LVU187
 853 001a 7047     		bx	lr
 854              	.LVL69:
 855              	.L60:
 536:usb/usbd_conf.c ****   }
 856              		.loc 1 536 5 is_stmt 1 view .LVU188
 536:usb/usbd_conf.c ****   }
 857              		.loc 1 536 32 is_stmt 0 view .LVU189
 858 001c 01F07F01 		and	r1, r1, #127
 859              	.LVL70:
 536:usb/usbd_conf.c ****   }
 860              		.loc 1 536 39 view .LVU190
 861 0020 C1EBC101 		rsb	r1, r1, r1, lsl #3
 862 0024 03EB8101 		add	r1, r3, r1, lsl #2
 863 0028 91F83E00 		ldrb	r0, [r1, #62]	@ zero_extendqisi2
 864              	.LVL71:
 536:usb/usbd_conf.c ****   }
 865              		.loc 1 536 39 view .LVU191
 866 002c 7047     		bx	lr
 867              		.cfi_endproc
 868              	.LFE167:
 870              		.section	.text.USBD_LL_GetRxDataSize,"ax",%progbits
 871              		.align	1
 872              		.global	USBD_LL_GetRxDataSize
 873              		.syntax unified
 874              		.thumb
 875              		.thumb_func
 876              		.fpu fpv5-d16
 878              	USBD_LL_GetRxDataSize:
 879              	.LVL72:
ARM GAS  C:\Users\BIGBIG~1\AppData\Local\Temp\ccbNRxPM.s 			page 31


 880              	.LFB171:
 609:usb/usbd_conf.c ****   return HAL_PCD_EP_GetRxCount((PCD_HandleTypeDef*) pdev->pData, ep_addr);
 881              		.loc 1 609 1 is_stmt 1 view -0
 882              		.cfi_startproc
 883              		@ args = 0, pretend = 0, frame = 0
 884              		@ frame_needed = 0, uses_anonymous_args = 0
 609:usb/usbd_conf.c ****   return HAL_PCD_EP_GetRxCount((PCD_HandleTypeDef*) pdev->pData, ep_addr);
 885              		.loc 1 609 1 is_stmt 0 view .LVU193
 886 0000 08B5     		push	{r3, lr}
 887              	.LCFI18:
 888              		.cfi_def_cfa_offset 8
 889              		.cfi_offset 3, -8
 890              		.cfi_offset 14, -4
 610:usb/usbd_conf.c **** }
 891              		.loc 1 610 3 is_stmt 1 view .LVU194
 610:usb/usbd_conf.c **** }
 892              		.loc 1 610 10 is_stmt 0 view .LVU195
 893 0002 D0F8C402 		ldr	r0, [r0, #708]
 894              	.LVL73:
 610:usb/usbd_conf.c **** }
 895              		.loc 1 610 10 view .LVU196
 896 0006 FFF7FEFF 		bl	HAL_PCD_EP_GetRxCount
 897              	.LVL74:
 611:usb/usbd_conf.c **** 
 898              		.loc 1 611 1 view .LVU197
 899 000a 08BD     		pop	{r3, pc}
 900              		.cfi_endproc
 901              	.LFE171:
 903              		.section	.text.HAL_PCDEx_LPM_Callback,"ax",%progbits
 904              		.align	1
 905              		.global	HAL_PCDEx_LPM_Callback
 906              		.syntax unified
 907              		.thumb
 908              		.thumb_func
 909              		.fpu fpv5-d16
 911              	HAL_PCDEx_LPM_Callback:
 912              	.LVL75:
 913              	.LFB172:
 620:usb/usbd_conf.c ****   switch (msg)
 914              		.loc 1 620 1 is_stmt 1 view -0
 915              		.cfi_startproc
 916              		@ args = 0, pretend = 0, frame = 0
 917              		@ frame_needed = 0, uses_anonymous_args = 0
 620:usb/usbd_conf.c ****   switch (msg)
 918              		.loc 1 620 1 is_stmt 0 view .LVU199
 919 0000 10B5     		push	{r4, lr}
 920              	.LCFI19:
 921              		.cfi_def_cfa_offset 8
 922              		.cfi_offset 4, -8
 923              		.cfi_offset 14, -4
 924 0002 0446     		mov	r4, r0
 621:usb/usbd_conf.c ****   {
 925              		.loc 1 621 3 is_stmt 1 view .LVU200
 926 0004 11B1     		cbz	r1, .L64
 927 0006 0129     		cmp	r1, #1
 928 0008 16D0     		beq	.L65
 929              	.LVL76:
ARM GAS  C:\Users\BIGBIG~1\AppData\Local\Temp\ccbNRxPM.s 			page 32


 930              	.L63:
 647:usb/usbd_conf.c **** 
 931              		.loc 1 647 1 is_stmt 0 view .LVU201
 932 000a 10BD     		pop	{r4, pc}
 933              	.LVL77:
 934              	.L64:
 624:usb/usbd_conf.c ****     {
 935              		.loc 1 624 5 is_stmt 1 view .LVU202
 624:usb/usbd_conf.c ****     {
 936              		.loc 1 624 19 is_stmt 0 view .LVU203
 937 000c 036A     		ldr	r3, [r0, #32]
 624:usb/usbd_conf.c ****     {
 938              		.loc 1 624 8 view .LVU204
 939 000e 5BB9     		cbnz	r3, .L69
 940              	.LVL78:
 941              	.L67:
 631:usb/usbd_conf.c ****     USBD_LL_Resume(hpcd->pData);
 942              		.loc 1 631 5 is_stmt 1 view .LVU205
 943 0010 2268     		ldr	r2, [r4]
 944 0012 D2F8003E 		ldr	r3, [r2, #3584]
 945 0016 23F00103 		bic	r3, r3, #1
 946 001a C2F8003E 		str	r3, [r2, #3584]
 632:usb/usbd_conf.c ****     break;
 947              		.loc 1 632 5 view .LVU206
 948 001e D4F80004 		ldr	r0, [r4, #1024]
 949 0022 FFF7FEFF 		bl	USBD_LL_Resume
 950              	.LVL79:
 633:usb/usbd_conf.c **** 
 951              		.loc 1 633 5 view .LVU207
 952 0026 F0E7     		b	.L63
 953              	.LVL80:
 954              	.L69:
 626:usb/usbd_conf.c **** 
 955              		.loc 1 626 7 view .LVU208
 956 0028 FFF7FEFF 		bl	SystemClockConfig_Resume
 957              	.LVL81:
 629:usb/usbd_conf.c ****     }
 958              		.loc 1 629 7 view .LVU209
 629:usb/usbd_conf.c ****     }
 959              		.loc 1 629 16 is_stmt 0 view .LVU210
 960 002c 0C4A     		ldr	r2, .L70
 961 002e 1369     		ldr	r3, [r2, #16]
 962 0030 23F00603 		bic	r3, r3, #6
 963 0034 1361     		str	r3, [r2, #16]
 964 0036 EBE7     		b	.L67
 965              	.LVL82:
 966              	.L65:
 636:usb/usbd_conf.c ****     USBD_LL_Suspend(hpcd->pData);
 967              		.loc 1 636 5 is_stmt 1 view .LVU211
 968 0038 0268     		ldr	r2, [r0]
 969 003a D2F8003E 		ldr	r3, [r2, #3584]
 970 003e 43F00103 		orr	r3, r3, #1
 971 0042 C2F8003E 		str	r3, [r2, #3584]
 637:usb/usbd_conf.c **** 
 972              		.loc 1 637 5 view .LVU212
 973 0046 D0F80004 		ldr	r0, [r0, #1024]
 974              	.LVL83:
ARM GAS  C:\Users\BIGBIG~1\AppData\Local\Temp\ccbNRxPM.s 			page 33


 637:usb/usbd_conf.c **** 
 975              		.loc 1 637 5 is_stmt 0 view .LVU213
 976 004a FFF7FEFF 		bl	USBD_LL_Suspend
 977              	.LVL84:
 640:usb/usbd_conf.c ****     {
 978              		.loc 1 640 5 is_stmt 1 view .LVU214
 640:usb/usbd_conf.c ****     {
 979              		.loc 1 640 19 is_stmt 0 view .LVU215
 980 004e 236A     		ldr	r3, [r4, #32]
 640:usb/usbd_conf.c ****     {
 981              		.loc 1 640 8 view .LVU216
 982 0050 002B     		cmp	r3, #0
 983 0052 DAD0     		beq	.L63
 643:usb/usbd_conf.c ****     }
 984              		.loc 1 643 7 is_stmt 1 view .LVU217
 643:usb/usbd_conf.c ****     }
 985              		.loc 1 643 16 is_stmt 0 view .LVU218
 986 0054 024A     		ldr	r2, .L70
 987 0056 1369     		ldr	r3, [r2, #16]
 988 0058 43F00603 		orr	r3, r3, #6
 989 005c 1361     		str	r3, [r2, #16]
 647:usb/usbd_conf.c **** 
 990              		.loc 1 647 1 view .LVU219
 991 005e D4E7     		b	.L63
 992              	.L71:
 993              		.align	2
 994              	.L70:
 995 0060 00ED00E0 		.word	-536810240
 996              		.cfi_endproc
 997              	.LFE172:
 999              		.section	.text.USBD_LL_Delay,"ax",%progbits
 1000              		.align	1
 1001              		.global	USBD_LL_Delay
 1002              		.syntax unified
 1003              		.thumb
 1004              		.thumb_func
 1005              		.fpu fpv5-d16
 1007              	USBD_LL_Delay:
 1008              	.LVL85:
 1009              	.LFB173:
 655:usb/usbd_conf.c ****   HAL_Delay(Delay);
 1010              		.loc 1 655 1 is_stmt 1 view -0
 1011              		.cfi_startproc
 1012              		@ args = 0, pretend = 0, frame = 0
 1013              		@ frame_needed = 0, uses_anonymous_args = 0
 655:usb/usbd_conf.c ****   HAL_Delay(Delay);
 1014              		.loc 1 655 1 is_stmt 0 view .LVU221
 1015 0000 08B5     		push	{r3, lr}
 1016              	.LCFI20:
 1017              		.cfi_def_cfa_offset 8
 1018              		.cfi_offset 3, -8
 1019              		.cfi_offset 14, -4
 656:usb/usbd_conf.c **** }
 1020              		.loc 1 656 3 is_stmt 1 view .LVU222
 1021 0002 FFF7FEFF 		bl	HAL_Delay
 1022              	.LVL86:
 657:usb/usbd_conf.c **** 
ARM GAS  C:\Users\BIGBIG~1\AppData\Local\Temp\ccbNRxPM.s 			page 34


 1023              		.loc 1 657 1 is_stmt 0 view .LVU223
 1024 0006 08BD     		pop	{r3, pc}
 1025              		.cfi_endproc
 1026              	.LFE173:
 1028              		.section	.text.USBD_Get_USB_Status,"ax",%progbits
 1029              		.align	1
 1030              		.global	USBD_Get_USB_Status
 1031              		.syntax unified
 1032              		.thumb
 1033              		.thumb_func
 1034              		.fpu fpv5-d16
 1036              	USBD_Get_USB_Status:
 1037              	.LVL87:
 1038              	.LFB175:
 669:usb/usbd_conf.c **** /* USER CODE END 5 */
 670:usb/usbd_conf.c **** /**
 671:usb/usbd_conf.c ****   * @brief  Retuns the USB status depending on the HAL status:
 672:usb/usbd_conf.c ****   * @param  hal_status: HAL status
 673:usb/usbd_conf.c ****   * @retval USB status
 674:usb/usbd_conf.c ****   */
 675:usb/usbd_conf.c **** USBD_StatusTypeDef USBD_Get_USB_Status(HAL_StatusTypeDef hal_status)
 676:usb/usbd_conf.c **** {
 1039              		.loc 1 676 1 is_stmt 1 view -0
 1040              		.cfi_startproc
 1041              		@ args = 0, pretend = 0, frame = 0
 1042              		@ frame_needed = 0, uses_anonymous_args = 0
 1043              		@ link register save eliminated.
 677:usb/usbd_conf.c ****   USBD_StatusTypeDef usb_status = USBD_OK;
 1044              		.loc 1 677 3 view .LVU225
 678:usb/usbd_conf.c **** 
 679:usb/usbd_conf.c ****   switch (hal_status)
 1045              		.loc 1 679 3 view .LVU226
 1046 0000 0328     		cmp	r0, #3
 1047 0002 05D8     		bhi	.L80
 1048 0004 DFE800F0 		tbb	[pc, r0]
 1049              	.L77:
 1050 0008 05       		.byte	(.L75-.L77)/2
 1051 0009 04       		.byte	(.L80-.L77)/2
 1052 000a 02       		.byte	(.L78-.L77)/2
 1053 000b 05       		.byte	(.L75-.L77)/2
 1054              		.p2align 1
 1055              	.L78:
 680:usb/usbd_conf.c ****   {
 681:usb/usbd_conf.c ****     case HAL_OK :
 682:usb/usbd_conf.c ****       usb_status = USBD_OK;
 683:usb/usbd_conf.c ****     break;
 684:usb/usbd_conf.c ****     case HAL_ERROR :
 685:usb/usbd_conf.c ****       usb_status = USBD_FAIL;
 686:usb/usbd_conf.c ****     break;
 687:usb/usbd_conf.c ****     case HAL_BUSY :
 688:usb/usbd_conf.c ****       usb_status = USBD_BUSY;
 1056              		.loc 1 688 7 view .LVU227
 1057              	.LVL88:
 689:usb/usbd_conf.c ****     break;
 1058              		.loc 1 689 5 view .LVU228
 688:usb/usbd_conf.c ****     break;
 1059              		.loc 1 688 18 is_stmt 0 view .LVU229
ARM GAS  C:\Users\BIGBIG~1\AppData\Local\Temp\ccbNRxPM.s 			page 35


 1060 000c 0120     		movs	r0, #1
 1061              	.LVL89:
 1062              		.loc 1 689 5 view .LVU230
 1063 000e 7047     		bx	lr
 1064              	.LVL90:
 1065              	.L80:
 685:usb/usbd_conf.c ****     break;
 1066              		.loc 1 685 18 view .LVU231
 1067 0010 0320     		movs	r0, #3
 1068              	.LVL91:
 1069              	.L75:
 690:usb/usbd_conf.c ****     case HAL_TIMEOUT :
 691:usb/usbd_conf.c ****       usb_status = USBD_FAIL;
 692:usb/usbd_conf.c ****     break;
 693:usb/usbd_conf.c ****     default :
 694:usb/usbd_conf.c ****       usb_status = USBD_FAIL;
 695:usb/usbd_conf.c ****     break;
 696:usb/usbd_conf.c ****   }
 697:usb/usbd_conf.c ****   return usb_status;
 1070              		.loc 1 697 3 is_stmt 1 view .LVU232
 698:usb/usbd_conf.c **** }
 1071              		.loc 1 698 1 is_stmt 0 view .LVU233
 1072 0012 7047     		bx	lr
 1073              		.cfi_endproc
 1074              	.LFE175:
 1076              		.section	.text.USBD_LL_DeInit,"ax",%progbits
 1077              		.align	1
 1078              		.global	USBD_LL_DeInit
 1079              		.syntax unified
 1080              		.thumb
 1081              		.thumb_func
 1082              		.fpu fpv5-d16
 1084              	USBD_LL_DeInit:
 1085              	.LVL92:
 1086              	.LFB159:
 387:usb/usbd_conf.c ****   HAL_StatusTypeDef hal_status = HAL_OK;
 1087              		.loc 1 387 1 is_stmt 1 view -0
 1088              		.cfi_startproc
 1089              		@ args = 0, pretend = 0, frame = 0
 1090              		@ frame_needed = 0, uses_anonymous_args = 0
 387:usb/usbd_conf.c ****   HAL_StatusTypeDef hal_status = HAL_OK;
 1091              		.loc 1 387 1 is_stmt 0 view .LVU235
 1092 0000 08B5     		push	{r3, lr}
 1093              	.LCFI21:
 1094              		.cfi_def_cfa_offset 8
 1095              		.cfi_offset 3, -8
 1096              		.cfi_offset 14, -4
 388:usb/usbd_conf.c ****   USBD_StatusTypeDef usb_status = USBD_OK;
 1097              		.loc 1 388 3 is_stmt 1 view .LVU236
 1098              	.LVL93:
 389:usb/usbd_conf.c **** 
 1099              		.loc 1 389 3 view .LVU237
 391:usb/usbd_conf.c **** 
 1100              		.loc 1 391 3 view .LVU238
 391:usb/usbd_conf.c **** 
 1101              		.loc 1 391 16 is_stmt 0 view .LVU239
 1102 0002 D0F8C402 		ldr	r0, [r0, #708]
ARM GAS  C:\Users\BIGBIG~1\AppData\Local\Temp\ccbNRxPM.s 			page 36


 1103              	.LVL94:
 391:usb/usbd_conf.c **** 
 1104              		.loc 1 391 16 view .LVU240
 1105 0006 FFF7FEFF 		bl	HAL_PCD_DeInit
 1106              	.LVL95:
 393:usb/usbd_conf.c **** 
 1107              		.loc 1 393 3 is_stmt 1 view .LVU241
 393:usb/usbd_conf.c **** 
 1108              		.loc 1 393 17 is_stmt 0 view .LVU242
 1109 000a FFF7FEFF 		bl	USBD_Get_USB_Status
 1110              	.LVL96:
 395:usb/usbd_conf.c **** }
 1111              		.loc 1 395 3 is_stmt 1 view .LVU243
 396:usb/usbd_conf.c **** 
 1112              		.loc 1 396 1 is_stmt 0 view .LVU244
 1113 000e 08BD     		pop	{r3, pc}
 1114              		.cfi_endproc
 1115              	.LFE159:
 1117              		.section	.text.USBD_LL_Start,"ax",%progbits
 1118              		.align	1
 1119              		.global	USBD_LL_Start
 1120              		.syntax unified
 1121              		.thumb
 1122              		.thumb_func
 1123              		.fpu fpv5-d16
 1125              	USBD_LL_Start:
 1126              	.LVL97:
 1127              	.LFB160:
 404:usb/usbd_conf.c ****   HAL_StatusTypeDef hal_status = HAL_OK;
 1128              		.loc 1 404 1 is_stmt 1 view -0
 1129              		.cfi_startproc
 1130              		@ args = 0, pretend = 0, frame = 0
 1131              		@ frame_needed = 0, uses_anonymous_args = 0
 404:usb/usbd_conf.c ****   HAL_StatusTypeDef hal_status = HAL_OK;
 1132              		.loc 1 404 1 is_stmt 0 view .LVU246
 1133 0000 08B5     		push	{r3, lr}
 1134              	.LCFI22:
 1135              		.cfi_def_cfa_offset 8
 1136              		.cfi_offset 3, -8
 1137              		.cfi_offset 14, -4
 405:usb/usbd_conf.c ****   USBD_StatusTypeDef usb_status = USBD_OK;
 1138              		.loc 1 405 3 is_stmt 1 view .LVU247
 1139              	.LVL98:
 406:usb/usbd_conf.c **** 
 1140              		.loc 1 406 3 view .LVU248
 408:usb/usbd_conf.c **** 
 1141              		.loc 1 408 3 view .LVU249
 408:usb/usbd_conf.c **** 
 1142              		.loc 1 408 16 is_stmt 0 view .LVU250
 1143 0002 D0F8C402 		ldr	r0, [r0, #708]
 1144              	.LVL99:
 408:usb/usbd_conf.c **** 
 1145              		.loc 1 408 16 view .LVU251
 1146 0006 FFF7FEFF 		bl	HAL_PCD_Start
 1147              	.LVL100:
 410:usb/usbd_conf.c **** 
 1148              		.loc 1 410 3 is_stmt 1 view .LVU252
ARM GAS  C:\Users\BIGBIG~1\AppData\Local\Temp\ccbNRxPM.s 			page 37


 410:usb/usbd_conf.c **** 
 1149              		.loc 1 410 17 is_stmt 0 view .LVU253
 1150 000a FFF7FEFF 		bl	USBD_Get_USB_Status
 1151              	.LVL101:
 412:usb/usbd_conf.c **** }
 1152              		.loc 1 412 3 is_stmt 1 view .LVU254
 413:usb/usbd_conf.c **** 
 1153              		.loc 1 413 1 is_stmt 0 view .LVU255
 1154 000e 08BD     		pop	{r3, pc}
 1155              		.cfi_endproc
 1156              	.LFE160:
 1158              		.section	.text.USBD_LL_Stop,"ax",%progbits
 1159              		.align	1
 1160              		.global	USBD_LL_Stop
 1161              		.syntax unified
 1162              		.thumb
 1163              		.thumb_func
 1164              		.fpu fpv5-d16
 1166              	USBD_LL_Stop:
 1167              	.LVL102:
 1168              	.LFB161:
 421:usb/usbd_conf.c ****   HAL_StatusTypeDef hal_status = HAL_OK;
 1169              		.loc 1 421 1 is_stmt 1 view -0
 1170              		.cfi_startproc
 1171              		@ args = 0, pretend = 0, frame = 0
 1172              		@ frame_needed = 0, uses_anonymous_args = 0
 421:usb/usbd_conf.c ****   HAL_StatusTypeDef hal_status = HAL_OK;
 1173              		.loc 1 421 1 is_stmt 0 view .LVU257
 1174 0000 08B5     		push	{r3, lr}
 1175              	.LCFI23:
 1176              		.cfi_def_cfa_offset 8
 1177              		.cfi_offset 3, -8
 1178              		.cfi_offset 14, -4
 422:usb/usbd_conf.c ****   USBD_StatusTypeDef usb_status = USBD_OK;
 1179              		.loc 1 422 3 is_stmt 1 view .LVU258
 1180              	.LVL103:
 423:usb/usbd_conf.c **** 
 1181              		.loc 1 423 3 view .LVU259
 425:usb/usbd_conf.c **** 
 1182              		.loc 1 425 3 view .LVU260
 425:usb/usbd_conf.c **** 
 1183              		.loc 1 425 16 is_stmt 0 view .LVU261
 1184 0002 D0F8C402 		ldr	r0, [r0, #708]
 1185              	.LVL104:
 425:usb/usbd_conf.c **** 
 1186              		.loc 1 425 16 view .LVU262
 1187 0006 FFF7FEFF 		bl	HAL_PCD_Stop
 1188              	.LVL105:
 427:usb/usbd_conf.c **** 
 1189              		.loc 1 427 3 is_stmt 1 view .LVU263
 427:usb/usbd_conf.c **** 
 1190              		.loc 1 427 17 is_stmt 0 view .LVU264
 1191 000a FFF7FEFF 		bl	USBD_Get_USB_Status
 1192              	.LVL106:
 429:usb/usbd_conf.c **** }
 1193              		.loc 1 429 3 is_stmt 1 view .LVU265
 430:usb/usbd_conf.c **** 
ARM GAS  C:\Users\BIGBIG~1\AppData\Local\Temp\ccbNRxPM.s 			page 38


 1194              		.loc 1 430 1 is_stmt 0 view .LVU266
 1195 000e 08BD     		pop	{r3, pc}
 1196              		.cfi_endproc
 1197              	.LFE161:
 1199              		.section	.text.USBD_LL_OpenEP,"ax",%progbits
 1200              		.align	1
 1201              		.global	USBD_LL_OpenEP
 1202              		.syntax unified
 1203              		.thumb
 1204              		.thumb_func
 1205              		.fpu fpv5-d16
 1207              	USBD_LL_OpenEP:
 1208              	.LVL107:
 1209              	.LFB162:
 441:usb/usbd_conf.c ****   HAL_StatusTypeDef hal_status = HAL_OK;
 1210              		.loc 1 441 1 is_stmt 1 view -0
 1211              		.cfi_startproc
 1212              		@ args = 0, pretend = 0, frame = 0
 1213              		@ frame_needed = 0, uses_anonymous_args = 0
 441:usb/usbd_conf.c ****   HAL_StatusTypeDef hal_status = HAL_OK;
 1214              		.loc 1 441 1 is_stmt 0 view .LVU268
 1215 0000 10B5     		push	{r4, lr}
 1216              	.LCFI24:
 1217              		.cfi_def_cfa_offset 8
 1218              		.cfi_offset 4, -8
 1219              		.cfi_offset 14, -4
 1220 0002 1446     		mov	r4, r2
 1221 0004 1A46     		mov	r2, r3
 1222              	.LVL108:
 442:usb/usbd_conf.c ****   USBD_StatusTypeDef usb_status = USBD_OK;
 1223              		.loc 1 442 3 is_stmt 1 view .LVU269
 443:usb/usbd_conf.c **** 
 1224              		.loc 1 443 3 view .LVU270
 445:usb/usbd_conf.c **** 
 1225              		.loc 1 445 3 view .LVU271
 445:usb/usbd_conf.c **** 
 1226              		.loc 1 445 16 is_stmt 0 view .LVU272
 1227 0006 2346     		mov	r3, r4
 1228              	.LVL109:
 445:usb/usbd_conf.c **** 
 1229              		.loc 1 445 16 view .LVU273
 1230 0008 D0F8C402 		ldr	r0, [r0, #708]
 1231              	.LVL110:
 445:usb/usbd_conf.c **** 
 1232              		.loc 1 445 16 view .LVU274
 1233 000c FFF7FEFF 		bl	HAL_PCD_EP_Open
 1234              	.LVL111:
 447:usb/usbd_conf.c **** 
 1235              		.loc 1 447 3 is_stmt 1 view .LVU275
 447:usb/usbd_conf.c **** 
 1236              		.loc 1 447 17 is_stmt 0 view .LVU276
 1237 0010 FFF7FEFF 		bl	USBD_Get_USB_Status
 1238              	.LVL112:
 449:usb/usbd_conf.c **** }
 1239              		.loc 1 449 3 is_stmt 1 view .LVU277
 450:usb/usbd_conf.c **** 
 1240              		.loc 1 450 1 is_stmt 0 view .LVU278
ARM GAS  C:\Users\BIGBIG~1\AppData\Local\Temp\ccbNRxPM.s 			page 39


 1241 0014 10BD     		pop	{r4, pc}
 1242              		.cfi_endproc
 1243              	.LFE162:
 1245              		.section	.text.USBD_LL_CloseEP,"ax",%progbits
 1246              		.align	1
 1247              		.global	USBD_LL_CloseEP
 1248              		.syntax unified
 1249              		.thumb
 1250              		.thumb_func
 1251              		.fpu fpv5-d16
 1253              	USBD_LL_CloseEP:
 1254              	.LVL113:
 1255              	.LFB163:
 459:usb/usbd_conf.c ****   HAL_StatusTypeDef hal_status = HAL_OK;
 1256              		.loc 1 459 1 is_stmt 1 view -0
 1257              		.cfi_startproc
 1258              		@ args = 0, pretend = 0, frame = 0
 1259              		@ frame_needed = 0, uses_anonymous_args = 0
 459:usb/usbd_conf.c ****   HAL_StatusTypeDef hal_status = HAL_OK;
 1260              		.loc 1 459 1 is_stmt 0 view .LVU280
 1261 0000 08B5     		push	{r3, lr}
 1262              	.LCFI25:
 1263              		.cfi_def_cfa_offset 8
 1264              		.cfi_offset 3, -8
 1265              		.cfi_offset 14, -4
 460:usb/usbd_conf.c ****   USBD_StatusTypeDef usb_status = USBD_OK;
 1266              		.loc 1 460 3 is_stmt 1 view .LVU281
 1267              	.LVL114:
 461:usb/usbd_conf.c **** 
 1268              		.loc 1 461 3 view .LVU282
 463:usb/usbd_conf.c **** 
 1269              		.loc 1 463 3 view .LVU283
 463:usb/usbd_conf.c **** 
 1270              		.loc 1 463 16 is_stmt 0 view .LVU284
 1271 0002 D0F8C402 		ldr	r0, [r0, #708]
 1272              	.LVL115:
 463:usb/usbd_conf.c **** 
 1273              		.loc 1 463 16 view .LVU285
 1274 0006 FFF7FEFF 		bl	HAL_PCD_EP_Close
 1275              	.LVL116:
 465:usb/usbd_conf.c **** 
 1276              		.loc 1 465 3 is_stmt 1 view .LVU286
 465:usb/usbd_conf.c **** 
 1277              		.loc 1 465 17 is_stmt 0 view .LVU287
 1278 000a FFF7FEFF 		bl	USBD_Get_USB_Status
 1279              	.LVL117:
 467:usb/usbd_conf.c **** }
 1280              		.loc 1 467 3 is_stmt 1 view .LVU288
 468:usb/usbd_conf.c **** 
 1281              		.loc 1 468 1 is_stmt 0 view .LVU289
 1282 000e 08BD     		pop	{r3, pc}
 1283              		.cfi_endproc
 1284              	.LFE163:
 1286              		.section	.text.USBD_LL_FlushEP,"ax",%progbits
 1287              		.align	1
 1288              		.global	USBD_LL_FlushEP
 1289              		.syntax unified
ARM GAS  C:\Users\BIGBIG~1\AppData\Local\Temp\ccbNRxPM.s 			page 40


 1290              		.thumb
 1291              		.thumb_func
 1292              		.fpu fpv5-d16
 1294              	USBD_LL_FlushEP:
 1295              	.LVL118:
 1296              	.LFB164:
 477:usb/usbd_conf.c ****   HAL_StatusTypeDef hal_status = HAL_OK;
 1297              		.loc 1 477 1 is_stmt 1 view -0
 1298              		.cfi_startproc
 1299              		@ args = 0, pretend = 0, frame = 0
 1300              		@ frame_needed = 0, uses_anonymous_args = 0
 477:usb/usbd_conf.c ****   HAL_StatusTypeDef hal_status = HAL_OK;
 1301              		.loc 1 477 1 is_stmt 0 view .LVU291
 1302 0000 08B5     		push	{r3, lr}
 1303              	.LCFI26:
 1304              		.cfi_def_cfa_offset 8
 1305              		.cfi_offset 3, -8
 1306              		.cfi_offset 14, -4
 478:usb/usbd_conf.c ****   USBD_StatusTypeDef usb_status = USBD_OK;
 1307              		.loc 1 478 3 is_stmt 1 view .LVU292
 1308              	.LVL119:
 479:usb/usbd_conf.c **** 
 1309              		.loc 1 479 3 view .LVU293
 481:usb/usbd_conf.c **** 
 1310              		.loc 1 481 3 view .LVU294
 481:usb/usbd_conf.c **** 
 1311              		.loc 1 481 16 is_stmt 0 view .LVU295
 1312 0002 D0F8C402 		ldr	r0, [r0, #708]
 1313              	.LVL120:
 481:usb/usbd_conf.c **** 
 1314              		.loc 1 481 16 view .LVU296
 1315 0006 FFF7FEFF 		bl	HAL_PCD_EP_Flush
 1316              	.LVL121:
 483:usb/usbd_conf.c **** 
 1317              		.loc 1 483 3 is_stmt 1 view .LVU297
 483:usb/usbd_conf.c **** 
 1318              		.loc 1 483 17 is_stmt 0 view .LVU298
 1319 000a FFF7FEFF 		bl	USBD_Get_USB_Status
 1320              	.LVL122:
 485:usb/usbd_conf.c **** }
 1321              		.loc 1 485 3 is_stmt 1 view .LVU299
 486:usb/usbd_conf.c **** 
 1322              		.loc 1 486 1 is_stmt 0 view .LVU300
 1323 000e 08BD     		pop	{r3, pc}
 1324              		.cfi_endproc
 1325              	.LFE164:
 1327              		.section	.text.USBD_LL_StallEP,"ax",%progbits
 1328              		.align	1
 1329              		.global	USBD_LL_StallEP
 1330              		.syntax unified
 1331              		.thumb
 1332              		.thumb_func
 1333              		.fpu fpv5-d16
 1335              	USBD_LL_StallEP:
 1336              	.LVL123:
 1337              	.LFB165:
 495:usb/usbd_conf.c ****   HAL_StatusTypeDef hal_status = HAL_OK;
ARM GAS  C:\Users\BIGBIG~1\AppData\Local\Temp\ccbNRxPM.s 			page 41


 1338              		.loc 1 495 1 is_stmt 1 view -0
 1339              		.cfi_startproc
 1340              		@ args = 0, pretend = 0, frame = 0
 1341              		@ frame_needed = 0, uses_anonymous_args = 0
 495:usb/usbd_conf.c ****   HAL_StatusTypeDef hal_status = HAL_OK;
 1342              		.loc 1 495 1 is_stmt 0 view .LVU302
 1343 0000 08B5     		push	{r3, lr}
 1344              	.LCFI27:
 1345              		.cfi_def_cfa_offset 8
 1346              		.cfi_offset 3, -8
 1347              		.cfi_offset 14, -4
 496:usb/usbd_conf.c ****   USBD_StatusTypeDef usb_status = USBD_OK;
 1348              		.loc 1 496 3 is_stmt 1 view .LVU303
 1349              	.LVL124:
 497:usb/usbd_conf.c **** 
 1350              		.loc 1 497 3 view .LVU304
 499:usb/usbd_conf.c **** 
 1351              		.loc 1 499 3 view .LVU305
 499:usb/usbd_conf.c **** 
 1352              		.loc 1 499 16 is_stmt 0 view .LVU306
 1353 0002 D0F8C402 		ldr	r0, [r0, #708]
 1354              	.LVL125:
 499:usb/usbd_conf.c **** 
 1355              		.loc 1 499 16 view .LVU307
 1356 0006 FFF7FEFF 		bl	HAL_PCD_EP_SetStall
 1357              	.LVL126:
 501:usb/usbd_conf.c **** 
 1358              		.loc 1 501 3 is_stmt 1 view .LVU308
 501:usb/usbd_conf.c **** 
 1359              		.loc 1 501 17 is_stmt 0 view .LVU309
 1360 000a FFF7FEFF 		bl	USBD_Get_USB_Status
 1361              	.LVL127:
 503:usb/usbd_conf.c **** }
 1362              		.loc 1 503 3 is_stmt 1 view .LVU310
 504:usb/usbd_conf.c **** 
 1363              		.loc 1 504 1 is_stmt 0 view .LVU311
 1364 000e 08BD     		pop	{r3, pc}
 1365              		.cfi_endproc
 1366              	.LFE165:
 1368              		.section	.text.USBD_LL_ClearStallEP,"ax",%progbits
 1369              		.align	1
 1370              		.global	USBD_LL_ClearStallEP
 1371              		.syntax unified
 1372              		.thumb
 1373              		.thumb_func
 1374              		.fpu fpv5-d16
 1376              	USBD_LL_ClearStallEP:
 1377              	.LVL128:
 1378              	.LFB166:
 513:usb/usbd_conf.c ****   HAL_StatusTypeDef hal_status = HAL_OK;
 1379              		.loc 1 513 1 is_stmt 1 view -0
 1380              		.cfi_startproc
 1381              		@ args = 0, pretend = 0, frame = 0
 1382              		@ frame_needed = 0, uses_anonymous_args = 0
 513:usb/usbd_conf.c ****   HAL_StatusTypeDef hal_status = HAL_OK;
 1383              		.loc 1 513 1 is_stmt 0 view .LVU313
 1384 0000 08B5     		push	{r3, lr}
ARM GAS  C:\Users\BIGBIG~1\AppData\Local\Temp\ccbNRxPM.s 			page 42


 1385              	.LCFI28:
 1386              		.cfi_def_cfa_offset 8
 1387              		.cfi_offset 3, -8
 1388              		.cfi_offset 14, -4
 514:usb/usbd_conf.c ****   USBD_StatusTypeDef usb_status = USBD_OK;
 1389              		.loc 1 514 3 is_stmt 1 view .LVU314
 1390              	.LVL129:
 515:usb/usbd_conf.c **** 
 1391              		.loc 1 515 3 view .LVU315
 517:usb/usbd_conf.c **** 
 1392              		.loc 1 517 3 view .LVU316
 517:usb/usbd_conf.c **** 
 1393              		.loc 1 517 16 is_stmt 0 view .LVU317
 1394 0002 D0F8C402 		ldr	r0, [r0, #708]
 1395              	.LVL130:
 517:usb/usbd_conf.c **** 
 1396              		.loc 1 517 16 view .LVU318
 1397 0006 FFF7FEFF 		bl	HAL_PCD_EP_ClrStall
 1398              	.LVL131:
 519:usb/usbd_conf.c **** 
 1399              		.loc 1 519 3 is_stmt 1 view .LVU319
 519:usb/usbd_conf.c **** 
 1400              		.loc 1 519 17 is_stmt 0 view .LVU320
 1401 000a FFF7FEFF 		bl	USBD_Get_USB_Status
 1402              	.LVL132:
 521:usb/usbd_conf.c **** }
 1403              		.loc 1 521 3 is_stmt 1 view .LVU321
 522:usb/usbd_conf.c **** 
 1404              		.loc 1 522 1 is_stmt 0 view .LVU322
 1405 000e 08BD     		pop	{r3, pc}
 1406              		.cfi_endproc
 1407              	.LFE166:
 1409              		.section	.text.USBD_LL_SetUSBAddress,"ax",%progbits
 1410              		.align	1
 1411              		.global	USBD_LL_SetUSBAddress
 1412              		.syntax unified
 1413              		.thumb
 1414              		.thumb_func
 1415              		.fpu fpv5-d16
 1417              	USBD_LL_SetUSBAddress:
 1418              	.LVL133:
 1419              	.LFB168:
 551:usb/usbd_conf.c ****   HAL_StatusTypeDef hal_status = HAL_OK;
 1420              		.loc 1 551 1 is_stmt 1 view -0
 1421              		.cfi_startproc
 1422              		@ args = 0, pretend = 0, frame = 0
 1423              		@ frame_needed = 0, uses_anonymous_args = 0
 551:usb/usbd_conf.c ****   HAL_StatusTypeDef hal_status = HAL_OK;
 1424              		.loc 1 551 1 is_stmt 0 view .LVU324
 1425 0000 08B5     		push	{r3, lr}
 1426              	.LCFI29:
 1427              		.cfi_def_cfa_offset 8
 1428              		.cfi_offset 3, -8
 1429              		.cfi_offset 14, -4
 552:usb/usbd_conf.c ****   USBD_StatusTypeDef usb_status = USBD_OK;
 1430              		.loc 1 552 3 is_stmt 1 view .LVU325
 1431              	.LVL134:
ARM GAS  C:\Users\BIGBIG~1\AppData\Local\Temp\ccbNRxPM.s 			page 43


 553:usb/usbd_conf.c **** 
 1432              		.loc 1 553 3 view .LVU326
 555:usb/usbd_conf.c **** 
 1433              		.loc 1 555 3 view .LVU327
 555:usb/usbd_conf.c **** 
 1434              		.loc 1 555 16 is_stmt 0 view .LVU328
 1435 0002 D0F8C402 		ldr	r0, [r0, #708]
 1436              	.LVL135:
 555:usb/usbd_conf.c **** 
 1437              		.loc 1 555 16 view .LVU329
 1438 0006 FFF7FEFF 		bl	HAL_PCD_SetAddress
 1439              	.LVL136:
 557:usb/usbd_conf.c **** 
 1440              		.loc 1 557 3 is_stmt 1 view .LVU330
 557:usb/usbd_conf.c **** 
 1441              		.loc 1 557 17 is_stmt 0 view .LVU331
 1442 000a FFF7FEFF 		bl	USBD_Get_USB_Status
 1443              	.LVL137:
 559:usb/usbd_conf.c **** }
 1444              		.loc 1 559 3 is_stmt 1 view .LVU332
 560:usb/usbd_conf.c **** 
 1445              		.loc 1 560 1 is_stmt 0 view .LVU333
 1446 000e 08BD     		pop	{r3, pc}
 1447              		.cfi_endproc
 1448              	.LFE168:
 1450              		.section	.text.USBD_LL_Transmit,"ax",%progbits
 1451              		.align	1
 1452              		.global	USBD_LL_Transmit
 1453              		.syntax unified
 1454              		.thumb
 1455              		.thumb_func
 1456              		.fpu fpv5-d16
 1458              	USBD_LL_Transmit:
 1459              	.LVL138:
 1460              	.LFB169:
 571:usb/usbd_conf.c ****   HAL_StatusTypeDef hal_status = HAL_OK;
 1461              		.loc 1 571 1 is_stmt 1 view -0
 1462              		.cfi_startproc
 1463              		@ args = 0, pretend = 0, frame = 0
 1464              		@ frame_needed = 0, uses_anonymous_args = 0
 571:usb/usbd_conf.c ****   HAL_StatusTypeDef hal_status = HAL_OK;
 1465              		.loc 1 571 1 is_stmt 0 view .LVU335
 1466 0000 08B5     		push	{r3, lr}
 1467              	.LCFI30:
 1468              		.cfi_def_cfa_offset 8
 1469              		.cfi_offset 3, -8
 1470              		.cfi_offset 14, -4
 572:usb/usbd_conf.c ****   USBD_StatusTypeDef usb_status = USBD_OK;
 1471              		.loc 1 572 3 is_stmt 1 view .LVU336
 1472              	.LVL139:
 573:usb/usbd_conf.c **** 
 1473              		.loc 1 573 3 view .LVU337
 575:usb/usbd_conf.c **** 
 1474              		.loc 1 575 3 view .LVU338
 575:usb/usbd_conf.c **** 
 1475              		.loc 1 575 16 is_stmt 0 view .LVU339
 1476 0002 D0F8C402 		ldr	r0, [r0, #708]
ARM GAS  C:\Users\BIGBIG~1\AppData\Local\Temp\ccbNRxPM.s 			page 44


 1477              	.LVL140:
 575:usb/usbd_conf.c **** 
 1478              		.loc 1 575 16 view .LVU340
 1479 0006 FFF7FEFF 		bl	HAL_PCD_EP_Transmit
 1480              	.LVL141:
 577:usb/usbd_conf.c **** 
 1481              		.loc 1 577 3 is_stmt 1 view .LVU341
 577:usb/usbd_conf.c **** 
 1482              		.loc 1 577 17 is_stmt 0 view .LVU342
 1483 000a FFF7FEFF 		bl	USBD_Get_USB_Status
 1484              	.LVL142:
 579:usb/usbd_conf.c **** }
 1485              		.loc 1 579 3 is_stmt 1 view .LVU343
 580:usb/usbd_conf.c **** 
 1486              		.loc 1 580 1 is_stmt 0 view .LVU344
 1487 000e 08BD     		pop	{r3, pc}
 1488              		.cfi_endproc
 1489              	.LFE169:
 1491              		.section	.text.USBD_LL_PrepareReceive,"ax",%progbits
 1492              		.align	1
 1493              		.global	USBD_LL_PrepareReceive
 1494              		.syntax unified
 1495              		.thumb
 1496              		.thumb_func
 1497              		.fpu fpv5-d16
 1499              	USBD_LL_PrepareReceive:
 1500              	.LVL143:
 1501              	.LFB170:
 591:usb/usbd_conf.c ****   HAL_StatusTypeDef hal_status = HAL_OK;
 1502              		.loc 1 591 1 is_stmt 1 view -0
 1503              		.cfi_startproc
 1504              		@ args = 0, pretend = 0, frame = 0
 1505              		@ frame_needed = 0, uses_anonymous_args = 0
 591:usb/usbd_conf.c ****   HAL_StatusTypeDef hal_status = HAL_OK;
 1506              		.loc 1 591 1 is_stmt 0 view .LVU346
 1507 0000 08B5     		push	{r3, lr}
 1508              	.LCFI31:
 1509              		.cfi_def_cfa_offset 8
 1510              		.cfi_offset 3, -8
 1511              		.cfi_offset 14, -4
 592:usb/usbd_conf.c ****   USBD_StatusTypeDef usb_status = USBD_OK;
 1512              		.loc 1 592 3 is_stmt 1 view .LVU347
 1513              	.LVL144:
 593:usb/usbd_conf.c **** 
 1514              		.loc 1 593 3 view .LVU348
 595:usb/usbd_conf.c **** 
 1515              		.loc 1 595 3 view .LVU349
 595:usb/usbd_conf.c **** 
 1516              		.loc 1 595 16 is_stmt 0 view .LVU350
 1517 0002 D0F8C402 		ldr	r0, [r0, #708]
 1518              	.LVL145:
 595:usb/usbd_conf.c **** 
 1519              		.loc 1 595 16 view .LVU351
 1520 0006 FFF7FEFF 		bl	HAL_PCD_EP_Receive
 1521              	.LVL146:
 597:usb/usbd_conf.c **** 
 1522              		.loc 1 597 3 is_stmt 1 view .LVU352
ARM GAS  C:\Users\BIGBIG~1\AppData\Local\Temp\ccbNRxPM.s 			page 45


 597:usb/usbd_conf.c **** 
 1523              		.loc 1 597 17 is_stmt 0 view .LVU353
 1524 000a FFF7FEFF 		bl	USBD_Get_USB_Status
 1525              	.LVL147:
 599:usb/usbd_conf.c **** }
 1526              		.loc 1 599 3 is_stmt 1 view .LVU354
 600:usb/usbd_conf.c **** 
 1527              		.loc 1 600 1 is_stmt 0 view .LVU355
 1528 000e 08BD     		pop	{r3, pc}
 1529              		.cfi_endproc
 1530              	.LFE170:
 1532              		.comm	hpcd_USB_OTG_FS,1028,4
 1533              		.text
 1534              	.Letext0:
 1535              		.file 2 "c:\\program files (x86)\\gnu arm embedded toolchain\\9 2020-q2-update\\arm-none-eabi\\inc
 1536              		.file 3 "c:\\program files (x86)\\gnu arm embedded toolchain\\9 2020-q2-update\\arm-none-eabi\\inc
 1537              		.file 4 "dev/CMSIS/Include/core_cm7.h"
 1538              		.file 5 "dev/CMSIS/Device/ST/STM32F7xx/Include/system_stm32f7xx.h"
 1539              		.file 6 "dev/CMSIS/Device/ST/STM32F7xx/Include/stm32f767xx.h"
 1540              		.file 7 "dev/CMSIS/Device/ST/STM32F7xx/Include/stm32f7xx.h"
 1541              		.file 8 "dev/STM32F7xx_HAL_Driver/Inc/stm32f7xx_hal_def.h"
 1542              		.file 9 "dev/STM32F7xx_HAL_Driver/Inc/stm32f7xx_hal_gpio.h"
 1543              		.file 10 "dev/STM32F7xx_HAL_Driver/Inc/stm32f7xx_ll_usb.h"
 1544              		.file 11 "dev/STM32F7xx_HAL_Driver/Inc/stm32f7xx_hal_pcd.h"
 1545              		.file 12 "dev/STM32F7xx_HAL_Driver/Inc/stm32f7xx_hal.h"
 1546              		.file 13 "c:\\program files (x86)\\gnu arm embedded toolchain\\9 2020-q2-update\\lib\\gcc\\arm-non
 1547              		.file 14 "c:\\program files (x86)\\gnu arm embedded toolchain\\9 2020-q2-update\\arm-none-eabi\\in
 1548              		.file 15 "c:\\program files (x86)\\gnu arm embedded toolchain\\9 2020-q2-update\\arm-none-eabi\\in
 1549              		.file 16 "c:\\program files (x86)\\gnu arm embedded toolchain\\9 2020-q2-update\\arm-none-eabi\\in
 1550              		.file 17 "c:\\program files (x86)\\gnu arm embedded toolchain\\9 2020-q2-update\\arm-none-eabi\\in
 1551              		.file 18 "lib/STM32_USB_Device_Library/Core/Inc/usbd_def.h"
 1552              		.file 19 "lib/STM32_USB_Device_Library/Core/Inc/usbd_core.h"
 1553              		.file 20 "dev/STM32F7xx_HAL_Driver/Inc/stm32f7xx_hal_pcd_ex.h"
 1554              		.file 21 "dev/STM32F7xx_HAL_Driver/Inc/stm32f7xx_hal_cortex.h"
ARM GAS  C:\Users\BIGBIG~1\AppData\Local\Temp\ccbNRxPM.s 			page 46

