ARM GAS  C:\Users\BIGBIG~1\AppData\Local\Temp\ccluI8kH.s 			page 1


   1              		.cpu cortex-m7
   2              		.eabi_attribute 28, 1
   3              		.eabi_attribute 20, 1
   4              		.eabi_attribute 21, 1
   5              		.eabi_attribute 23, 3
   6              		.eabi_attribute 24, 1
   7              		.eabi_attribute 25, 1
   8              		.eabi_attribute 26, 1
   9              		.eabi_attribute 30, 1
  10              		.eabi_attribute 34, 1
  11              		.eabi_attribute 18, 4
  12              		.file	"usbd_core.c"
  13              		.text
  14              	.Ltext0:
  15              		.cfi_sections	.debug_frame
  16              		.section	.text.USBD_Init,"ax",%progbits
  17              		.align	1
  18              		.global	USBD_Init
  19              		.arch armv7e-m
  20              		.syntax unified
  21              		.thumb
  22              		.thumb_func
  23              		.fpu fpv5-d16
  25              	USBD_Init:
  26              	.LVL0:
  27              	.LFB145:
  28              		.file 1 "lib/STM32_USB_Device_Library/Core/Src/usbd_core.c"
   1:lib/STM32_USB_Device_Library/Core/Src/usbd_core.c **** /**
   2:lib/STM32_USB_Device_Library/Core/Src/usbd_core.c ****   ******************************************************************************
   3:lib/STM32_USB_Device_Library/Core/Src/usbd_core.c ****   * @file    usbd_core.c
   4:lib/STM32_USB_Device_Library/Core/Src/usbd_core.c ****   * @author  MCD Application Team
   5:lib/STM32_USB_Device_Library/Core/Src/usbd_core.c ****   * @brief   This file provides all the USBD core functions.
   6:lib/STM32_USB_Device_Library/Core/Src/usbd_core.c ****   ******************************************************************************
   7:lib/STM32_USB_Device_Library/Core/Src/usbd_core.c ****   * @attention
   8:lib/STM32_USB_Device_Library/Core/Src/usbd_core.c ****   *
   9:lib/STM32_USB_Device_Library/Core/Src/usbd_core.c ****   * <h2><center>&copy; Copyright (c) 2015 STMicroelectronics.
  10:lib/STM32_USB_Device_Library/Core/Src/usbd_core.c ****   * All rights reserved.</center></h2>
  11:lib/STM32_USB_Device_Library/Core/Src/usbd_core.c ****   *
  12:lib/STM32_USB_Device_Library/Core/Src/usbd_core.c ****   * This software component is licensed by ST under Ultimate Liberty license
  13:lib/STM32_USB_Device_Library/Core/Src/usbd_core.c ****   * SLA0044, the "License"; You may not use this file except in compliance with
  14:lib/STM32_USB_Device_Library/Core/Src/usbd_core.c ****   * the License. You may obtain a copy of the License at:
  15:lib/STM32_USB_Device_Library/Core/Src/usbd_core.c ****   *                      www.st.com/SLA0044
  16:lib/STM32_USB_Device_Library/Core/Src/usbd_core.c ****   *
  17:lib/STM32_USB_Device_Library/Core/Src/usbd_core.c ****   ******************************************************************************
  18:lib/STM32_USB_Device_Library/Core/Src/usbd_core.c ****   */
  19:lib/STM32_USB_Device_Library/Core/Src/usbd_core.c **** 
  20:lib/STM32_USB_Device_Library/Core/Src/usbd_core.c **** /* Includes ------------------------------------------------------------------*/
  21:lib/STM32_USB_Device_Library/Core/Src/usbd_core.c **** #include "usbd_core.h"
  22:lib/STM32_USB_Device_Library/Core/Src/usbd_core.c **** 
  23:lib/STM32_USB_Device_Library/Core/Src/usbd_core.c **** /** @addtogroup STM32_USBD_DEVICE_LIBRARY
  24:lib/STM32_USB_Device_Library/Core/Src/usbd_core.c **** * @{
  25:lib/STM32_USB_Device_Library/Core/Src/usbd_core.c **** */
  26:lib/STM32_USB_Device_Library/Core/Src/usbd_core.c **** 
  27:lib/STM32_USB_Device_Library/Core/Src/usbd_core.c **** 
  28:lib/STM32_USB_Device_Library/Core/Src/usbd_core.c **** /** @defgroup USBD_CORE
  29:lib/STM32_USB_Device_Library/Core/Src/usbd_core.c **** * @brief usbd core module
  30:lib/STM32_USB_Device_Library/Core/Src/usbd_core.c **** * @{
ARM GAS  C:\Users\BIGBIG~1\AppData\Local\Temp\ccluI8kH.s 			page 2


  31:lib/STM32_USB_Device_Library/Core/Src/usbd_core.c **** */
  32:lib/STM32_USB_Device_Library/Core/Src/usbd_core.c **** 
  33:lib/STM32_USB_Device_Library/Core/Src/usbd_core.c **** /** @defgroup USBD_CORE_Private_TypesDefinitions
  34:lib/STM32_USB_Device_Library/Core/Src/usbd_core.c **** * @{
  35:lib/STM32_USB_Device_Library/Core/Src/usbd_core.c **** */
  36:lib/STM32_USB_Device_Library/Core/Src/usbd_core.c **** 
  37:lib/STM32_USB_Device_Library/Core/Src/usbd_core.c **** /**
  38:lib/STM32_USB_Device_Library/Core/Src/usbd_core.c **** * @}
  39:lib/STM32_USB_Device_Library/Core/Src/usbd_core.c **** */
  40:lib/STM32_USB_Device_Library/Core/Src/usbd_core.c **** 
  41:lib/STM32_USB_Device_Library/Core/Src/usbd_core.c **** 
  42:lib/STM32_USB_Device_Library/Core/Src/usbd_core.c **** /** @defgroup USBD_CORE_Private_Defines
  43:lib/STM32_USB_Device_Library/Core/Src/usbd_core.c **** * @{
  44:lib/STM32_USB_Device_Library/Core/Src/usbd_core.c **** */
  45:lib/STM32_USB_Device_Library/Core/Src/usbd_core.c **** 
  46:lib/STM32_USB_Device_Library/Core/Src/usbd_core.c **** /**
  47:lib/STM32_USB_Device_Library/Core/Src/usbd_core.c **** * @}
  48:lib/STM32_USB_Device_Library/Core/Src/usbd_core.c **** */
  49:lib/STM32_USB_Device_Library/Core/Src/usbd_core.c **** 
  50:lib/STM32_USB_Device_Library/Core/Src/usbd_core.c **** 
  51:lib/STM32_USB_Device_Library/Core/Src/usbd_core.c **** /** @defgroup USBD_CORE_Private_Macros
  52:lib/STM32_USB_Device_Library/Core/Src/usbd_core.c **** * @{
  53:lib/STM32_USB_Device_Library/Core/Src/usbd_core.c **** */
  54:lib/STM32_USB_Device_Library/Core/Src/usbd_core.c **** 
  55:lib/STM32_USB_Device_Library/Core/Src/usbd_core.c **** /**
  56:lib/STM32_USB_Device_Library/Core/Src/usbd_core.c **** * @}
  57:lib/STM32_USB_Device_Library/Core/Src/usbd_core.c **** */
  58:lib/STM32_USB_Device_Library/Core/Src/usbd_core.c **** 
  59:lib/STM32_USB_Device_Library/Core/Src/usbd_core.c **** 
  60:lib/STM32_USB_Device_Library/Core/Src/usbd_core.c **** /** @defgroup USBD_CORE_Private_FunctionPrototypes
  61:lib/STM32_USB_Device_Library/Core/Src/usbd_core.c **** * @{
  62:lib/STM32_USB_Device_Library/Core/Src/usbd_core.c **** */
  63:lib/STM32_USB_Device_Library/Core/Src/usbd_core.c **** 
  64:lib/STM32_USB_Device_Library/Core/Src/usbd_core.c **** /**
  65:lib/STM32_USB_Device_Library/Core/Src/usbd_core.c **** * @}
  66:lib/STM32_USB_Device_Library/Core/Src/usbd_core.c **** */
  67:lib/STM32_USB_Device_Library/Core/Src/usbd_core.c **** 
  68:lib/STM32_USB_Device_Library/Core/Src/usbd_core.c **** /** @defgroup USBD_CORE_Private_Variables
  69:lib/STM32_USB_Device_Library/Core/Src/usbd_core.c **** * @{
  70:lib/STM32_USB_Device_Library/Core/Src/usbd_core.c **** */
  71:lib/STM32_USB_Device_Library/Core/Src/usbd_core.c **** 
  72:lib/STM32_USB_Device_Library/Core/Src/usbd_core.c **** /**
  73:lib/STM32_USB_Device_Library/Core/Src/usbd_core.c **** * @}
  74:lib/STM32_USB_Device_Library/Core/Src/usbd_core.c **** */
  75:lib/STM32_USB_Device_Library/Core/Src/usbd_core.c **** 
  76:lib/STM32_USB_Device_Library/Core/Src/usbd_core.c **** 
  77:lib/STM32_USB_Device_Library/Core/Src/usbd_core.c **** /** @defgroup USBD_CORE_Private_Functions
  78:lib/STM32_USB_Device_Library/Core/Src/usbd_core.c **** * @{
  79:lib/STM32_USB_Device_Library/Core/Src/usbd_core.c **** */
  80:lib/STM32_USB_Device_Library/Core/Src/usbd_core.c **** 
  81:lib/STM32_USB_Device_Library/Core/Src/usbd_core.c **** /**
  82:lib/STM32_USB_Device_Library/Core/Src/usbd_core.c **** * @brief  USBD_Init
  83:lib/STM32_USB_Device_Library/Core/Src/usbd_core.c **** *         Initializes the device stack and load the class driver
  84:lib/STM32_USB_Device_Library/Core/Src/usbd_core.c **** * @param  pdev: device instance
  85:lib/STM32_USB_Device_Library/Core/Src/usbd_core.c **** * @param  pdesc: Descriptor structure address
  86:lib/STM32_USB_Device_Library/Core/Src/usbd_core.c **** * @param  id: Low level core index
  87:lib/STM32_USB_Device_Library/Core/Src/usbd_core.c **** * @retval None
ARM GAS  C:\Users\BIGBIG~1\AppData\Local\Temp\ccluI8kH.s 			page 3


  88:lib/STM32_USB_Device_Library/Core/Src/usbd_core.c **** */
  89:lib/STM32_USB_Device_Library/Core/Src/usbd_core.c **** USBD_StatusTypeDef USBD_Init(USBD_HandleTypeDef *pdev,
  90:lib/STM32_USB_Device_Library/Core/Src/usbd_core.c ****                              USBD_DescriptorsTypeDef *pdesc, uint8_t id)
  91:lib/STM32_USB_Device_Library/Core/Src/usbd_core.c **** {
  29              		.loc 1 91 1 view -0
  30              		.cfi_startproc
  31              		@ args = 0, pretend = 0, frame = 0
  32              		@ frame_needed = 0, uses_anonymous_args = 0
  92:lib/STM32_USB_Device_Library/Core/Src/usbd_core.c ****   USBD_StatusTypeDef ret;
  33              		.loc 1 92 3 view .LVU1
  93:lib/STM32_USB_Device_Library/Core/Src/usbd_core.c **** 
  94:lib/STM32_USB_Device_Library/Core/Src/usbd_core.c ****   /* Check whether the USB Host handle is valid */
  95:lib/STM32_USB_Device_Library/Core/Src/usbd_core.c ****   if (pdev == NULL)
  34              		.loc 1 95 3 view .LVU2
  35              		.loc 1 95 6 is_stmt 0 view .LVU3
  36 0000 C0B1     		cbz	r0, .L6
  91:lib/STM32_USB_Device_Library/Core/Src/usbd_core.c ****   USBD_StatusTypeDef ret;
  37              		.loc 1 91 1 view .LVU4
  38 0002 08B5     		push	{r3, lr}
  39              	.LCFI0:
  40              		.cfi_def_cfa_offset 8
  41              		.cfi_offset 3, -8
  42              		.cfi_offset 14, -4
  43 0004 0346     		mov	r3, r0
  96:lib/STM32_USB_Device_Library/Core/Src/usbd_core.c ****   {
  97:lib/STM32_USB_Device_Library/Core/Src/usbd_core.c **** #if (USBD_DEBUG_LEVEL > 1U)
  98:lib/STM32_USB_Device_Library/Core/Src/usbd_core.c ****     USBD_ErrLog("Invalid Device handle");
  99:lib/STM32_USB_Device_Library/Core/Src/usbd_core.c **** #endif
 100:lib/STM32_USB_Device_Library/Core/Src/usbd_core.c ****     return USBD_FAIL;
 101:lib/STM32_USB_Device_Library/Core/Src/usbd_core.c ****   }
 102:lib/STM32_USB_Device_Library/Core/Src/usbd_core.c **** 
 103:lib/STM32_USB_Device_Library/Core/Src/usbd_core.c ****   /* Unlink previous class */
 104:lib/STM32_USB_Device_Library/Core/Src/usbd_core.c ****   if (pdev->pClass != NULL)
  44              		.loc 1 104 3 is_stmt 1 view .LVU5
  45              		.loc 1 104 11 is_stmt 0 view .LVU6
  46 0006 D0F8B802 		ldr	r0, [r0, #696]
  47              	.LVL1:
  48              		.loc 1 104 6 view .LVU7
  49 000a 10B1     		cbz	r0, .L3
 105:lib/STM32_USB_Device_Library/Core/Src/usbd_core.c ****   {
 106:lib/STM32_USB_Device_Library/Core/Src/usbd_core.c ****     pdev->pClass = NULL;
  50              		.loc 1 106 5 is_stmt 1 view .LVU8
  51              		.loc 1 106 18 is_stmt 0 view .LVU9
  52 000c 0020     		movs	r0, #0
  53 000e C3F8B802 		str	r0, [r3, #696]
  54              	.L3:
 107:lib/STM32_USB_Device_Library/Core/Src/usbd_core.c ****   }
 108:lib/STM32_USB_Device_Library/Core/Src/usbd_core.c **** 
 109:lib/STM32_USB_Device_Library/Core/Src/usbd_core.c ****   if (pdev->pConfDesc != NULL)
  55              		.loc 1 109 3 is_stmt 1 view .LVU10
  56              		.loc 1 109 11 is_stmt 0 view .LVU11
  57 0012 D3F8CC02 		ldr	r0, [r3, #716]
  58              		.loc 1 109 6 view .LVU12
  59 0016 10B1     		cbz	r0, .L4
 110:lib/STM32_USB_Device_Library/Core/Src/usbd_core.c ****   {
 111:lib/STM32_USB_Device_Library/Core/Src/usbd_core.c ****     pdev->pConfDesc = NULL;
  60              		.loc 1 111 5 is_stmt 1 view .LVU13
ARM GAS  C:\Users\BIGBIG~1\AppData\Local\Temp\ccluI8kH.s 			page 4


  61              		.loc 1 111 21 is_stmt 0 view .LVU14
  62 0018 0020     		movs	r0, #0
  63 001a C3F8CC02 		str	r0, [r3, #716]
  64              	.L4:
 112:lib/STM32_USB_Device_Library/Core/Src/usbd_core.c ****   }
 113:lib/STM32_USB_Device_Library/Core/Src/usbd_core.c **** 
 114:lib/STM32_USB_Device_Library/Core/Src/usbd_core.c ****   /* Assign USBD Descriptors */
 115:lib/STM32_USB_Device_Library/Core/Src/usbd_core.c ****   if (pdesc != NULL)
  65              		.loc 1 115 3 is_stmt 1 view .LVU15
  66              		.loc 1 115 6 is_stmt 0 view .LVU16
  67 001e 09B1     		cbz	r1, .L5
 116:lib/STM32_USB_Device_Library/Core/Src/usbd_core.c ****   {
 117:lib/STM32_USB_Device_Library/Core/Src/usbd_core.c ****     pdev->pDesc = pdesc;
  68              		.loc 1 117 5 is_stmt 1 view .LVU17
  69              		.loc 1 117 17 is_stmt 0 view .LVU18
  70 0020 C3F8B412 		str	r1, [r3, #692]
  71              	.L5:
 118:lib/STM32_USB_Device_Library/Core/Src/usbd_core.c ****   }
 119:lib/STM32_USB_Device_Library/Core/Src/usbd_core.c **** 
 120:lib/STM32_USB_Device_Library/Core/Src/usbd_core.c ****   /* Set Device initial State */
 121:lib/STM32_USB_Device_Library/Core/Src/usbd_core.c ****   pdev->dev_state = USBD_STATE_DEFAULT;
  72              		.loc 1 121 3 is_stmt 1 view .LVU19
  73              		.loc 1 121 19 is_stmt 0 view .LVU20
  74 0024 0121     		movs	r1, #1
  75              	.LVL2:
  76              		.loc 1 121 19 view .LVU21
  77 0026 83F89C12 		strb	r1, [r3, #668]
 122:lib/STM32_USB_Device_Library/Core/Src/usbd_core.c ****   pdev->id = id;
  78              		.loc 1 122 3 is_stmt 1 view .LVU22
  79              		.loc 1 122 12 is_stmt 0 view .LVU23
  80 002a 1A70     		strb	r2, [r3]
 123:lib/STM32_USB_Device_Library/Core/Src/usbd_core.c **** 
 124:lib/STM32_USB_Device_Library/Core/Src/usbd_core.c ****   /* Initialize low level driver */
 125:lib/STM32_USB_Device_Library/Core/Src/usbd_core.c ****   ret = USBD_LL_Init(pdev);
  81              		.loc 1 125 3 is_stmt 1 view .LVU24
  82              		.loc 1 125 9 is_stmt 0 view .LVU25
  83 002c 1846     		mov	r0, r3
  84 002e FFF7FEFF 		bl	USBD_LL_Init
  85              	.LVL3:
 126:lib/STM32_USB_Device_Library/Core/Src/usbd_core.c **** 
 127:lib/STM32_USB_Device_Library/Core/Src/usbd_core.c ****   return ret;
  86              		.loc 1 127 3 is_stmt 1 view .LVU26
 128:lib/STM32_USB_Device_Library/Core/Src/usbd_core.c **** }
  87              		.loc 1 128 1 is_stmt 0 view .LVU27
  88 0032 08BD     		pop	{r3, pc}
  89              	.LVL4:
  90              	.L6:
  91              	.LCFI1:
  92              		.cfi_def_cfa_offset 0
  93              		.cfi_restore 3
  94              		.cfi_restore 14
 100:lib/STM32_USB_Device_Library/Core/Src/usbd_core.c ****   }
  95              		.loc 1 100 12 view .LVU28
  96 0034 0320     		movs	r0, #3
  97              	.LVL5:
  98              		.loc 1 128 1 view .LVU29
  99 0036 7047     		bx	lr
ARM GAS  C:\Users\BIGBIG~1\AppData\Local\Temp\ccluI8kH.s 			page 5


 100              		.cfi_endproc
 101              	.LFE145:
 103              		.section	.text.USBD_DeInit,"ax",%progbits
 104              		.align	1
 105              		.global	USBD_DeInit
 106              		.syntax unified
 107              		.thumb
 108              		.thumb_func
 109              		.fpu fpv5-d16
 111              	USBD_DeInit:
 112              	.LVL6:
 113              	.LFB146:
 129:lib/STM32_USB_Device_Library/Core/Src/usbd_core.c **** 
 130:lib/STM32_USB_Device_Library/Core/Src/usbd_core.c **** /**
 131:lib/STM32_USB_Device_Library/Core/Src/usbd_core.c **** * @brief  USBD_DeInit
 132:lib/STM32_USB_Device_Library/Core/Src/usbd_core.c **** *         Re-Initialize th device library
 133:lib/STM32_USB_Device_Library/Core/Src/usbd_core.c **** * @param  pdev: device instance
 134:lib/STM32_USB_Device_Library/Core/Src/usbd_core.c **** * @retval status: status
 135:lib/STM32_USB_Device_Library/Core/Src/usbd_core.c **** */
 136:lib/STM32_USB_Device_Library/Core/Src/usbd_core.c **** USBD_StatusTypeDef USBD_DeInit(USBD_HandleTypeDef *pdev)
 137:lib/STM32_USB_Device_Library/Core/Src/usbd_core.c **** {
 114              		.loc 1 137 1 is_stmt 1 view -0
 115              		.cfi_startproc
 116              		@ args = 0, pretend = 0, frame = 0
 117              		@ frame_needed = 0, uses_anonymous_args = 0
 118              		.loc 1 137 1 is_stmt 0 view .LVU31
 119 0000 10B5     		push	{r4, lr}
 120              	.LCFI2:
 121              		.cfi_def_cfa_offset 8
 122              		.cfi_offset 4, -8
 123              		.cfi_offset 14, -4
 124 0002 0446     		mov	r4, r0
 138:lib/STM32_USB_Device_Library/Core/Src/usbd_core.c ****   USBD_StatusTypeDef ret;
 125              		.loc 1 138 3 is_stmt 1 view .LVU32
 139:lib/STM32_USB_Device_Library/Core/Src/usbd_core.c **** 
 140:lib/STM32_USB_Device_Library/Core/Src/usbd_core.c ****   /* Set Default State */
 141:lib/STM32_USB_Device_Library/Core/Src/usbd_core.c ****   pdev->dev_state = USBD_STATE_DEFAULT;
 126              		.loc 1 141 3 view .LVU33
 127              		.loc 1 141 19 is_stmt 0 view .LVU34
 128 0004 0123     		movs	r3, #1
 129 0006 80F89C32 		strb	r3, [r0, #668]
 142:lib/STM32_USB_Device_Library/Core/Src/usbd_core.c **** 
 143:lib/STM32_USB_Device_Library/Core/Src/usbd_core.c ****   /* Free Class Resources */
 144:lib/STM32_USB_Device_Library/Core/Src/usbd_core.c ****   if (pdev->pClass != NULL)
 130              		.loc 1 144 3 is_stmt 1 view .LVU35
 131              		.loc 1 144 11 is_stmt 0 view .LVU36
 132 000a D0F8B832 		ldr	r3, [r0, #696]
 133              		.loc 1 144 6 view .LVU37
 134 000e 13B1     		cbz	r3, .L12
 145:lib/STM32_USB_Device_Library/Core/Src/usbd_core.c ****   {
 146:lib/STM32_USB_Device_Library/Core/Src/usbd_core.c ****     pdev->pClass->DeInit(pdev, (uint8_t)pdev->dev_config);
 135              		.loc 1 146 5 is_stmt 1 view .LVU38
 136              		.loc 1 146 17 is_stmt 0 view .LVU39
 137 0010 5B68     		ldr	r3, [r3, #4]
 138              		.loc 1 146 5 view .LVU40
 139 0012 0179     		ldrb	r1, [r0, #4]	@ zero_extendqisi2
 140 0014 9847     		blx	r3
ARM GAS  C:\Users\BIGBIG~1\AppData\Local\Temp\ccluI8kH.s 			page 6


 141              	.LVL7:
 142              	.L12:
 147:lib/STM32_USB_Device_Library/Core/Src/usbd_core.c ****   }
 148:lib/STM32_USB_Device_Library/Core/Src/usbd_core.c **** 
 149:lib/STM32_USB_Device_Library/Core/Src/usbd_core.c ****   if (pdev->pConfDesc != NULL)
 143              		.loc 1 149 3 is_stmt 1 view .LVU41
 144              		.loc 1 149 11 is_stmt 0 view .LVU42
 145 0016 D4F8CC32 		ldr	r3, [r4, #716]
 146              		.loc 1 149 6 view .LVU43
 147 001a 13B1     		cbz	r3, .L13
 150:lib/STM32_USB_Device_Library/Core/Src/usbd_core.c ****   {
 151:lib/STM32_USB_Device_Library/Core/Src/usbd_core.c ****     pdev->pConfDesc = NULL;
 148              		.loc 1 151 5 is_stmt 1 view .LVU44
 149              		.loc 1 151 21 is_stmt 0 view .LVU45
 150 001c 0023     		movs	r3, #0
 151 001e C4F8CC32 		str	r3, [r4, #716]
 152              	.L13:
 152:lib/STM32_USB_Device_Library/Core/Src/usbd_core.c ****   }
 153:lib/STM32_USB_Device_Library/Core/Src/usbd_core.c **** 
 154:lib/STM32_USB_Device_Library/Core/Src/usbd_core.c ****   /* Stop the low level driver  */
 155:lib/STM32_USB_Device_Library/Core/Src/usbd_core.c ****   ret = USBD_LL_Stop(pdev);
 153              		.loc 1 155 3 is_stmt 1 view .LVU46
 154              		.loc 1 155 9 is_stmt 0 view .LVU47
 155 0022 2046     		mov	r0, r4
 156 0024 FFF7FEFF 		bl	USBD_LL_Stop
 157              	.LVL8:
 156:lib/STM32_USB_Device_Library/Core/Src/usbd_core.c **** 
 157:lib/STM32_USB_Device_Library/Core/Src/usbd_core.c ****   if (ret != USBD_OK)
 158              		.loc 1 157 3 is_stmt 1 view .LVU48
 159              		.loc 1 157 6 is_stmt 0 view .LVU49
 160 0028 00B1     		cbz	r0, .L16
 161              	.L14:
 158:lib/STM32_USB_Device_Library/Core/Src/usbd_core.c ****   {
 159:lib/STM32_USB_Device_Library/Core/Src/usbd_core.c ****     return ret;
 160:lib/STM32_USB_Device_Library/Core/Src/usbd_core.c ****   }
 161:lib/STM32_USB_Device_Library/Core/Src/usbd_core.c **** 
 162:lib/STM32_USB_Device_Library/Core/Src/usbd_core.c ****   /* Initialize low level driver */
 163:lib/STM32_USB_Device_Library/Core/Src/usbd_core.c ****   ret = USBD_LL_DeInit(pdev);
 164:lib/STM32_USB_Device_Library/Core/Src/usbd_core.c **** 
 165:lib/STM32_USB_Device_Library/Core/Src/usbd_core.c ****   return ret;
 166:lib/STM32_USB_Device_Library/Core/Src/usbd_core.c **** }
 162              		.loc 1 166 1 view .LVU50
 163 002a 10BD     		pop	{r4, pc}
 164              	.LVL9:
 165              	.L16:
 163:lib/STM32_USB_Device_Library/Core/Src/usbd_core.c **** 
 166              		.loc 1 163 3 is_stmt 1 view .LVU51
 163:lib/STM32_USB_Device_Library/Core/Src/usbd_core.c **** 
 167              		.loc 1 163 9 is_stmt 0 view .LVU52
 168 002c 2046     		mov	r0, r4
 169              	.LVL10:
 163:lib/STM32_USB_Device_Library/Core/Src/usbd_core.c **** 
 170              		.loc 1 163 9 view .LVU53
 171 002e FFF7FEFF 		bl	USBD_LL_DeInit
 172              	.LVL11:
 165:lib/STM32_USB_Device_Library/Core/Src/usbd_core.c **** }
 173              		.loc 1 165 3 is_stmt 1 view .LVU54
ARM GAS  C:\Users\BIGBIG~1\AppData\Local\Temp\ccluI8kH.s 			page 7


 165:lib/STM32_USB_Device_Library/Core/Src/usbd_core.c **** }
 174              		.loc 1 165 10 is_stmt 0 view .LVU55
 175 0032 FAE7     		b	.L14
 176              		.cfi_endproc
 177              	.LFE146:
 179              		.section	.text.USBD_RegisterClass,"ax",%progbits
 180              		.align	1
 181              		.global	USBD_RegisterClass
 182              		.syntax unified
 183              		.thumb
 184              		.thumb_func
 185              		.fpu fpv5-d16
 187              	USBD_RegisterClass:
 188              	.LVL12:
 189              	.LFB147:
 167:lib/STM32_USB_Device_Library/Core/Src/usbd_core.c **** 
 168:lib/STM32_USB_Device_Library/Core/Src/usbd_core.c **** /**
 169:lib/STM32_USB_Device_Library/Core/Src/usbd_core.c ****   * @brief  USBD_RegisterClass
 170:lib/STM32_USB_Device_Library/Core/Src/usbd_core.c ****   *         Link class driver to Device Core.
 171:lib/STM32_USB_Device_Library/Core/Src/usbd_core.c ****   * @param  pDevice : Device Handle
 172:lib/STM32_USB_Device_Library/Core/Src/usbd_core.c ****   * @param  pclass: Class handle
 173:lib/STM32_USB_Device_Library/Core/Src/usbd_core.c ****   * @retval USBD Status
 174:lib/STM32_USB_Device_Library/Core/Src/usbd_core.c ****   */
 175:lib/STM32_USB_Device_Library/Core/Src/usbd_core.c **** USBD_StatusTypeDef USBD_RegisterClass(USBD_HandleTypeDef *pdev, USBD_ClassTypeDef *pclass)
 176:lib/STM32_USB_Device_Library/Core/Src/usbd_core.c **** {
 190              		.loc 1 176 1 is_stmt 1 view -0
 191              		.cfi_startproc
 192              		@ args = 0, pretend = 0, frame = 8
 193              		@ frame_needed = 0, uses_anonymous_args = 0
 194              		.loc 1 176 1 is_stmt 0 view .LVU57
 195 0000 10B5     		push	{r4, lr}
 196              	.LCFI3:
 197              		.cfi_def_cfa_offset 8
 198              		.cfi_offset 4, -8
 199              		.cfi_offset 14, -4
 200 0002 82B0     		sub	sp, sp, #8
 201              	.LCFI4:
 202              		.cfi_def_cfa_offset 16
 177:lib/STM32_USB_Device_Library/Core/Src/usbd_core.c ****   uint16_t len = 0U;
 203              		.loc 1 177 3 is_stmt 1 view .LVU58
 204              		.loc 1 177 12 is_stmt 0 view .LVU59
 205 0004 0023     		movs	r3, #0
 206 0006 ADF80630 		strh	r3, [sp, #6]	@ movhi
 178:lib/STM32_USB_Device_Library/Core/Src/usbd_core.c **** 
 179:lib/STM32_USB_Device_Library/Core/Src/usbd_core.c ****   if (pclass == NULL)
 207              		.loc 1 179 3 is_stmt 1 view .LVU60
 208              		.loc 1 179 6 is_stmt 0 view .LVU61
 209 000a 59B1     		cbz	r1, .L19
 210 000c 0446     		mov	r4, r0
 180:lib/STM32_USB_Device_Library/Core/Src/usbd_core.c ****   {
 181:lib/STM32_USB_Device_Library/Core/Src/usbd_core.c **** #if (USBD_DEBUG_LEVEL > 1U)
 182:lib/STM32_USB_Device_Library/Core/Src/usbd_core.c ****     USBD_ErrLog("Invalid Class handle");
 183:lib/STM32_USB_Device_Library/Core/Src/usbd_core.c **** #endif
 184:lib/STM32_USB_Device_Library/Core/Src/usbd_core.c ****     return USBD_FAIL;
 185:lib/STM32_USB_Device_Library/Core/Src/usbd_core.c ****   }
 186:lib/STM32_USB_Device_Library/Core/Src/usbd_core.c **** 
 187:lib/STM32_USB_Device_Library/Core/Src/usbd_core.c ****   /* link the class to the USB Device handle */
ARM GAS  C:\Users\BIGBIG~1\AppData\Local\Temp\ccluI8kH.s 			page 8


 188:lib/STM32_USB_Device_Library/Core/Src/usbd_core.c ****   pdev->pClass = pclass;
 211              		.loc 1 188 3 is_stmt 1 view .LVU62
 212              		.loc 1 188 16 is_stmt 0 view .LVU63
 213 000e C0F8B812 		str	r1, [r0, #696]
 189:lib/STM32_USB_Device_Library/Core/Src/usbd_core.c **** 
 190:lib/STM32_USB_Device_Library/Core/Src/usbd_core.c ****   /* Get Device Configuration Descriptor */
 191:lib/STM32_USB_Device_Library/Core/Src/usbd_core.c **** #ifdef USE_USB_FS
 192:lib/STM32_USB_Device_Library/Core/Src/usbd_core.c ****   pdev->pConfDesc = (void *)pdev->pClass->GetFSConfigDescriptor(&len);
 193:lib/STM32_USB_Device_Library/Core/Src/usbd_core.c **** #else /* USE_USB_HS */
 194:lib/STM32_USB_Device_Library/Core/Src/usbd_core.c ****   pdev->pConfDesc = (void *)pdev->pClass->GetHSConfigDescriptor(&len);
 214              		.loc 1 194 3 is_stmt 1 view .LVU64
 215              		.loc 1 194 41 is_stmt 0 view .LVU65
 216 0012 8B6A     		ldr	r3, [r1, #40]
 217              		.loc 1 194 29 view .LVU66
 218 0014 0DF10600 		add	r0, sp, #6
 219              	.LVL13:
 220              		.loc 1 194 29 view .LVU67
 221 0018 9847     		blx	r3
 222              	.LVL14:
 223              		.loc 1 194 19 view .LVU68
 224 001a C4F8CC02 		str	r0, [r4, #716]
 195:lib/STM32_USB_Device_Library/Core/Src/usbd_core.c **** #endif /* USE_USB_FS */
 196:lib/STM32_USB_Device_Library/Core/Src/usbd_core.c **** 
 197:lib/STM32_USB_Device_Library/Core/Src/usbd_core.c **** 
 198:lib/STM32_USB_Device_Library/Core/Src/usbd_core.c ****   return USBD_OK;
 225              		.loc 1 198 3 is_stmt 1 view .LVU69
 226              		.loc 1 198 10 is_stmt 0 view .LVU70
 227 001e 0020     		movs	r0, #0
 228              	.LVL15:
 229              	.L18:
 199:lib/STM32_USB_Device_Library/Core/Src/usbd_core.c **** }
 230              		.loc 1 199 1 view .LVU71
 231 0020 02B0     		add	sp, sp, #8
 232              	.LCFI5:
 233              		.cfi_remember_state
 234              		.cfi_def_cfa_offset 8
 235              		@ sp needed
 236 0022 10BD     		pop	{r4, pc}
 237              	.LVL16:
 238              	.L19:
 239              	.LCFI6:
 240              		.cfi_restore_state
 184:lib/STM32_USB_Device_Library/Core/Src/usbd_core.c ****   }
 241              		.loc 1 184 12 view .LVU72
 242 0024 0320     		movs	r0, #3
 243              	.LVL17:
 184:lib/STM32_USB_Device_Library/Core/Src/usbd_core.c ****   }
 244              		.loc 1 184 12 view .LVU73
 245 0026 FBE7     		b	.L18
 246              		.cfi_endproc
 247              	.LFE147:
 249              		.section	.text.USBD_Start,"ax",%progbits
 250              		.align	1
 251              		.global	USBD_Start
 252              		.syntax unified
 253              		.thumb
 254              		.thumb_func
ARM GAS  C:\Users\BIGBIG~1\AppData\Local\Temp\ccluI8kH.s 			page 9


 255              		.fpu fpv5-d16
 257              	USBD_Start:
 258              	.LVL18:
 259              	.LFB148:
 200:lib/STM32_USB_Device_Library/Core/Src/usbd_core.c **** 
 201:lib/STM32_USB_Device_Library/Core/Src/usbd_core.c **** /**
 202:lib/STM32_USB_Device_Library/Core/Src/usbd_core.c ****   * @brief  USBD_Start
 203:lib/STM32_USB_Device_Library/Core/Src/usbd_core.c ****   *         Start the USB Device Core.
 204:lib/STM32_USB_Device_Library/Core/Src/usbd_core.c ****   * @param  pdev: Device Handle
 205:lib/STM32_USB_Device_Library/Core/Src/usbd_core.c ****   * @retval USBD Status
 206:lib/STM32_USB_Device_Library/Core/Src/usbd_core.c ****   */
 207:lib/STM32_USB_Device_Library/Core/Src/usbd_core.c **** USBD_StatusTypeDef USBD_Start(USBD_HandleTypeDef *pdev)
 208:lib/STM32_USB_Device_Library/Core/Src/usbd_core.c **** {
 260              		.loc 1 208 1 is_stmt 1 view -0
 261              		.cfi_startproc
 262              		@ args = 0, pretend = 0, frame = 0
 263              		@ frame_needed = 0, uses_anonymous_args = 0
 264              		.loc 1 208 1 is_stmt 0 view .LVU75
 265 0000 08B5     		push	{r3, lr}
 266              	.LCFI7:
 267              		.cfi_def_cfa_offset 8
 268              		.cfi_offset 3, -8
 269              		.cfi_offset 14, -4
 209:lib/STM32_USB_Device_Library/Core/Src/usbd_core.c ****   /* Start the low level driver  */
 210:lib/STM32_USB_Device_Library/Core/Src/usbd_core.c ****   return USBD_LL_Start(pdev);
 270              		.loc 1 210 3 is_stmt 1 view .LVU76
 271              		.loc 1 210 10 is_stmt 0 view .LVU77
 272 0002 FFF7FEFF 		bl	USBD_LL_Start
 273              	.LVL19:
 211:lib/STM32_USB_Device_Library/Core/Src/usbd_core.c **** }
 274              		.loc 1 211 1 view .LVU78
 275 0006 08BD     		pop	{r3, pc}
 276              		.cfi_endproc
 277              	.LFE148:
 279              		.section	.text.USBD_Stop,"ax",%progbits
 280              		.align	1
 281              		.global	USBD_Stop
 282              		.syntax unified
 283              		.thumb
 284              		.thumb_func
 285              		.fpu fpv5-d16
 287              	USBD_Stop:
 288              	.LVL20:
 289              	.LFB149:
 212:lib/STM32_USB_Device_Library/Core/Src/usbd_core.c **** 
 213:lib/STM32_USB_Device_Library/Core/Src/usbd_core.c **** /**
 214:lib/STM32_USB_Device_Library/Core/Src/usbd_core.c ****   * @brief  USBD_Stop
 215:lib/STM32_USB_Device_Library/Core/Src/usbd_core.c ****   *         Stop the USB Device Core.
 216:lib/STM32_USB_Device_Library/Core/Src/usbd_core.c ****   * @param  pdev: Device Handle
 217:lib/STM32_USB_Device_Library/Core/Src/usbd_core.c ****   * @retval USBD Status
 218:lib/STM32_USB_Device_Library/Core/Src/usbd_core.c ****   */
 219:lib/STM32_USB_Device_Library/Core/Src/usbd_core.c **** USBD_StatusTypeDef USBD_Stop(USBD_HandleTypeDef *pdev)
 220:lib/STM32_USB_Device_Library/Core/Src/usbd_core.c **** {
 290              		.loc 1 220 1 is_stmt 1 view -0
 291              		.cfi_startproc
 292              		@ args = 0, pretend = 0, frame = 0
 293              		@ frame_needed = 0, uses_anonymous_args = 0
ARM GAS  C:\Users\BIGBIG~1\AppData\Local\Temp\ccluI8kH.s 			page 10


 294              		.loc 1 220 1 is_stmt 0 view .LVU80
 295 0000 10B5     		push	{r4, lr}
 296              	.LCFI8:
 297              		.cfi_def_cfa_offset 8
 298              		.cfi_offset 4, -8
 299              		.cfi_offset 14, -4
 300 0002 0446     		mov	r4, r0
 221:lib/STM32_USB_Device_Library/Core/Src/usbd_core.c ****   USBD_StatusTypeDef ret;
 301              		.loc 1 221 3 is_stmt 1 view .LVU81
 222:lib/STM32_USB_Device_Library/Core/Src/usbd_core.c **** 
 223:lib/STM32_USB_Device_Library/Core/Src/usbd_core.c ****   /* Free Class Resources */
 224:lib/STM32_USB_Device_Library/Core/Src/usbd_core.c ****   if (pdev->pClass != NULL)
 302              		.loc 1 224 3 view .LVU82
 303              		.loc 1 224 11 is_stmt 0 view .LVU83
 304 0004 D0F8B832 		ldr	r3, [r0, #696]
 305              		.loc 1 224 6 view .LVU84
 306 0008 13B1     		cbz	r3, .L24
 225:lib/STM32_USB_Device_Library/Core/Src/usbd_core.c ****   {
 226:lib/STM32_USB_Device_Library/Core/Src/usbd_core.c ****     pdev->pClass->DeInit(pdev, (uint8_t)pdev->dev_config);
 307              		.loc 1 226 5 is_stmt 1 view .LVU85
 308              		.loc 1 226 17 is_stmt 0 view .LVU86
 309 000a 5B68     		ldr	r3, [r3, #4]
 310              		.loc 1 226 5 view .LVU87
 311 000c 0179     		ldrb	r1, [r0, #4]	@ zero_extendqisi2
 312 000e 9847     		blx	r3
 313              	.LVL21:
 314              	.L24:
 227:lib/STM32_USB_Device_Library/Core/Src/usbd_core.c ****   }
 228:lib/STM32_USB_Device_Library/Core/Src/usbd_core.c **** 
 229:lib/STM32_USB_Device_Library/Core/Src/usbd_core.c ****   if (pdev->pConfDesc != NULL)
 315              		.loc 1 229 3 is_stmt 1 view .LVU88
 316              		.loc 1 229 11 is_stmt 0 view .LVU89
 317 0010 D4F8CC32 		ldr	r3, [r4, #716]
 318              		.loc 1 229 6 view .LVU90
 319 0014 13B1     		cbz	r3, .L25
 230:lib/STM32_USB_Device_Library/Core/Src/usbd_core.c ****   {
 231:lib/STM32_USB_Device_Library/Core/Src/usbd_core.c ****     pdev->pConfDesc = NULL;
 320              		.loc 1 231 5 is_stmt 1 view .LVU91
 321              		.loc 1 231 21 is_stmt 0 view .LVU92
 322 0016 0023     		movs	r3, #0
 323 0018 C4F8CC32 		str	r3, [r4, #716]
 324              	.L25:
 232:lib/STM32_USB_Device_Library/Core/Src/usbd_core.c ****   }
 233:lib/STM32_USB_Device_Library/Core/Src/usbd_core.c **** 
 234:lib/STM32_USB_Device_Library/Core/Src/usbd_core.c ****   /* Stop the low level driver */
 235:lib/STM32_USB_Device_Library/Core/Src/usbd_core.c ****   ret = USBD_LL_Stop(pdev);
 325              		.loc 1 235 3 is_stmt 1 view .LVU93
 326              		.loc 1 235 9 is_stmt 0 view .LVU94
 327 001c 2046     		mov	r0, r4
 328 001e FFF7FEFF 		bl	USBD_LL_Stop
 329              	.LVL22:
 236:lib/STM32_USB_Device_Library/Core/Src/usbd_core.c **** 
 237:lib/STM32_USB_Device_Library/Core/Src/usbd_core.c ****   return ret;
 330              		.loc 1 237 3 is_stmt 1 view .LVU95
 238:lib/STM32_USB_Device_Library/Core/Src/usbd_core.c **** }
 331              		.loc 1 238 1 is_stmt 0 view .LVU96
 332 0022 10BD     		pop	{r4, pc}
ARM GAS  C:\Users\BIGBIG~1\AppData\Local\Temp\ccluI8kH.s 			page 11


 333              		.loc 1 238 1 view .LVU97
 334              		.cfi_endproc
 335              	.LFE149:
 337              		.section	.text.USBD_RunTestMode,"ax",%progbits
 338              		.align	1
 339              		.global	USBD_RunTestMode
 340              		.syntax unified
 341              		.thumb
 342              		.thumb_func
 343              		.fpu fpv5-d16
 345              	USBD_RunTestMode:
 346              	.LVL23:
 347              	.LFB150:
 239:lib/STM32_USB_Device_Library/Core/Src/usbd_core.c **** 
 240:lib/STM32_USB_Device_Library/Core/Src/usbd_core.c **** /**
 241:lib/STM32_USB_Device_Library/Core/Src/usbd_core.c **** * @brief  USBD_RunTestMode
 242:lib/STM32_USB_Device_Library/Core/Src/usbd_core.c **** *         Launch test mode process
 243:lib/STM32_USB_Device_Library/Core/Src/usbd_core.c **** * @param  pdev: device instance
 244:lib/STM32_USB_Device_Library/Core/Src/usbd_core.c **** * @retval status
 245:lib/STM32_USB_Device_Library/Core/Src/usbd_core.c **** */
 246:lib/STM32_USB_Device_Library/Core/Src/usbd_core.c **** USBD_StatusTypeDef USBD_RunTestMode(USBD_HandleTypeDef  *pdev)
 247:lib/STM32_USB_Device_Library/Core/Src/usbd_core.c **** {
 348              		.loc 1 247 1 is_stmt 1 view -0
 349              		.cfi_startproc
 350              		@ args = 0, pretend = 0, frame = 0
 351              		@ frame_needed = 0, uses_anonymous_args = 0
 352              		@ link register save eliminated.
 248:lib/STM32_USB_Device_Library/Core/Src/usbd_core.c ****   /* Prevent unused argument compilation warning */
 249:lib/STM32_USB_Device_Library/Core/Src/usbd_core.c ****   UNUSED(pdev);
 353              		.loc 1 249 3 view .LVU99
 250:lib/STM32_USB_Device_Library/Core/Src/usbd_core.c **** 
 251:lib/STM32_USB_Device_Library/Core/Src/usbd_core.c ****   return USBD_OK;
 354              		.loc 1 251 3 view .LVU100
 252:lib/STM32_USB_Device_Library/Core/Src/usbd_core.c **** }
 355              		.loc 1 252 1 is_stmt 0 view .LVU101
 356 0000 0020     		movs	r0, #0
 357              	.LVL24:
 358              		.loc 1 252 1 view .LVU102
 359 0002 7047     		bx	lr
 360              		.cfi_endproc
 361              	.LFE150:
 363              		.section	.text.USBD_SetClassConfig,"ax",%progbits
 364              		.align	1
 365              		.global	USBD_SetClassConfig
 366              		.syntax unified
 367              		.thumb
 368              		.thumb_func
 369              		.fpu fpv5-d16
 371              	USBD_SetClassConfig:
 372              	.LVL25:
 373              	.LFB151:
 253:lib/STM32_USB_Device_Library/Core/Src/usbd_core.c **** 
 254:lib/STM32_USB_Device_Library/Core/Src/usbd_core.c **** /**
 255:lib/STM32_USB_Device_Library/Core/Src/usbd_core.c **** * @brief  USBD_SetClassConfig
 256:lib/STM32_USB_Device_Library/Core/Src/usbd_core.c **** *        Configure device and start the interface
 257:lib/STM32_USB_Device_Library/Core/Src/usbd_core.c **** * @param  pdev: device instance
 258:lib/STM32_USB_Device_Library/Core/Src/usbd_core.c **** * @param  cfgidx: configuration index
ARM GAS  C:\Users\BIGBIG~1\AppData\Local\Temp\ccluI8kH.s 			page 12


 259:lib/STM32_USB_Device_Library/Core/Src/usbd_core.c **** * @retval status
 260:lib/STM32_USB_Device_Library/Core/Src/usbd_core.c **** */
 261:lib/STM32_USB_Device_Library/Core/Src/usbd_core.c **** 
 262:lib/STM32_USB_Device_Library/Core/Src/usbd_core.c **** USBD_StatusTypeDef USBD_SetClassConfig(USBD_HandleTypeDef *pdev, uint8_t cfgidx)
 263:lib/STM32_USB_Device_Library/Core/Src/usbd_core.c **** {
 374              		.loc 1 263 1 is_stmt 1 view -0
 375              		.cfi_startproc
 376              		@ args = 0, pretend = 0, frame = 0
 377              		@ frame_needed = 0, uses_anonymous_args = 0
 378              		.loc 1 263 1 is_stmt 0 view .LVU104
 379 0000 08B5     		push	{r3, lr}
 380              	.LCFI9:
 381              		.cfi_def_cfa_offset 8
 382              		.cfi_offset 3, -8
 383              		.cfi_offset 14, -4
 264:lib/STM32_USB_Device_Library/Core/Src/usbd_core.c ****   USBD_StatusTypeDef ret = USBD_FAIL;
 384              		.loc 1 264 3 is_stmt 1 view .LVU105
 385              	.LVL26:
 265:lib/STM32_USB_Device_Library/Core/Src/usbd_core.c **** 
 266:lib/STM32_USB_Device_Library/Core/Src/usbd_core.c ****   if (pdev->pClass != NULL)
 386              		.loc 1 266 3 view .LVU106
 387              		.loc 1 266 11 is_stmt 0 view .LVU107
 388 0002 D0F8B832 		ldr	r3, [r0, #696]
 389              		.loc 1 266 6 view .LVU108
 390 0006 13B1     		cbz	r3, .L30
 267:lib/STM32_USB_Device_Library/Core/Src/usbd_core.c ****   {
 268:lib/STM32_USB_Device_Library/Core/Src/usbd_core.c ****     /* Set configuration and Start the Class */
 269:lib/STM32_USB_Device_Library/Core/Src/usbd_core.c ****     ret = (USBD_StatusTypeDef)pdev->pClass->Init(pdev, cfgidx);
 391              		.loc 1 269 5 is_stmt 1 view .LVU109
 392              		.loc 1 269 43 is_stmt 0 view .LVU110
 393 0008 1B68     		ldr	r3, [r3]
 394              		.loc 1 269 31 view .LVU111
 395 000a 9847     		blx	r3
 396              	.LVL27:
 397              	.L29:
 270:lib/STM32_USB_Device_Library/Core/Src/usbd_core.c ****   }
 271:lib/STM32_USB_Device_Library/Core/Src/usbd_core.c **** 
 272:lib/STM32_USB_Device_Library/Core/Src/usbd_core.c ****   return ret;
 398              		.loc 1 272 3 is_stmt 1 view .LVU112
 273:lib/STM32_USB_Device_Library/Core/Src/usbd_core.c **** }
 399              		.loc 1 273 1 is_stmt 0 view .LVU113
 400 000c 08BD     		pop	{r3, pc}
 401              	.LVL28:
 402              	.L30:
 264:lib/STM32_USB_Device_Library/Core/Src/usbd_core.c **** 
 403              		.loc 1 264 22 view .LVU114
 404 000e 0320     		movs	r0, #3
 405              	.LVL29:
 264:lib/STM32_USB_Device_Library/Core/Src/usbd_core.c **** 
 406              		.loc 1 264 22 view .LVU115
 407 0010 FCE7     		b	.L29
 408              		.cfi_endproc
 409              	.LFE151:
 411              		.section	.text.USBD_ClrClassConfig,"ax",%progbits
 412              		.align	1
 413              		.global	USBD_ClrClassConfig
 414              		.syntax unified
ARM GAS  C:\Users\BIGBIG~1\AppData\Local\Temp\ccluI8kH.s 			page 13


 415              		.thumb
 416              		.thumb_func
 417              		.fpu fpv5-d16
 419              	USBD_ClrClassConfig:
 420              	.LVL30:
 421              	.LFB152:
 274:lib/STM32_USB_Device_Library/Core/Src/usbd_core.c **** 
 275:lib/STM32_USB_Device_Library/Core/Src/usbd_core.c **** /**
 276:lib/STM32_USB_Device_Library/Core/Src/usbd_core.c **** * @brief  USBD_ClrClassConfig
 277:lib/STM32_USB_Device_Library/Core/Src/usbd_core.c **** *         Clear current configuration
 278:lib/STM32_USB_Device_Library/Core/Src/usbd_core.c **** * @param  pdev: device instance
 279:lib/STM32_USB_Device_Library/Core/Src/usbd_core.c **** * @param  cfgidx: configuration index
 280:lib/STM32_USB_Device_Library/Core/Src/usbd_core.c **** * @retval status: USBD_StatusTypeDef
 281:lib/STM32_USB_Device_Library/Core/Src/usbd_core.c **** */
 282:lib/STM32_USB_Device_Library/Core/Src/usbd_core.c **** USBD_StatusTypeDef USBD_ClrClassConfig(USBD_HandleTypeDef *pdev, uint8_t cfgidx)
 283:lib/STM32_USB_Device_Library/Core/Src/usbd_core.c **** {
 422              		.loc 1 283 1 is_stmt 1 view -0
 423              		.cfi_startproc
 424              		@ args = 0, pretend = 0, frame = 0
 425              		@ frame_needed = 0, uses_anonymous_args = 0
 426              		.loc 1 283 1 is_stmt 0 view .LVU117
 427 0000 08B5     		push	{r3, lr}
 428              	.LCFI10:
 429              		.cfi_def_cfa_offset 8
 430              		.cfi_offset 3, -8
 431              		.cfi_offset 14, -4
 284:lib/STM32_USB_Device_Library/Core/Src/usbd_core.c ****   /* Clear configuration and De-initialize the Class process */
 285:lib/STM32_USB_Device_Library/Core/Src/usbd_core.c ****   if (pdev->pClass != NULL)
 432              		.loc 1 285 3 is_stmt 1 view .LVU118
 433              		.loc 1 285 11 is_stmt 0 view .LVU119
 434 0002 D0F8B832 		ldr	r3, [r0, #696]
 435              		.loc 1 285 6 view .LVU120
 436 0006 0BB1     		cbz	r3, .L33
 286:lib/STM32_USB_Device_Library/Core/Src/usbd_core.c ****   {
 287:lib/STM32_USB_Device_Library/Core/Src/usbd_core.c ****     pdev->pClass->DeInit(pdev, cfgidx);
 437              		.loc 1 287 5 is_stmt 1 view .LVU121
 438              		.loc 1 287 17 is_stmt 0 view .LVU122
 439 0008 5B68     		ldr	r3, [r3, #4]
 440              		.loc 1 287 5 view .LVU123
 441 000a 9847     		blx	r3
 442              	.LVL31:
 443              	.L33:
 288:lib/STM32_USB_Device_Library/Core/Src/usbd_core.c ****   }
 289:lib/STM32_USB_Device_Library/Core/Src/usbd_core.c **** 
 290:lib/STM32_USB_Device_Library/Core/Src/usbd_core.c ****   return USBD_OK;
 444              		.loc 1 290 3 is_stmt 1 view .LVU124
 291:lib/STM32_USB_Device_Library/Core/Src/usbd_core.c **** }
 445              		.loc 1 291 1 is_stmt 0 view .LVU125
 446 000c 0020     		movs	r0, #0
 447 000e 08BD     		pop	{r3, pc}
 448              		.cfi_endproc
 449              	.LFE152:
 451              		.section	.text.USBD_LL_SetupStage,"ax",%progbits
 452              		.align	1
 453              		.global	USBD_LL_SetupStage
 454              		.syntax unified
 455              		.thumb
ARM GAS  C:\Users\BIGBIG~1\AppData\Local\Temp\ccluI8kH.s 			page 14


 456              		.thumb_func
 457              		.fpu fpv5-d16
 459              	USBD_LL_SetupStage:
 460              	.LVL32:
 461              	.LFB153:
 292:lib/STM32_USB_Device_Library/Core/Src/usbd_core.c **** 
 293:lib/STM32_USB_Device_Library/Core/Src/usbd_core.c **** 
 294:lib/STM32_USB_Device_Library/Core/Src/usbd_core.c **** /**
 295:lib/STM32_USB_Device_Library/Core/Src/usbd_core.c **** * @brief  USBD_SetupStage
 296:lib/STM32_USB_Device_Library/Core/Src/usbd_core.c **** *         Handle the setup stage
 297:lib/STM32_USB_Device_Library/Core/Src/usbd_core.c **** * @param  pdev: device instance
 298:lib/STM32_USB_Device_Library/Core/Src/usbd_core.c **** * @retval status
 299:lib/STM32_USB_Device_Library/Core/Src/usbd_core.c **** */
 300:lib/STM32_USB_Device_Library/Core/Src/usbd_core.c **** USBD_StatusTypeDef USBD_LL_SetupStage(USBD_HandleTypeDef *pdev, uint8_t *psetup)
 301:lib/STM32_USB_Device_Library/Core/Src/usbd_core.c **** {
 462              		.loc 1 301 1 is_stmt 1 view -0
 463              		.cfi_startproc
 464              		@ args = 0, pretend = 0, frame = 0
 465              		@ frame_needed = 0, uses_anonymous_args = 0
 466              		.loc 1 301 1 is_stmt 0 view .LVU127
 467 0000 38B5     		push	{r3, r4, r5, lr}
 468              	.LCFI11:
 469              		.cfi_def_cfa_offset 16
 470              		.cfi_offset 3, -16
 471              		.cfi_offset 4, -12
 472              		.cfi_offset 5, -8
 473              		.cfi_offset 14, -4
 474 0002 0446     		mov	r4, r0
 302:lib/STM32_USB_Device_Library/Core/Src/usbd_core.c ****   USBD_StatusTypeDef ret;
 475              		.loc 1 302 3 is_stmt 1 view .LVU128
 303:lib/STM32_USB_Device_Library/Core/Src/usbd_core.c **** 
 304:lib/STM32_USB_Device_Library/Core/Src/usbd_core.c ****   USBD_ParseSetupRequest(&pdev->request, psetup);
 476              		.loc 1 304 3 view .LVU129
 477 0004 00F2AA25 		addw	r5, r0, #682
 478 0008 2846     		mov	r0, r5
 479              	.LVL33:
 480              		.loc 1 304 3 is_stmt 0 view .LVU130
 481 000a FFF7FEFF 		bl	USBD_ParseSetupRequest
 482              	.LVL34:
 305:lib/STM32_USB_Device_Library/Core/Src/usbd_core.c **** 
 306:lib/STM32_USB_Device_Library/Core/Src/usbd_core.c ****   pdev->ep0_state = USBD_EP0_SETUP;
 483              		.loc 1 306 3 is_stmt 1 view .LVU131
 484              		.loc 1 306 19 is_stmt 0 view .LVU132
 485 000e 0123     		movs	r3, #1
 486 0010 C4F89432 		str	r3, [r4, #660]
 307:lib/STM32_USB_Device_Library/Core/Src/usbd_core.c **** 
 308:lib/STM32_USB_Device_Library/Core/Src/usbd_core.c ****   pdev->ep0_data_len = pdev->request.wLength;
 487              		.loc 1 308 3 is_stmt 1 view .LVU133
 488              		.loc 1 308 37 is_stmt 0 view .LVU134
 489 0014 B4F8B032 		ldrh	r3, [r4, #688]
 490              		.loc 1 308 22 view .LVU135
 491 0018 C4F89832 		str	r3, [r4, #664]
 309:lib/STM32_USB_Device_Library/Core/Src/usbd_core.c **** 
 310:lib/STM32_USB_Device_Library/Core/Src/usbd_core.c ****   switch (pdev->request.bmRequest & 0x1FU)
 492              		.loc 1 310 3 is_stmt 1 view .LVU136
 493              		.loc 1 310 24 is_stmt 0 view .LVU137
 494 001c 94F8AA12 		ldrb	r1, [r4, #682]	@ zero_extendqisi2
ARM GAS  C:\Users\BIGBIG~1\AppData\Local\Temp\ccluI8kH.s 			page 15


 495 0020 01F01F03 		and	r3, r1, #31
 496              		.loc 1 310 3 view .LVU138
 497 0024 012B     		cmp	r3, #1
 498 0026 0DD0     		beq	.L36
 499 0028 022B     		cmp	r3, #2
 500 002a 10D0     		beq	.L37
 501 002c 2BB1     		cbz	r3, .L41
 311:lib/STM32_USB_Device_Library/Core/Src/usbd_core.c ****   {
 312:lib/STM32_USB_Device_Library/Core/Src/usbd_core.c ****     case USB_REQ_RECIPIENT_DEVICE:
 313:lib/STM32_USB_Device_Library/Core/Src/usbd_core.c ****       ret = USBD_StdDevReq(pdev, &pdev->request);
 314:lib/STM32_USB_Device_Library/Core/Src/usbd_core.c ****       break;
 315:lib/STM32_USB_Device_Library/Core/Src/usbd_core.c **** 
 316:lib/STM32_USB_Device_Library/Core/Src/usbd_core.c ****     case USB_REQ_RECIPIENT_INTERFACE:
 317:lib/STM32_USB_Device_Library/Core/Src/usbd_core.c ****       ret = USBD_StdItfReq(pdev, &pdev->request);
 318:lib/STM32_USB_Device_Library/Core/Src/usbd_core.c ****       break;
 319:lib/STM32_USB_Device_Library/Core/Src/usbd_core.c **** 
 320:lib/STM32_USB_Device_Library/Core/Src/usbd_core.c ****     case USB_REQ_RECIPIENT_ENDPOINT:
 321:lib/STM32_USB_Device_Library/Core/Src/usbd_core.c ****       ret = USBD_StdEPReq(pdev, &pdev->request);
 322:lib/STM32_USB_Device_Library/Core/Src/usbd_core.c ****       break;
 323:lib/STM32_USB_Device_Library/Core/Src/usbd_core.c **** 
 324:lib/STM32_USB_Device_Library/Core/Src/usbd_core.c ****     default:
 325:lib/STM32_USB_Device_Library/Core/Src/usbd_core.c ****       ret = USBD_LL_StallEP(pdev, (pdev->request.bmRequest & 0x80U));
 502              		.loc 1 325 7 is_stmt 1 view .LVU139
 503              		.loc 1 325 13 is_stmt 0 view .LVU140
 504 002e 01F08001 		and	r1, r1, #128
 505 0032 2046     		mov	r0, r4
 506 0034 FFF7FEFF 		bl	USBD_LL_StallEP
 507              	.LVL35:
 326:lib/STM32_USB_Device_Library/Core/Src/usbd_core.c ****       break;
 508              		.loc 1 326 7 is_stmt 1 view .LVU141
 509 0038 03E0     		b	.L39
 510              	.LVL36:
 511              	.L41:
 313:lib/STM32_USB_Device_Library/Core/Src/usbd_core.c ****       break;
 512              		.loc 1 313 7 view .LVU142
 313:lib/STM32_USB_Device_Library/Core/Src/usbd_core.c ****       break;
 513              		.loc 1 313 13 is_stmt 0 view .LVU143
 514 003a 2946     		mov	r1, r5
 515 003c 2046     		mov	r0, r4
 516 003e FFF7FEFF 		bl	USBD_StdDevReq
 517              	.LVL37:
 314:lib/STM32_USB_Device_Library/Core/Src/usbd_core.c **** 
 518              		.loc 1 314 7 is_stmt 1 view .LVU144
 519              	.L39:
 327:lib/STM32_USB_Device_Library/Core/Src/usbd_core.c ****   }
 328:lib/STM32_USB_Device_Library/Core/Src/usbd_core.c **** 
 329:lib/STM32_USB_Device_Library/Core/Src/usbd_core.c ****   return ret;
 520              		.loc 1 329 3 view .LVU145
 330:lib/STM32_USB_Device_Library/Core/Src/usbd_core.c **** }
 521              		.loc 1 330 1 is_stmt 0 view .LVU146
 522 0042 38BD     		pop	{r3, r4, r5, pc}
 523              	.LVL38:
 524              	.L36:
 317:lib/STM32_USB_Device_Library/Core/Src/usbd_core.c ****       break;
 525              		.loc 1 317 7 is_stmt 1 view .LVU147
 317:lib/STM32_USB_Device_Library/Core/Src/usbd_core.c ****       break;
 526              		.loc 1 317 13 is_stmt 0 view .LVU148
ARM GAS  C:\Users\BIGBIG~1\AppData\Local\Temp\ccluI8kH.s 			page 16


 527 0044 2946     		mov	r1, r5
 528 0046 2046     		mov	r0, r4
 529 0048 FFF7FEFF 		bl	USBD_StdItfReq
 530              	.LVL39:
 318:lib/STM32_USB_Device_Library/Core/Src/usbd_core.c **** 
 531              		.loc 1 318 7 is_stmt 1 view .LVU149
 532 004c F9E7     		b	.L39
 533              	.LVL40:
 534              	.L37:
 321:lib/STM32_USB_Device_Library/Core/Src/usbd_core.c ****       break;
 535              		.loc 1 321 7 view .LVU150
 321:lib/STM32_USB_Device_Library/Core/Src/usbd_core.c ****       break;
 536              		.loc 1 321 13 is_stmt 0 view .LVU151
 537 004e 2946     		mov	r1, r5
 538 0050 2046     		mov	r0, r4
 539 0052 FFF7FEFF 		bl	USBD_StdEPReq
 540              	.LVL41:
 322:lib/STM32_USB_Device_Library/Core/Src/usbd_core.c **** 
 541              		.loc 1 322 7 is_stmt 1 view .LVU152
 542 0056 F4E7     		b	.L39
 543              		.cfi_endproc
 544              	.LFE153:
 546              		.section	.text.USBD_LL_DataOutStage,"ax",%progbits
 547              		.align	1
 548              		.global	USBD_LL_DataOutStage
 549              		.syntax unified
 550              		.thumb
 551              		.thumb_func
 552              		.fpu fpv5-d16
 554              	USBD_LL_DataOutStage:
 555              	.LVL42:
 556              	.LFB154:
 331:lib/STM32_USB_Device_Library/Core/Src/usbd_core.c **** 
 332:lib/STM32_USB_Device_Library/Core/Src/usbd_core.c **** /**
 333:lib/STM32_USB_Device_Library/Core/Src/usbd_core.c **** * @brief  USBD_DataOutStage
 334:lib/STM32_USB_Device_Library/Core/Src/usbd_core.c **** *         Handle data OUT stage
 335:lib/STM32_USB_Device_Library/Core/Src/usbd_core.c **** * @param  pdev: device instance
 336:lib/STM32_USB_Device_Library/Core/Src/usbd_core.c **** * @param  epnum: endpoint index
 337:lib/STM32_USB_Device_Library/Core/Src/usbd_core.c **** * @retval status
 338:lib/STM32_USB_Device_Library/Core/Src/usbd_core.c **** */
 339:lib/STM32_USB_Device_Library/Core/Src/usbd_core.c **** USBD_StatusTypeDef USBD_LL_DataOutStage(USBD_HandleTypeDef *pdev,
 340:lib/STM32_USB_Device_Library/Core/Src/usbd_core.c ****                                         uint8_t epnum, uint8_t *pdata)
 341:lib/STM32_USB_Device_Library/Core/Src/usbd_core.c **** {
 557              		.loc 1 341 1 view -0
 558              		.cfi_startproc
 559              		@ args = 0, pretend = 0, frame = 0
 560              		@ frame_needed = 0, uses_anonymous_args = 0
 561              		.loc 1 341 1 is_stmt 0 view .LVU154
 562 0000 38B5     		push	{r3, r4, r5, lr}
 563              	.LCFI12:
 564              		.cfi_def_cfa_offset 16
 565              		.cfi_offset 3, -16
 566              		.cfi_offset 4, -12
 567              		.cfi_offset 5, -8
 568              		.cfi_offset 14, -4
 569 0002 0446     		mov	r4, r0
 342:lib/STM32_USB_Device_Library/Core/Src/usbd_core.c ****   USBD_EndpointTypeDef *pep;
ARM GAS  C:\Users\BIGBIG~1\AppData\Local\Temp\ccluI8kH.s 			page 17


 570              		.loc 1 342 3 is_stmt 1 view .LVU155
 343:lib/STM32_USB_Device_Library/Core/Src/usbd_core.c ****   USBD_StatusTypeDef ret;
 571              		.loc 1 343 3 view .LVU156
 344:lib/STM32_USB_Device_Library/Core/Src/usbd_core.c **** 
 345:lib/STM32_USB_Device_Library/Core/Src/usbd_core.c ****   if (epnum == 0U)
 572              		.loc 1 345 3 view .LVU157
 573              		.loc 1 345 6 is_stmt 0 view .LVU158
 574 0004 0D46     		mov	r5, r1
 575 0006 31BB     		cbnz	r1, .L43
 576 0008 1346     		mov	r3, r2
 346:lib/STM32_USB_Device_Library/Core/Src/usbd_core.c ****   {
 347:lib/STM32_USB_Device_Library/Core/Src/usbd_core.c ****     pep = &pdev->ep_out[0];
 577              		.loc 1 347 5 is_stmt 1 view .LVU159
 578              	.LVL43:
 348:lib/STM32_USB_Device_Library/Core/Src/usbd_core.c **** 
 349:lib/STM32_USB_Device_Library/Core/Src/usbd_core.c ****     if (pdev->ep0_state == USBD_EP0_DATA_OUT)
 579              		.loc 1 349 5 view .LVU160
 580              		.loc 1 349 13 is_stmt 0 view .LVU161
 581 000a D0F89422 		ldr	r2, [r0, #660]
 582              	.LVL44:
 583              		.loc 1 349 8 view .LVU162
 584 000e 032A     		cmp	r2, #3
 585 0010 01D0     		beq	.L51
 350:lib/STM32_USB_Device_Library/Core/Src/usbd_core.c ****     {
 351:lib/STM32_USB_Device_Library/Core/Src/usbd_core.c ****       if (pep->rem_length > pep->maxpacket)
 352:lib/STM32_USB_Device_Library/Core/Src/usbd_core.c ****       {
 353:lib/STM32_USB_Device_Library/Core/Src/usbd_core.c ****         pep->rem_length -= pep->maxpacket;
 354:lib/STM32_USB_Device_Library/Core/Src/usbd_core.c **** 
 355:lib/STM32_USB_Device_Library/Core/Src/usbd_core.c ****         (void)USBD_CtlContinueRx(pdev, pdata, MIN(pep->rem_length, pep->maxpacket));
 356:lib/STM32_USB_Device_Library/Core/Src/usbd_core.c ****       }
 357:lib/STM32_USB_Device_Library/Core/Src/usbd_core.c ****       else
 358:lib/STM32_USB_Device_Library/Core/Src/usbd_core.c ****       {
 359:lib/STM32_USB_Device_Library/Core/Src/usbd_core.c ****         if ((pdev->pClass->EP0_RxReady != NULL) &&
 360:lib/STM32_USB_Device_Library/Core/Src/usbd_core.c ****             (pdev->dev_state == USBD_STATE_CONFIGURED))
 361:lib/STM32_USB_Device_Library/Core/Src/usbd_core.c ****         {
 362:lib/STM32_USB_Device_Library/Core/Src/usbd_core.c ****           pdev->pClass->EP0_RxReady(pdev);
 363:lib/STM32_USB_Device_Library/Core/Src/usbd_core.c ****         }
 364:lib/STM32_USB_Device_Library/Core/Src/usbd_core.c ****         (void)USBD_CtlSendStatus(pdev);
 365:lib/STM32_USB_Device_Library/Core/Src/usbd_core.c ****       }
 366:lib/STM32_USB_Device_Library/Core/Src/usbd_core.c ****     }
 367:lib/STM32_USB_Device_Library/Core/Src/usbd_core.c ****     else
 368:lib/STM32_USB_Device_Library/Core/Src/usbd_core.c ****     {
 369:lib/STM32_USB_Device_Library/Core/Src/usbd_core.c **** #if 0
 370:lib/STM32_USB_Device_Library/Core/Src/usbd_core.c ****       if (pdev->ep0_state == USBD_EP0_STATUS_OUT)
 371:lib/STM32_USB_Device_Library/Core/Src/usbd_core.c ****       {
 372:lib/STM32_USB_Device_Library/Core/Src/usbd_core.c ****         /*
 373:lib/STM32_USB_Device_Library/Core/Src/usbd_core.c ****          * STATUS PHASE completed, update ep0_state to idle
 374:lib/STM32_USB_Device_Library/Core/Src/usbd_core.c ****          */
 375:lib/STM32_USB_Device_Library/Core/Src/usbd_core.c ****         pdev->ep0_state = USBD_EP0_IDLE;
 376:lib/STM32_USB_Device_Library/Core/Src/usbd_core.c ****         (void)USBD_LL_StallEP(pdev, 0U);
 377:lib/STM32_USB_Device_Library/Core/Src/usbd_core.c ****       }
 378:lib/STM32_USB_Device_Library/Core/Src/usbd_core.c **** #endif
 379:lib/STM32_USB_Device_Library/Core/Src/usbd_core.c ****     }
 380:lib/STM32_USB_Device_Library/Core/Src/usbd_core.c ****   }
 381:lib/STM32_USB_Device_Library/Core/Src/usbd_core.c ****   else if ((pdev->pClass->DataOut != NULL) &&
 382:lib/STM32_USB_Device_Library/Core/Src/usbd_core.c ****            (pdev->dev_state == USBD_STATE_CONFIGURED))
 383:lib/STM32_USB_Device_Library/Core/Src/usbd_core.c ****   {
ARM GAS  C:\Users\BIGBIG~1\AppData\Local\Temp\ccluI8kH.s 			page 18


 384:lib/STM32_USB_Device_Library/Core/Src/usbd_core.c ****     ret = (USBD_StatusTypeDef)pdev->pClass->DataOut(pdev, epnum);
 385:lib/STM32_USB_Device_Library/Core/Src/usbd_core.c **** 
 386:lib/STM32_USB_Device_Library/Core/Src/usbd_core.c ****     if (ret != USBD_OK)
 387:lib/STM32_USB_Device_Library/Core/Src/usbd_core.c ****     {
 388:lib/STM32_USB_Device_Library/Core/Src/usbd_core.c ****       return ret;
 389:lib/STM32_USB_Device_Library/Core/Src/usbd_core.c ****     }
 390:lib/STM32_USB_Device_Library/Core/Src/usbd_core.c ****   }
 391:lib/STM32_USB_Device_Library/Core/Src/usbd_core.c ****   else
 392:lib/STM32_USB_Device_Library/Core/Src/usbd_core.c ****   {
 393:lib/STM32_USB_Device_Library/Core/Src/usbd_core.c ****     /* should never be in this condition */
 394:lib/STM32_USB_Device_Library/Core/Src/usbd_core.c ****     return USBD_FAIL;
 395:lib/STM32_USB_Device_Library/Core/Src/usbd_core.c ****   }
 396:lib/STM32_USB_Device_Library/Core/Src/usbd_core.c **** 
 397:lib/STM32_USB_Device_Library/Core/Src/usbd_core.c ****   return USBD_OK;
 586              		.loc 1 397 10 view .LVU163
 587 0012 0846     		mov	r0, r1
 588              	.LVL45:
 589              	.L44:
 398:lib/STM32_USB_Device_Library/Core/Src/usbd_core.c **** }
 590              		.loc 1 398 1 view .LVU164
 591 0014 38BD     		pop	{r3, r4, r5, pc}
 592              	.LVL46:
 593              	.L51:
 351:lib/STM32_USB_Device_Library/Core/Src/usbd_core.c ****       {
 594              		.loc 1 351 7 is_stmt 1 view .LVU165
 351:lib/STM32_USB_Device_Library/Core/Src/usbd_core.c ****       {
 595              		.loc 1 351 14 is_stmt 0 view .LVU166
 596 0016 D0F85C11 		ldr	r1, [r0, #348]
 597              	.LVL47:
 351:lib/STM32_USB_Device_Library/Core/Src/usbd_core.c ****       {
 598              		.loc 1 351 32 view .LVU167
 599 001a D0F86021 		ldr	r2, [r0, #352]
 351:lib/STM32_USB_Device_Library/Core/Src/usbd_core.c ****       {
 600              		.loc 1 351 10 view .LVU168
 601 001e 9142     		cmp	r1, r2
 602 0020 0CD8     		bhi	.L52
 359:lib/STM32_USB_Device_Library/Core/Src/usbd_core.c ****             (pdev->dev_state == USBD_STATE_CONFIGURED))
 603              		.loc 1 359 9 is_stmt 1 view .LVU169
 359:lib/STM32_USB_Device_Library/Core/Src/usbd_core.c ****             (pdev->dev_state == USBD_STATE_CONFIGURED))
 604              		.loc 1 359 18 is_stmt 0 view .LVU170
 605 0022 D0F8B832 		ldr	r3, [r0, #696]
 606              	.LVL48:
 359:lib/STM32_USB_Device_Library/Core/Src/usbd_core.c ****             (pdev->dev_state == USBD_STATE_CONFIGURED))
 607              		.loc 1 359 26 view .LVU171
 608 0026 1B69     		ldr	r3, [r3, #16]
 359:lib/STM32_USB_Device_Library/Core/Src/usbd_core.c ****             (pdev->dev_state == USBD_STATE_CONFIGURED))
 609              		.loc 1 359 12 view .LVU172
 610 0028 1BB1     		cbz	r3, .L46
 360:lib/STM32_USB_Device_Library/Core/Src/usbd_core.c ****         {
 611              		.loc 1 360 18 discriminator 1 view .LVU173
 612 002a 90F89C22 		ldrb	r2, [r0, #668]	@ zero_extendqisi2
 359:lib/STM32_USB_Device_Library/Core/Src/usbd_core.c ****             (pdev->dev_state == USBD_STATE_CONFIGURED))
 613              		.loc 1 359 49 discriminator 1 view .LVU174
 614 002e 032A     		cmp	r2, #3
 615 0030 0FD0     		beq	.L53
 616              	.LVL49:
 617              	.L46:
ARM GAS  C:\Users\BIGBIG~1\AppData\Local\Temp\ccluI8kH.s 			page 19


 364:lib/STM32_USB_Device_Library/Core/Src/usbd_core.c ****       }
 618              		.loc 1 364 9 is_stmt 1 view .LVU175
 364:lib/STM32_USB_Device_Library/Core/Src/usbd_core.c ****       }
 619              		.loc 1 364 15 is_stmt 0 view .LVU176
 620 0032 2046     		mov	r0, r4
 621 0034 FFF7FEFF 		bl	USBD_CtlSendStatus
 622              	.LVL50:
 397:lib/STM32_USB_Device_Library/Core/Src/usbd_core.c **** }
 623              		.loc 1 397 10 view .LVU177
 624 0038 2846     		mov	r0, r5
 625 003a EBE7     		b	.L44
 626              	.LVL51:
 627              	.L52:
 353:lib/STM32_USB_Device_Library/Core/Src/usbd_core.c **** 
 628              		.loc 1 353 9 is_stmt 1 view .LVU178
 353:lib/STM32_USB_Device_Library/Core/Src/usbd_core.c **** 
 629              		.loc 1 353 25 is_stmt 0 view .LVU179
 630 003c 891A     		subs	r1, r1, r2
 631 003e C0F85C11 		str	r1, [r0, #348]
 355:lib/STM32_USB_Device_Library/Core/Src/usbd_core.c ****       }
 632              		.loc 1 355 9 is_stmt 1 view .LVU180
 355:lib/STM32_USB_Device_Library/Core/Src/usbd_core.c ****       }
 633              		.loc 1 355 15 is_stmt 0 view .LVU181
 634 0042 8A42     		cmp	r2, r1
 635 0044 28BF     		it	cs
 636 0046 0A46     		movcs	r2, r1
 637 0048 1946     		mov	r1, r3
 638 004a FFF7FEFF 		bl	USBD_CtlContinueRx
 639              	.LVL52:
 397:lib/STM32_USB_Device_Library/Core/Src/usbd_core.c **** }
 640              		.loc 1 397 10 view .LVU182
 641 004e 2846     		mov	r0, r5
 642 0050 E0E7     		b	.L44
 643              	.LVL53:
 644              	.L53:
 362:lib/STM32_USB_Device_Library/Core/Src/usbd_core.c ****         }
 645              		.loc 1 362 11 is_stmt 1 view .LVU183
 646 0052 9847     		blx	r3
 647              	.LVL54:
 362:lib/STM32_USB_Device_Library/Core/Src/usbd_core.c ****         }
 648              		.loc 1 362 11 is_stmt 0 view .LVU184
 649 0054 EDE7     		b	.L46
 650              	.LVL55:
 651              	.L43:
 381:lib/STM32_USB_Device_Library/Core/Src/usbd_core.c ****            (pdev->dev_state == USBD_STATE_CONFIGURED))
 652              		.loc 1 381 8 is_stmt 1 view .LVU185
 381:lib/STM32_USB_Device_Library/Core/Src/usbd_core.c ****            (pdev->dev_state == USBD_STATE_CONFIGURED))
 653              		.loc 1 381 17 is_stmt 0 view .LVU186
 654 0056 D0F8B832 		ldr	r3, [r0, #696]
 381:lib/STM32_USB_Device_Library/Core/Src/usbd_core.c ****            (pdev->dev_state == USBD_STATE_CONFIGURED))
 655              		.loc 1 381 25 view .LVU187
 656 005a 9B69     		ldr	r3, [r3, #24]
 381:lib/STM32_USB_Device_Library/Core/Src/usbd_core.c ****            (pdev->dev_state == USBD_STATE_CONFIGURED))
 657              		.loc 1 381 11 view .LVU188
 658 005c 2BB1     		cbz	r3, .L48
 382:lib/STM32_USB_Device_Library/Core/Src/usbd_core.c ****   {
 659              		.loc 1 382 17 discriminator 1 view .LVU189
ARM GAS  C:\Users\BIGBIG~1\AppData\Local\Temp\ccluI8kH.s 			page 20


 660 005e 90F89C22 		ldrb	r2, [r0, #668]	@ zero_extendqisi2
 661              	.LVL56:
 381:lib/STM32_USB_Device_Library/Core/Src/usbd_core.c ****            (pdev->dev_state == USBD_STATE_CONFIGURED))
 662              		.loc 1 381 44 discriminator 1 view .LVU190
 663 0062 032A     		cmp	r2, #3
 664 0064 03D1     		bne	.L49
 384:lib/STM32_USB_Device_Library/Core/Src/usbd_core.c **** 
 665              		.loc 1 384 5 is_stmt 1 view .LVU191
 384:lib/STM32_USB_Device_Library/Core/Src/usbd_core.c **** 
 666              		.loc 1 384 31 is_stmt 0 view .LVU192
 667 0066 9847     		blx	r3
 668              	.LVL57:
 386:lib/STM32_USB_Device_Library/Core/Src/usbd_core.c ****     {
 669              		.loc 1 386 5 is_stmt 1 view .LVU193
 670 0068 D4E7     		b	.L44
 671              	.LVL58:
 672              	.L48:
 394:lib/STM32_USB_Device_Library/Core/Src/usbd_core.c ****   }
 673              		.loc 1 394 12 is_stmt 0 view .LVU194
 674 006a 0320     		movs	r0, #3
 675              	.LVL59:
 394:lib/STM32_USB_Device_Library/Core/Src/usbd_core.c ****   }
 676              		.loc 1 394 12 view .LVU195
 677 006c D2E7     		b	.L44
 678              	.LVL60:
 679              	.L49:
 394:lib/STM32_USB_Device_Library/Core/Src/usbd_core.c ****   }
 680              		.loc 1 394 12 view .LVU196
 681 006e 0320     		movs	r0, #3
 682              	.LVL61:
 394:lib/STM32_USB_Device_Library/Core/Src/usbd_core.c ****   }
 683              		.loc 1 394 12 view .LVU197
 684 0070 D0E7     		b	.L44
 685              		.cfi_endproc
 686              	.LFE154:
 688              		.section	.text.USBD_LL_DataInStage,"ax",%progbits
 689              		.align	1
 690              		.global	USBD_LL_DataInStage
 691              		.syntax unified
 692              		.thumb
 693              		.thumb_func
 694              		.fpu fpv5-d16
 696              	USBD_LL_DataInStage:
 697              	.LVL62:
 698              	.LFB155:
 399:lib/STM32_USB_Device_Library/Core/Src/usbd_core.c **** 
 400:lib/STM32_USB_Device_Library/Core/Src/usbd_core.c **** /**
 401:lib/STM32_USB_Device_Library/Core/Src/usbd_core.c **** * @brief  USBD_DataInStage
 402:lib/STM32_USB_Device_Library/Core/Src/usbd_core.c **** *         Handle data in stage
 403:lib/STM32_USB_Device_Library/Core/Src/usbd_core.c **** * @param  pdev: device instance
 404:lib/STM32_USB_Device_Library/Core/Src/usbd_core.c **** * @param  epnum: endpoint index
 405:lib/STM32_USB_Device_Library/Core/Src/usbd_core.c **** * @retval status
 406:lib/STM32_USB_Device_Library/Core/Src/usbd_core.c **** */
 407:lib/STM32_USB_Device_Library/Core/Src/usbd_core.c **** USBD_StatusTypeDef USBD_LL_DataInStage(USBD_HandleTypeDef *pdev,
 408:lib/STM32_USB_Device_Library/Core/Src/usbd_core.c ****                                        uint8_t epnum, uint8_t *pdata)
 409:lib/STM32_USB_Device_Library/Core/Src/usbd_core.c **** {
 699              		.loc 1 409 1 is_stmt 1 view -0
ARM GAS  C:\Users\BIGBIG~1\AppData\Local\Temp\ccluI8kH.s 			page 21


 700              		.cfi_startproc
 701              		@ args = 0, pretend = 0, frame = 0
 702              		@ frame_needed = 0, uses_anonymous_args = 0
 703              		.loc 1 409 1 is_stmt 0 view .LVU199
 704 0000 38B5     		push	{r3, r4, r5, lr}
 705              	.LCFI13:
 706              		.cfi_def_cfa_offset 16
 707              		.cfi_offset 3, -16
 708              		.cfi_offset 4, -12
 709              		.cfi_offset 5, -8
 710              		.cfi_offset 14, -4
 711 0002 0446     		mov	r4, r0
 410:lib/STM32_USB_Device_Library/Core/Src/usbd_core.c ****   USBD_EndpointTypeDef *pep;
 712              		.loc 1 410 3 is_stmt 1 view .LVU200
 411:lib/STM32_USB_Device_Library/Core/Src/usbd_core.c ****   USBD_StatusTypeDef ret;
 713              		.loc 1 411 3 view .LVU201
 412:lib/STM32_USB_Device_Library/Core/Src/usbd_core.c **** 
 413:lib/STM32_USB_Device_Library/Core/Src/usbd_core.c ****   if (epnum == 0U)
 714              		.loc 1 413 3 view .LVU202
 715              		.loc 1 413 6 is_stmt 0 view .LVU203
 716 0004 0D46     		mov	r5, r1
 717 0006 0029     		cmp	r1, #0
 718 0008 48D1     		bne	.L55
 719 000a 1346     		mov	r3, r2
 414:lib/STM32_USB_Device_Library/Core/Src/usbd_core.c ****   {
 415:lib/STM32_USB_Device_Library/Core/Src/usbd_core.c ****     pep = &pdev->ep_in[0];
 720              		.loc 1 415 5 is_stmt 1 view .LVU204
 721              	.LVL63:
 416:lib/STM32_USB_Device_Library/Core/Src/usbd_core.c **** 
 417:lib/STM32_USB_Device_Library/Core/Src/usbd_core.c ****     if (pdev->ep0_state == USBD_EP0_DATA_IN)
 722              		.loc 1 417 5 view .LVU205
 723              		.loc 1 417 13 is_stmt 0 view .LVU206
 724 000c D0F89422 		ldr	r2, [r0, #660]
 725              	.LVL64:
 726              		.loc 1 417 8 view .LVU207
 727 0010 022A     		cmp	r2, #2
 728 0012 05D0     		beq	.L65
 729              	.LVL65:
 730              	.L56:
 418:lib/STM32_USB_Device_Library/Core/Src/usbd_core.c ****     {
 419:lib/STM32_USB_Device_Library/Core/Src/usbd_core.c ****       if (pep->rem_length > pep->maxpacket)
 420:lib/STM32_USB_Device_Library/Core/Src/usbd_core.c ****       {
 421:lib/STM32_USB_Device_Library/Core/Src/usbd_core.c ****         pep->rem_length -= pep->maxpacket;
 422:lib/STM32_USB_Device_Library/Core/Src/usbd_core.c **** 
 423:lib/STM32_USB_Device_Library/Core/Src/usbd_core.c ****         (void)USBD_CtlContinueSendData(pdev, pdata, pep->rem_length);
 424:lib/STM32_USB_Device_Library/Core/Src/usbd_core.c **** 
 425:lib/STM32_USB_Device_Library/Core/Src/usbd_core.c ****         /* Prepare endpoint for premature end of transfer */
 426:lib/STM32_USB_Device_Library/Core/Src/usbd_core.c ****        (void)USBD_LL_PrepareReceive(pdev, 0U, NULL, 0U);
 427:lib/STM32_USB_Device_Library/Core/Src/usbd_core.c ****       }
 428:lib/STM32_USB_Device_Library/Core/Src/usbd_core.c ****       else
 429:lib/STM32_USB_Device_Library/Core/Src/usbd_core.c ****       {
 430:lib/STM32_USB_Device_Library/Core/Src/usbd_core.c ****         /* last packet is MPS multiple, so send ZLP packet */
 431:lib/STM32_USB_Device_Library/Core/Src/usbd_core.c ****         if ((pep->maxpacket == pep->rem_length) &&
 432:lib/STM32_USB_Device_Library/Core/Src/usbd_core.c ****             (pep->total_length >= pep->maxpacket) &&
 433:lib/STM32_USB_Device_Library/Core/Src/usbd_core.c ****             (pep->total_length < pdev->ep0_data_len))
 434:lib/STM32_USB_Device_Library/Core/Src/usbd_core.c ****         {
 435:lib/STM32_USB_Device_Library/Core/Src/usbd_core.c ****           (void)USBD_CtlContinueSendData(pdev, NULL, 0U);
ARM GAS  C:\Users\BIGBIG~1\AppData\Local\Temp\ccluI8kH.s 			page 22


 436:lib/STM32_USB_Device_Library/Core/Src/usbd_core.c ****           pdev->ep0_data_len = 0U;
 437:lib/STM32_USB_Device_Library/Core/Src/usbd_core.c **** 
 438:lib/STM32_USB_Device_Library/Core/Src/usbd_core.c ****           /* Prepare endpoint for premature end of transfer */
 439:lib/STM32_USB_Device_Library/Core/Src/usbd_core.c ****           (void)USBD_LL_PrepareReceive(pdev, 0U, NULL, 0U);
 440:lib/STM32_USB_Device_Library/Core/Src/usbd_core.c ****         }
 441:lib/STM32_USB_Device_Library/Core/Src/usbd_core.c ****         else
 442:lib/STM32_USB_Device_Library/Core/Src/usbd_core.c ****         {
 443:lib/STM32_USB_Device_Library/Core/Src/usbd_core.c ****           if ((pdev->pClass->EP0_TxSent != NULL) &&
 444:lib/STM32_USB_Device_Library/Core/Src/usbd_core.c ****               (pdev->dev_state == USBD_STATE_CONFIGURED))
 445:lib/STM32_USB_Device_Library/Core/Src/usbd_core.c ****           {
 446:lib/STM32_USB_Device_Library/Core/Src/usbd_core.c ****             pdev->pClass->EP0_TxSent(pdev);
 447:lib/STM32_USB_Device_Library/Core/Src/usbd_core.c ****           }
 448:lib/STM32_USB_Device_Library/Core/Src/usbd_core.c ****           (void)USBD_LL_StallEP(pdev, 0x80U);
 449:lib/STM32_USB_Device_Library/Core/Src/usbd_core.c ****           (void)USBD_CtlReceiveStatus(pdev);
 450:lib/STM32_USB_Device_Library/Core/Src/usbd_core.c ****         }
 451:lib/STM32_USB_Device_Library/Core/Src/usbd_core.c ****       }
 452:lib/STM32_USB_Device_Library/Core/Src/usbd_core.c ****     }
 453:lib/STM32_USB_Device_Library/Core/Src/usbd_core.c ****     else
 454:lib/STM32_USB_Device_Library/Core/Src/usbd_core.c ****     {
 455:lib/STM32_USB_Device_Library/Core/Src/usbd_core.c **** #if 0
 456:lib/STM32_USB_Device_Library/Core/Src/usbd_core.c ****       if ((pdev->ep0_state == USBD_EP0_STATUS_IN) ||
 457:lib/STM32_USB_Device_Library/Core/Src/usbd_core.c ****           (pdev->ep0_state == USBD_EP0_IDLE))
 458:lib/STM32_USB_Device_Library/Core/Src/usbd_core.c ****       {
 459:lib/STM32_USB_Device_Library/Core/Src/usbd_core.c ****         (void)USBD_LL_StallEP(pdev, 0x80U);
 460:lib/STM32_USB_Device_Library/Core/Src/usbd_core.c ****       }
 461:lib/STM32_USB_Device_Library/Core/Src/usbd_core.c **** #endif
 462:lib/STM32_USB_Device_Library/Core/Src/usbd_core.c ****     }
 731              		.loc 1 462 5 is_stmt 1 view .LVU208
 463:lib/STM32_USB_Device_Library/Core/Src/usbd_core.c **** 
 464:lib/STM32_USB_Device_Library/Core/Src/usbd_core.c ****     if (pdev->dev_test_mode == 1U)
 732              		.loc 1 464 5 view .LVU209
 733              		.loc 1 464 13 is_stmt 0 view .LVU210
 734 0014 94F8A032 		ldrb	r3, [r4, #672]	@ zero_extendqisi2
 735              		.loc 1 464 8 view .LVU211
 736 0018 012B     		cmp	r3, #1
 737 001a 3AD0     		beq	.L66
 465:lib/STM32_USB_Device_Library/Core/Src/usbd_core.c ****     {
 466:lib/STM32_USB_Device_Library/Core/Src/usbd_core.c ****       (void)USBD_RunTestMode(pdev);
 467:lib/STM32_USB_Device_Library/Core/Src/usbd_core.c ****       pdev->dev_test_mode = 0U;
 468:lib/STM32_USB_Device_Library/Core/Src/usbd_core.c ****     }
 469:lib/STM32_USB_Device_Library/Core/Src/usbd_core.c ****   }
 470:lib/STM32_USB_Device_Library/Core/Src/usbd_core.c ****   else if ((pdev->pClass->DataIn != NULL) &&
 471:lib/STM32_USB_Device_Library/Core/Src/usbd_core.c ****            (pdev->dev_state == USBD_STATE_CONFIGURED))
 472:lib/STM32_USB_Device_Library/Core/Src/usbd_core.c ****   {
 473:lib/STM32_USB_Device_Library/Core/Src/usbd_core.c ****     ret = (USBD_StatusTypeDef)pdev->pClass->DataIn(pdev, epnum);
 474:lib/STM32_USB_Device_Library/Core/Src/usbd_core.c **** 
 475:lib/STM32_USB_Device_Library/Core/Src/usbd_core.c ****     if (ret != USBD_OK)
 476:lib/STM32_USB_Device_Library/Core/Src/usbd_core.c ****     {
 477:lib/STM32_USB_Device_Library/Core/Src/usbd_core.c ****       return ret;
 478:lib/STM32_USB_Device_Library/Core/Src/usbd_core.c ****     }
 479:lib/STM32_USB_Device_Library/Core/Src/usbd_core.c ****   }
 480:lib/STM32_USB_Device_Library/Core/Src/usbd_core.c ****   else
 481:lib/STM32_USB_Device_Library/Core/Src/usbd_core.c ****   {
 482:lib/STM32_USB_Device_Library/Core/Src/usbd_core.c ****     /* should never be in this condition */
 483:lib/STM32_USB_Device_Library/Core/Src/usbd_core.c ****     return USBD_FAIL;
 484:lib/STM32_USB_Device_Library/Core/Src/usbd_core.c ****   }
 485:lib/STM32_USB_Device_Library/Core/Src/usbd_core.c **** 
ARM GAS  C:\Users\BIGBIG~1\AppData\Local\Temp\ccluI8kH.s 			page 23


 486:lib/STM32_USB_Device_Library/Core/Src/usbd_core.c ****   return USBD_OK;
 738              		.loc 1 486 10 view .LVU212
 739 001c 2846     		mov	r0, r5
 740              	.LVL66:
 741              	.L60:
 487:lib/STM32_USB_Device_Library/Core/Src/usbd_core.c **** }
 742              		.loc 1 487 1 view .LVU213
 743 001e 38BD     		pop	{r3, r4, r5, pc}
 744              	.LVL67:
 745              	.L65:
 419:lib/STM32_USB_Device_Library/Core/Src/usbd_core.c ****       {
 746              		.loc 1 419 7 is_stmt 1 view .LVU214
 419:lib/STM32_USB_Device_Library/Core/Src/usbd_core.c ****       {
 747              		.loc 1 419 14 is_stmt 0 view .LVU215
 748 0020 C269     		ldr	r2, [r0, #28]
 419:lib/STM32_USB_Device_Library/Core/Src/usbd_core.c ****       {
 749              		.loc 1 419 32 view .LVU216
 750 0022 016A     		ldr	r1, [r0, #32]
 751              	.LVL68:
 419:lib/STM32_USB_Device_Library/Core/Src/usbd_core.c ****       {
 752              		.loc 1 419 10 view .LVU217
 753 0024 8A42     		cmp	r2, r1
 754 0026 11D8     		bhi	.L67
 431:lib/STM32_USB_Device_Library/Core/Src/usbd_core.c ****             (pep->total_length >= pep->maxpacket) &&
 755              		.loc 1 431 9 is_stmt 1 view .LVU218
 431:lib/STM32_USB_Device_Library/Core/Src/usbd_core.c ****             (pep->total_length >= pep->maxpacket) &&
 756              		.loc 1 431 12 is_stmt 0 view .LVU219
 757 0028 8A42     		cmp	r2, r1
 758 002a 1BD0     		beq	.L68
 759              	.LVL69:
 760              	.L58:
 443:lib/STM32_USB_Device_Library/Core/Src/usbd_core.c ****               (pdev->dev_state == USBD_STATE_CONFIGURED))
 761              		.loc 1 443 11 is_stmt 1 view .LVU220
 443:lib/STM32_USB_Device_Library/Core/Src/usbd_core.c ****               (pdev->dev_state == USBD_STATE_CONFIGURED))
 762              		.loc 1 443 20 is_stmt 0 view .LVU221
 763 002c D4F8B832 		ldr	r3, [r4, #696]
 443:lib/STM32_USB_Device_Library/Core/Src/usbd_core.c ****               (pdev->dev_state == USBD_STATE_CONFIGURED))
 764              		.loc 1 443 28 view .LVU222
 765 0030 DB68     		ldr	r3, [r3, #12]
 443:lib/STM32_USB_Device_Library/Core/Src/usbd_core.c ****               (pdev->dev_state == USBD_STATE_CONFIGURED))
 766              		.loc 1 443 14 view .LVU223
 767 0032 1BB1     		cbz	r3, .L59
 444:lib/STM32_USB_Device_Library/Core/Src/usbd_core.c ****           {
 768              		.loc 1 444 20 discriminator 1 view .LVU224
 769 0034 94F89C22 		ldrb	r2, [r4, #668]	@ zero_extendqisi2
 443:lib/STM32_USB_Device_Library/Core/Src/usbd_core.c ****               (pdev->dev_state == USBD_STATE_CONFIGURED))
 770              		.loc 1 443 50 discriminator 1 view .LVU225
 771 0038 032A     		cmp	r2, #3
 772 003a 27D0     		beq	.L69
 773              	.LVL70:
 774              	.L59:
 448:lib/STM32_USB_Device_Library/Core/Src/usbd_core.c ****           (void)USBD_CtlReceiveStatus(pdev);
 775              		.loc 1 448 11 is_stmt 1 view .LVU226
 448:lib/STM32_USB_Device_Library/Core/Src/usbd_core.c ****           (void)USBD_CtlReceiveStatus(pdev);
 776              		.loc 1 448 17 is_stmt 0 view .LVU227
 777 003c 8021     		movs	r1, #128
 778 003e 2046     		mov	r0, r4
ARM GAS  C:\Users\BIGBIG~1\AppData\Local\Temp\ccluI8kH.s 			page 24


 779 0040 FFF7FEFF 		bl	USBD_LL_StallEP
 780              	.LVL71:
 449:lib/STM32_USB_Device_Library/Core/Src/usbd_core.c ****         }
 781              		.loc 1 449 11 is_stmt 1 view .LVU228
 449:lib/STM32_USB_Device_Library/Core/Src/usbd_core.c ****         }
 782              		.loc 1 449 17 is_stmt 0 view .LVU229
 783 0044 2046     		mov	r0, r4
 784 0046 FFF7FEFF 		bl	USBD_CtlReceiveStatus
 785              	.LVL72:
 786 004a E3E7     		b	.L56
 787              	.LVL73:
 788              	.L67:
 421:lib/STM32_USB_Device_Library/Core/Src/usbd_core.c **** 
 789              		.loc 1 421 9 is_stmt 1 view .LVU230
 421:lib/STM32_USB_Device_Library/Core/Src/usbd_core.c **** 
 790              		.loc 1 421 25 is_stmt 0 view .LVU231
 791 004c 521A     		subs	r2, r2, r1
 792 004e C261     		str	r2, [r0, #28]
 423:lib/STM32_USB_Device_Library/Core/Src/usbd_core.c **** 
 793              		.loc 1 423 9 is_stmt 1 view .LVU232
 423:lib/STM32_USB_Device_Library/Core/Src/usbd_core.c **** 
 794              		.loc 1 423 15 is_stmt 0 view .LVU233
 795 0050 1946     		mov	r1, r3
 796 0052 FFF7FEFF 		bl	USBD_CtlContinueSendData
 797              	.LVL74:
 426:lib/STM32_USB_Device_Library/Core/Src/usbd_core.c ****       }
 798              		.loc 1 426 8 is_stmt 1 view .LVU234
 426:lib/STM32_USB_Device_Library/Core/Src/usbd_core.c ****       }
 799              		.loc 1 426 14 is_stmt 0 view .LVU235
 800 0056 0023     		movs	r3, #0
 801 0058 1A46     		mov	r2, r3
 802 005a 1946     		mov	r1, r3
 803 005c 2046     		mov	r0, r4
 804 005e FFF7FEFF 		bl	USBD_LL_PrepareReceive
 805              	.LVL75:
 806 0062 D7E7     		b	.L56
 807              	.LVL76:
 808              	.L68:
 432:lib/STM32_USB_Device_Library/Core/Src/usbd_core.c ****             (pep->total_length < pdev->ep0_data_len))
 809              		.loc 1 432 17 discriminator 1 view .LVU236
 810 0064 8369     		ldr	r3, [r0, #24]
 811              	.LVL77:
 431:lib/STM32_USB_Device_Library/Core/Src/usbd_core.c ****             (pep->total_length >= pep->maxpacket) &&
 812              		.loc 1 431 49 discriminator 1 view .LVU237
 813 0066 9942     		cmp	r1, r3
 814 0068 E0D8     		bhi	.L58
 433:lib/STM32_USB_Device_Library/Core/Src/usbd_core.c ****         {
 815              		.loc 1 433 38 view .LVU238
 816 006a D0F89822 		ldr	r2, [r0, #664]
 432:lib/STM32_USB_Device_Library/Core/Src/usbd_core.c ****             (pep->total_length < pdev->ep0_data_len))
 817              		.loc 1 432 51 view .LVU239
 818 006e 9342     		cmp	r3, r2
 819 0070 DCD2     		bcs	.L58
 435:lib/STM32_USB_Device_Library/Core/Src/usbd_core.c ****           pdev->ep0_data_len = 0U;
 820              		.loc 1 435 11 is_stmt 1 view .LVU240
 435:lib/STM32_USB_Device_Library/Core/Src/usbd_core.c ****           pdev->ep0_data_len = 0U;
 821              		.loc 1 435 17 is_stmt 0 view .LVU241
ARM GAS  C:\Users\BIGBIG~1\AppData\Local\Temp\ccluI8kH.s 			page 25


 822 0072 0022     		movs	r2, #0
 823 0074 1146     		mov	r1, r2
 824 0076 FFF7FEFF 		bl	USBD_CtlContinueSendData
 825              	.LVL78:
 436:lib/STM32_USB_Device_Library/Core/Src/usbd_core.c **** 
 826              		.loc 1 436 11 is_stmt 1 view .LVU242
 436:lib/STM32_USB_Device_Library/Core/Src/usbd_core.c **** 
 827              		.loc 1 436 30 is_stmt 0 view .LVU243
 828 007a 0021     		movs	r1, #0
 829 007c C4F89812 		str	r1, [r4, #664]
 439:lib/STM32_USB_Device_Library/Core/Src/usbd_core.c ****         }
 830              		.loc 1 439 11 is_stmt 1 view .LVU244
 439:lib/STM32_USB_Device_Library/Core/Src/usbd_core.c ****         }
 831              		.loc 1 439 17 is_stmt 0 view .LVU245
 832 0080 0B46     		mov	r3, r1
 833 0082 0A46     		mov	r2, r1
 834 0084 2046     		mov	r0, r4
 835 0086 FFF7FEFF 		bl	USBD_LL_PrepareReceive
 836              	.LVL79:
 439:lib/STM32_USB_Device_Library/Core/Src/usbd_core.c ****         }
 837              		.loc 1 439 11 view .LVU246
 838 008a C3E7     		b	.L56
 839              	.LVL80:
 840              	.L69:
 446:lib/STM32_USB_Device_Library/Core/Src/usbd_core.c ****           }
 841              		.loc 1 446 13 is_stmt 1 view .LVU247
 842 008c 2046     		mov	r0, r4
 843              	.LVL81:
 446:lib/STM32_USB_Device_Library/Core/Src/usbd_core.c ****           }
 844              		.loc 1 446 13 is_stmt 0 view .LVU248
 845 008e 9847     		blx	r3
 846              	.LVL82:
 847 0090 D4E7     		b	.L59
 848              	.L66:
 466:lib/STM32_USB_Device_Library/Core/Src/usbd_core.c ****       pdev->dev_test_mode = 0U;
 849              		.loc 1 466 7 is_stmt 1 view .LVU249
 467:lib/STM32_USB_Device_Library/Core/Src/usbd_core.c ****     }
 850              		.loc 1 467 7 view .LVU250
 467:lib/STM32_USB_Device_Library/Core/Src/usbd_core.c ****     }
 851              		.loc 1 467 27 is_stmt 0 view .LVU251
 852 0092 0023     		movs	r3, #0
 853 0094 84F8A032 		strb	r3, [r4, #672]
 486:lib/STM32_USB_Device_Library/Core/Src/usbd_core.c **** }
 854              		.loc 1 486 10 view .LVU252
 855 0098 2846     		mov	r0, r5
 856 009a C0E7     		b	.L60
 857              	.LVL83:
 858              	.L55:
 470:lib/STM32_USB_Device_Library/Core/Src/usbd_core.c ****            (pdev->dev_state == USBD_STATE_CONFIGURED))
 859              		.loc 1 470 8 is_stmt 1 view .LVU253
 470:lib/STM32_USB_Device_Library/Core/Src/usbd_core.c ****            (pdev->dev_state == USBD_STATE_CONFIGURED))
 860              		.loc 1 470 17 is_stmt 0 view .LVU254
 861 009c D0F8B832 		ldr	r3, [r0, #696]
 470:lib/STM32_USB_Device_Library/Core/Src/usbd_core.c ****            (pdev->dev_state == USBD_STATE_CONFIGURED))
 862              		.loc 1 470 25 view .LVU255
 863 00a0 5B69     		ldr	r3, [r3, #20]
 470:lib/STM32_USB_Device_Library/Core/Src/usbd_core.c ****            (pdev->dev_state == USBD_STATE_CONFIGURED))
ARM GAS  C:\Users\BIGBIG~1\AppData\Local\Temp\ccluI8kH.s 			page 26


 864              		.loc 1 470 11 view .LVU256
 865 00a2 2BB1     		cbz	r3, .L62
 471:lib/STM32_USB_Device_Library/Core/Src/usbd_core.c ****   {
 866              		.loc 1 471 17 discriminator 1 view .LVU257
 867 00a4 90F89C22 		ldrb	r2, [r0, #668]	@ zero_extendqisi2
 868              	.LVL84:
 470:lib/STM32_USB_Device_Library/Core/Src/usbd_core.c ****            (pdev->dev_state == USBD_STATE_CONFIGURED))
 869              		.loc 1 470 43 discriminator 1 view .LVU258
 870 00a8 032A     		cmp	r2, #3
 871 00aa 03D1     		bne	.L63
 473:lib/STM32_USB_Device_Library/Core/Src/usbd_core.c **** 
 872              		.loc 1 473 5 is_stmt 1 view .LVU259
 473:lib/STM32_USB_Device_Library/Core/Src/usbd_core.c **** 
 873              		.loc 1 473 31 is_stmt 0 view .LVU260
 874 00ac 9847     		blx	r3
 875              	.LVL85:
 475:lib/STM32_USB_Device_Library/Core/Src/usbd_core.c ****     {
 876              		.loc 1 475 5 is_stmt 1 view .LVU261
 877 00ae B6E7     		b	.L60
 878              	.LVL86:
 879              	.L62:
 483:lib/STM32_USB_Device_Library/Core/Src/usbd_core.c ****   }
 880              		.loc 1 483 12 is_stmt 0 view .LVU262
 881 00b0 0320     		movs	r0, #3
 882              	.LVL87:
 483:lib/STM32_USB_Device_Library/Core/Src/usbd_core.c ****   }
 883              		.loc 1 483 12 view .LVU263
 884 00b2 B4E7     		b	.L60
 885              	.LVL88:
 886              	.L63:
 483:lib/STM32_USB_Device_Library/Core/Src/usbd_core.c ****   }
 887              		.loc 1 483 12 view .LVU264
 888 00b4 0320     		movs	r0, #3
 889              	.LVL89:
 483:lib/STM32_USB_Device_Library/Core/Src/usbd_core.c ****   }
 890              		.loc 1 483 12 view .LVU265
 891 00b6 B2E7     		b	.L60
 892              		.cfi_endproc
 893              	.LFE155:
 895              		.section	.text.USBD_LL_Reset,"ax",%progbits
 896              		.align	1
 897              		.global	USBD_LL_Reset
 898              		.syntax unified
 899              		.thumb
 900              		.thumb_func
 901              		.fpu fpv5-d16
 903              	USBD_LL_Reset:
 904              	.LVL90:
 905              	.LFB156:
 488:lib/STM32_USB_Device_Library/Core/Src/usbd_core.c **** 
 489:lib/STM32_USB_Device_Library/Core/Src/usbd_core.c **** /**
 490:lib/STM32_USB_Device_Library/Core/Src/usbd_core.c **** * @brief  USBD_LL_Reset
 491:lib/STM32_USB_Device_Library/Core/Src/usbd_core.c **** *         Handle Reset event
 492:lib/STM32_USB_Device_Library/Core/Src/usbd_core.c **** * @param  pdev: device instance
 493:lib/STM32_USB_Device_Library/Core/Src/usbd_core.c **** * @retval status
 494:lib/STM32_USB_Device_Library/Core/Src/usbd_core.c **** */
 495:lib/STM32_USB_Device_Library/Core/Src/usbd_core.c **** 
ARM GAS  C:\Users\BIGBIG~1\AppData\Local\Temp\ccluI8kH.s 			page 27


 496:lib/STM32_USB_Device_Library/Core/Src/usbd_core.c **** USBD_StatusTypeDef USBD_LL_Reset(USBD_HandleTypeDef *pdev)
 497:lib/STM32_USB_Device_Library/Core/Src/usbd_core.c **** {
 906              		.loc 1 497 1 is_stmt 1 view -0
 907              		.cfi_startproc
 908              		@ args = 0, pretend = 0, frame = 0
 909              		@ frame_needed = 0, uses_anonymous_args = 0
 910              		.loc 1 497 1 is_stmt 0 view .LVU267
 911 0000 70B5     		push	{r4, r5, r6, lr}
 912              	.LCFI14:
 913              		.cfi_def_cfa_offset 16
 914              		.cfi_offset 4, -16
 915              		.cfi_offset 5, -12
 916              		.cfi_offset 6, -8
 917              		.cfi_offset 14, -4
 918 0002 0446     		mov	r4, r0
 498:lib/STM32_USB_Device_Library/Core/Src/usbd_core.c ****   /* Upon Reset call user call back */
 499:lib/STM32_USB_Device_Library/Core/Src/usbd_core.c ****   pdev->dev_state = USBD_STATE_DEFAULT;
 919              		.loc 1 499 3 is_stmt 1 view .LVU268
 920              		.loc 1 499 19 is_stmt 0 view .LVU269
 921 0004 0123     		movs	r3, #1
 922 0006 80F89C32 		strb	r3, [r0, #668]
 500:lib/STM32_USB_Device_Library/Core/Src/usbd_core.c ****   pdev->ep0_state = USBD_EP0_IDLE;
 923              		.loc 1 500 3 is_stmt 1 view .LVU270
 924              		.loc 1 500 19 is_stmt 0 view .LVU271
 925 000a 0023     		movs	r3, #0
 926 000c C0F89432 		str	r3, [r0, #660]
 501:lib/STM32_USB_Device_Library/Core/Src/usbd_core.c ****   pdev->dev_config = 0U;
 927              		.loc 1 501 3 is_stmt 1 view .LVU272
 928              		.loc 1 501 20 is_stmt 0 view .LVU273
 929 0010 4360     		str	r3, [r0, #4]
 502:lib/STM32_USB_Device_Library/Core/Src/usbd_core.c ****   pdev->dev_remote_wakeup = 0U;
 930              		.loc 1 502 3 is_stmt 1 view .LVU274
 931              		.loc 1 502 27 is_stmt 0 view .LVU275
 932 0012 C0F8A432 		str	r3, [r0, #676]
 503:lib/STM32_USB_Device_Library/Core/Src/usbd_core.c **** 
 504:lib/STM32_USB_Device_Library/Core/Src/usbd_core.c ****   if (pdev->pClassData != NULL)
 933              		.loc 1 504 3 is_stmt 1 view .LVU276
 934              		.loc 1 504 11 is_stmt 0 view .LVU277
 935 0016 D0F8BC32 		ldr	r3, [r0, #700]
 936              		.loc 1 504 6 view .LVU278
 937 001a 23B1     		cbz	r3, .L71
 505:lib/STM32_USB_Device_Library/Core/Src/usbd_core.c ****   {
 506:lib/STM32_USB_Device_Library/Core/Src/usbd_core.c ****     pdev->pClass->DeInit(pdev, (uint8_t)pdev->dev_config);
 938              		.loc 1 506 5 is_stmt 1 view .LVU279
 939              		.loc 1 506 9 is_stmt 0 view .LVU280
 940 001c D0F8B832 		ldr	r3, [r0, #696]
 941              		.loc 1 506 17 view .LVU281
 942 0020 5B68     		ldr	r3, [r3, #4]
 943              		.loc 1 506 5 view .LVU282
 944 0022 0021     		movs	r1, #0
 945 0024 9847     		blx	r3
 946              	.LVL91:
 947              	.L71:
 507:lib/STM32_USB_Device_Library/Core/Src/usbd_core.c ****   }
 508:lib/STM32_USB_Device_Library/Core/Src/usbd_core.c **** 
 509:lib/STM32_USB_Device_Library/Core/Src/usbd_core.c ****     /* Open EP0 OUT */
 510:lib/STM32_USB_Device_Library/Core/Src/usbd_core.c ****   (void)USBD_LL_OpenEP(pdev, 0x00U, USBD_EP_TYPE_CTRL, USB_MAX_EP0_SIZE);
ARM GAS  C:\Users\BIGBIG~1\AppData\Local\Temp\ccluI8kH.s 			page 28


 948              		.loc 1 510 3 is_stmt 1 view .LVU283
 949              		.loc 1 510 9 is_stmt 0 view .LVU284
 950 0026 4023     		movs	r3, #64
 951 0028 0022     		movs	r2, #0
 952 002a 1146     		mov	r1, r2
 953 002c 2046     		mov	r0, r4
 954 002e FFF7FEFF 		bl	USBD_LL_OpenEP
 955              	.LVL92:
 511:lib/STM32_USB_Device_Library/Core/Src/usbd_core.c ****   pdev->ep_out[0x00U & 0xFU].is_used = 1U;
 956              		.loc 1 511 3 is_stmt 1 view .LVU285
 957              		.loc 1 511 38 is_stmt 0 view .LVU286
 958 0032 0126     		movs	r6, #1
 959 0034 A4F86461 		strh	r6, [r4, #356]	@ movhi
 512:lib/STM32_USB_Device_Library/Core/Src/usbd_core.c **** 
 513:lib/STM32_USB_Device_Library/Core/Src/usbd_core.c ****   pdev->ep_out[0].maxpacket = USB_MAX_EP0_SIZE;
 960              		.loc 1 513 3 is_stmt 1 view .LVU287
 961              		.loc 1 513 29 is_stmt 0 view .LVU288
 962 0038 4025     		movs	r5, #64
 963 003a C4F86051 		str	r5, [r4, #352]
 514:lib/STM32_USB_Device_Library/Core/Src/usbd_core.c **** 
 515:lib/STM32_USB_Device_Library/Core/Src/usbd_core.c ****   /* Open EP0 IN */
 516:lib/STM32_USB_Device_Library/Core/Src/usbd_core.c ****   (void)USBD_LL_OpenEP(pdev, 0x80U, USBD_EP_TYPE_CTRL, USB_MAX_EP0_SIZE);
 964              		.loc 1 516 3 is_stmt 1 view .LVU289
 965              		.loc 1 516 9 is_stmt 0 view .LVU290
 966 003e 2B46     		mov	r3, r5
 967 0040 0022     		movs	r2, #0
 968 0042 8021     		movs	r1, #128
 969 0044 2046     		mov	r0, r4
 970 0046 FFF7FEFF 		bl	USBD_LL_OpenEP
 971              	.LVL93:
 517:lib/STM32_USB_Device_Library/Core/Src/usbd_core.c ****   pdev->ep_in[0x80U & 0xFU].is_used = 1U;
 972              		.loc 1 517 3 is_stmt 1 view .LVU291
 973              		.loc 1 517 37 is_stmt 0 view .LVU292
 974 004a A684     		strh	r6, [r4, #36]	@ movhi
 518:lib/STM32_USB_Device_Library/Core/Src/usbd_core.c **** 
 519:lib/STM32_USB_Device_Library/Core/Src/usbd_core.c ****   pdev->ep_in[0].maxpacket = USB_MAX_EP0_SIZE;
 975              		.loc 1 519 3 is_stmt 1 view .LVU293
 976              		.loc 1 519 28 is_stmt 0 view .LVU294
 977 004c 2562     		str	r5, [r4, #32]
 520:lib/STM32_USB_Device_Library/Core/Src/usbd_core.c **** 
 521:lib/STM32_USB_Device_Library/Core/Src/usbd_core.c ****   return USBD_OK;
 978              		.loc 1 521 3 is_stmt 1 view .LVU295
 522:lib/STM32_USB_Device_Library/Core/Src/usbd_core.c **** }
 979              		.loc 1 522 1 is_stmt 0 view .LVU296
 980 004e 0020     		movs	r0, #0
 981 0050 70BD     		pop	{r4, r5, r6, pc}
 982              		.loc 1 522 1 view .LVU297
 983              		.cfi_endproc
 984              	.LFE156:
 986              		.section	.text.USBD_LL_SetSpeed,"ax",%progbits
 987              		.align	1
 988              		.global	USBD_LL_SetSpeed
 989              		.syntax unified
 990              		.thumb
 991              		.thumb_func
 992              		.fpu fpv5-d16
 994              	USBD_LL_SetSpeed:
ARM GAS  C:\Users\BIGBIG~1\AppData\Local\Temp\ccluI8kH.s 			page 29


 995              	.LVL94:
 996              	.LFB157:
 523:lib/STM32_USB_Device_Library/Core/Src/usbd_core.c **** 
 524:lib/STM32_USB_Device_Library/Core/Src/usbd_core.c **** /**
 525:lib/STM32_USB_Device_Library/Core/Src/usbd_core.c **** * @brief  USBD_LL_Reset
 526:lib/STM32_USB_Device_Library/Core/Src/usbd_core.c **** *         Handle Reset event
 527:lib/STM32_USB_Device_Library/Core/Src/usbd_core.c **** * @param  pdev: device instance
 528:lib/STM32_USB_Device_Library/Core/Src/usbd_core.c **** * @retval status
 529:lib/STM32_USB_Device_Library/Core/Src/usbd_core.c **** */
 530:lib/STM32_USB_Device_Library/Core/Src/usbd_core.c **** USBD_StatusTypeDef USBD_LL_SetSpeed(USBD_HandleTypeDef *pdev,
 531:lib/STM32_USB_Device_Library/Core/Src/usbd_core.c ****                                     USBD_SpeedTypeDef speed)
 532:lib/STM32_USB_Device_Library/Core/Src/usbd_core.c **** {
 997              		.loc 1 532 1 is_stmt 1 view -0
 998              		.cfi_startproc
 999              		@ args = 0, pretend = 0, frame = 0
 1000              		@ frame_needed = 0, uses_anonymous_args = 0
 1001              		@ link register save eliminated.
 533:lib/STM32_USB_Device_Library/Core/Src/usbd_core.c ****   pdev->dev_speed = speed;
 1002              		.loc 1 533 3 view .LVU299
 1003              		.loc 1 533 19 is_stmt 0 view .LVU300
 1004 0000 0174     		strb	r1, [r0, #16]
 534:lib/STM32_USB_Device_Library/Core/Src/usbd_core.c **** 
 535:lib/STM32_USB_Device_Library/Core/Src/usbd_core.c ****   return USBD_OK;
 1005              		.loc 1 535 3 is_stmt 1 view .LVU301
 536:lib/STM32_USB_Device_Library/Core/Src/usbd_core.c **** }
 1006              		.loc 1 536 1 is_stmt 0 view .LVU302
 1007 0002 0020     		movs	r0, #0
 1008              	.LVL95:
 1009              		.loc 1 536 1 view .LVU303
 1010 0004 7047     		bx	lr
 1011              		.cfi_endproc
 1012              	.LFE157:
 1014              		.section	.text.USBD_LL_Suspend,"ax",%progbits
 1015              		.align	1
 1016              		.global	USBD_LL_Suspend
 1017              		.syntax unified
 1018              		.thumb
 1019              		.thumb_func
 1020              		.fpu fpv5-d16
 1022              	USBD_LL_Suspend:
 1023              	.LVL96:
 1024              	.LFB158:
 537:lib/STM32_USB_Device_Library/Core/Src/usbd_core.c **** 
 538:lib/STM32_USB_Device_Library/Core/Src/usbd_core.c **** /**
 539:lib/STM32_USB_Device_Library/Core/Src/usbd_core.c **** * @brief  USBD_Suspend
 540:lib/STM32_USB_Device_Library/Core/Src/usbd_core.c **** *         Handle Suspend event
 541:lib/STM32_USB_Device_Library/Core/Src/usbd_core.c **** * @param  pdev: device instance
 542:lib/STM32_USB_Device_Library/Core/Src/usbd_core.c **** * @retval status
 543:lib/STM32_USB_Device_Library/Core/Src/usbd_core.c **** */
 544:lib/STM32_USB_Device_Library/Core/Src/usbd_core.c **** 
 545:lib/STM32_USB_Device_Library/Core/Src/usbd_core.c **** USBD_StatusTypeDef USBD_LL_Suspend(USBD_HandleTypeDef *pdev)
 546:lib/STM32_USB_Device_Library/Core/Src/usbd_core.c **** {
 1025              		.loc 1 546 1 is_stmt 1 view -0
 1026              		.cfi_startproc
 1027              		@ args = 0, pretend = 0, frame = 0
 1028              		@ frame_needed = 0, uses_anonymous_args = 0
 1029              		@ link register save eliminated.
ARM GAS  C:\Users\BIGBIG~1\AppData\Local\Temp\ccluI8kH.s 			page 30


 547:lib/STM32_USB_Device_Library/Core/Src/usbd_core.c ****   pdev->dev_old_state = pdev->dev_state;
 1030              		.loc 1 547 3 view .LVU305
 1031              		.loc 1 547 29 is_stmt 0 view .LVU306
 1032 0000 90F89C32 		ldrb	r3, [r0, #668]	@ zero_extendqisi2
 1033              		.loc 1 547 23 view .LVU307
 1034 0004 80F89D32 		strb	r3, [r0, #669]
 548:lib/STM32_USB_Device_Library/Core/Src/usbd_core.c ****   pdev->dev_state = USBD_STATE_SUSPENDED;
 1035              		.loc 1 548 3 is_stmt 1 view .LVU308
 1036              		.loc 1 548 19 is_stmt 0 view .LVU309
 1037 0008 0423     		movs	r3, #4
 1038 000a 80F89C32 		strb	r3, [r0, #668]
 549:lib/STM32_USB_Device_Library/Core/Src/usbd_core.c **** 
 550:lib/STM32_USB_Device_Library/Core/Src/usbd_core.c ****   return USBD_OK;
 1039              		.loc 1 550 3 is_stmt 1 view .LVU310
 551:lib/STM32_USB_Device_Library/Core/Src/usbd_core.c **** }
 1040              		.loc 1 551 1 is_stmt 0 view .LVU311
 1041 000e 0020     		movs	r0, #0
 1042              	.LVL97:
 1043              		.loc 1 551 1 view .LVU312
 1044 0010 7047     		bx	lr
 1045              		.cfi_endproc
 1046              	.LFE158:
 1048              		.section	.text.USBD_LL_Resume,"ax",%progbits
 1049              		.align	1
 1050              		.global	USBD_LL_Resume
 1051              		.syntax unified
 1052              		.thumb
 1053              		.thumb_func
 1054              		.fpu fpv5-d16
 1056              	USBD_LL_Resume:
 1057              	.LVL98:
 1058              	.LFB159:
 552:lib/STM32_USB_Device_Library/Core/Src/usbd_core.c **** 
 553:lib/STM32_USB_Device_Library/Core/Src/usbd_core.c **** /**
 554:lib/STM32_USB_Device_Library/Core/Src/usbd_core.c **** * @brief  USBD_Resume
 555:lib/STM32_USB_Device_Library/Core/Src/usbd_core.c **** *         Handle Resume event
 556:lib/STM32_USB_Device_Library/Core/Src/usbd_core.c **** * @param  pdev: device instance
 557:lib/STM32_USB_Device_Library/Core/Src/usbd_core.c **** * @retval status
 558:lib/STM32_USB_Device_Library/Core/Src/usbd_core.c **** */
 559:lib/STM32_USB_Device_Library/Core/Src/usbd_core.c **** 
 560:lib/STM32_USB_Device_Library/Core/Src/usbd_core.c **** USBD_StatusTypeDef USBD_LL_Resume(USBD_HandleTypeDef *pdev)
 561:lib/STM32_USB_Device_Library/Core/Src/usbd_core.c **** {
 1059              		.loc 1 561 1 is_stmt 1 view -0
 1060              		.cfi_startproc
 1061              		@ args = 0, pretend = 0, frame = 0
 1062              		@ frame_needed = 0, uses_anonymous_args = 0
 1063              		@ link register save eliminated.
 562:lib/STM32_USB_Device_Library/Core/Src/usbd_core.c ****   if (pdev->dev_state == USBD_STATE_SUSPENDED)
 1064              		.loc 1 562 3 view .LVU314
 1065              		.loc 1 562 11 is_stmt 0 view .LVU315
 1066 0000 90F89C32 		ldrb	r3, [r0, #668]	@ zero_extendqisi2
 1067              		.loc 1 562 6 view .LVU316
 1068 0004 042B     		cmp	r3, #4
 1069 0006 01D0     		beq	.L77
 1070              	.L76:
 563:lib/STM32_USB_Device_Library/Core/Src/usbd_core.c ****   {
 564:lib/STM32_USB_Device_Library/Core/Src/usbd_core.c ****     pdev->dev_state = pdev->dev_old_state;
ARM GAS  C:\Users\BIGBIG~1\AppData\Local\Temp\ccluI8kH.s 			page 31


 565:lib/STM32_USB_Device_Library/Core/Src/usbd_core.c ****   }
 566:lib/STM32_USB_Device_Library/Core/Src/usbd_core.c **** 
 567:lib/STM32_USB_Device_Library/Core/Src/usbd_core.c ****   return USBD_OK;
 1071              		.loc 1 567 3 is_stmt 1 view .LVU317
 568:lib/STM32_USB_Device_Library/Core/Src/usbd_core.c **** }
 1072              		.loc 1 568 1 is_stmt 0 view .LVU318
 1073 0008 0020     		movs	r0, #0
 1074              	.LVL99:
 1075              		.loc 1 568 1 view .LVU319
 1076 000a 7047     		bx	lr
 1077              	.LVL100:
 1078              	.L77:
 564:lib/STM32_USB_Device_Library/Core/Src/usbd_core.c ****   }
 1079              		.loc 1 564 5 is_stmt 1 view .LVU320
 564:lib/STM32_USB_Device_Library/Core/Src/usbd_core.c ****   }
 1080              		.loc 1 564 27 is_stmt 0 view .LVU321
 1081 000c 90F89D32 		ldrb	r3, [r0, #669]	@ zero_extendqisi2
 564:lib/STM32_USB_Device_Library/Core/Src/usbd_core.c ****   }
 1082              		.loc 1 564 21 view .LVU322
 1083 0010 80F89C32 		strb	r3, [r0, #668]
 1084 0014 F8E7     		b	.L76
 1085              		.cfi_endproc
 1086              	.LFE159:
 1088              		.section	.text.USBD_LL_SOF,"ax",%progbits
 1089              		.align	1
 1090              		.global	USBD_LL_SOF
 1091              		.syntax unified
 1092              		.thumb
 1093              		.thumb_func
 1094              		.fpu fpv5-d16
 1096              	USBD_LL_SOF:
 1097              	.LVL101:
 1098              	.LFB160:
 569:lib/STM32_USB_Device_Library/Core/Src/usbd_core.c **** 
 570:lib/STM32_USB_Device_Library/Core/Src/usbd_core.c **** /**
 571:lib/STM32_USB_Device_Library/Core/Src/usbd_core.c **** * @brief  USBD_SOF
 572:lib/STM32_USB_Device_Library/Core/Src/usbd_core.c **** *         Handle SOF event
 573:lib/STM32_USB_Device_Library/Core/Src/usbd_core.c **** * @param  pdev: device instance
 574:lib/STM32_USB_Device_Library/Core/Src/usbd_core.c **** * @retval status
 575:lib/STM32_USB_Device_Library/Core/Src/usbd_core.c **** */
 576:lib/STM32_USB_Device_Library/Core/Src/usbd_core.c **** 
 577:lib/STM32_USB_Device_Library/Core/Src/usbd_core.c **** USBD_StatusTypeDef USBD_LL_SOF(USBD_HandleTypeDef *pdev)
 578:lib/STM32_USB_Device_Library/Core/Src/usbd_core.c **** {
 1099              		.loc 1 578 1 is_stmt 1 view -0
 1100              		.cfi_startproc
 1101              		@ args = 0, pretend = 0, frame = 0
 1102              		@ frame_needed = 0, uses_anonymous_args = 0
 1103              		.loc 1 578 1 is_stmt 0 view .LVU324
 1104 0000 08B5     		push	{r3, lr}
 1105              	.LCFI15:
 1106              		.cfi_def_cfa_offset 8
 1107              		.cfi_offset 3, -8
 1108              		.cfi_offset 14, -4
 579:lib/STM32_USB_Device_Library/Core/Src/usbd_core.c ****   if (pdev->dev_state == USBD_STATE_CONFIGURED)
 1109              		.loc 1 579 3 is_stmt 1 view .LVU325
 1110              		.loc 1 579 11 is_stmt 0 view .LVU326
 1111 0002 90F89C32 		ldrb	r3, [r0, #668]	@ zero_extendqisi2
ARM GAS  C:\Users\BIGBIG~1\AppData\Local\Temp\ccluI8kH.s 			page 32


 1112              		.loc 1 579 6 view .LVU327
 1113 0006 032B     		cmp	r3, #3
 1114 0008 01D0     		beq	.L81
 1115              	.LVL102:
 1116              	.L79:
 580:lib/STM32_USB_Device_Library/Core/Src/usbd_core.c ****   {
 581:lib/STM32_USB_Device_Library/Core/Src/usbd_core.c ****     if (pdev->pClass->SOF != NULL)
 582:lib/STM32_USB_Device_Library/Core/Src/usbd_core.c ****     {
 583:lib/STM32_USB_Device_Library/Core/Src/usbd_core.c ****       pdev->pClass->SOF(pdev);
 584:lib/STM32_USB_Device_Library/Core/Src/usbd_core.c ****     }
 585:lib/STM32_USB_Device_Library/Core/Src/usbd_core.c ****   }
 586:lib/STM32_USB_Device_Library/Core/Src/usbd_core.c **** 
 587:lib/STM32_USB_Device_Library/Core/Src/usbd_core.c ****   return USBD_OK;
 1117              		.loc 1 587 3 is_stmt 1 view .LVU328
 588:lib/STM32_USB_Device_Library/Core/Src/usbd_core.c **** }
 1118              		.loc 1 588 1 is_stmt 0 view .LVU329
 1119 000a 0020     		movs	r0, #0
 1120 000c 08BD     		pop	{r3, pc}
 1121              	.LVL103:
 1122              	.L81:
 581:lib/STM32_USB_Device_Library/Core/Src/usbd_core.c ****     {
 1123              		.loc 1 581 5 is_stmt 1 view .LVU330
 581:lib/STM32_USB_Device_Library/Core/Src/usbd_core.c ****     {
 1124              		.loc 1 581 13 is_stmt 0 view .LVU331
 1125 000e D0F8B832 		ldr	r3, [r0, #696]
 581:lib/STM32_USB_Device_Library/Core/Src/usbd_core.c ****     {
 1126              		.loc 1 581 21 view .LVU332
 1127 0012 DB69     		ldr	r3, [r3, #28]
 581:lib/STM32_USB_Device_Library/Core/Src/usbd_core.c ****     {
 1128              		.loc 1 581 8 view .LVU333
 1129 0014 002B     		cmp	r3, #0
 1130 0016 F8D0     		beq	.L79
 583:lib/STM32_USB_Device_Library/Core/Src/usbd_core.c ****     }
 1131              		.loc 1 583 7 is_stmt 1 view .LVU334
 1132 0018 9847     		blx	r3
 1133              	.LVL104:
 583:lib/STM32_USB_Device_Library/Core/Src/usbd_core.c ****     }
 1134              		.loc 1 583 7 is_stmt 0 view .LVU335
 1135 001a F6E7     		b	.L79
 1136              		.cfi_endproc
 1137              	.LFE160:
 1139              		.section	.text.USBD_LL_IsoINIncomplete,"ax",%progbits
 1140              		.align	1
 1141              		.global	USBD_LL_IsoINIncomplete
 1142              		.syntax unified
 1143              		.thumb
 1144              		.thumb_func
 1145              		.fpu fpv5-d16
 1147              	USBD_LL_IsoINIncomplete:
 1148              	.LVL105:
 1149              	.LFB161:
 589:lib/STM32_USB_Device_Library/Core/Src/usbd_core.c **** 
 590:lib/STM32_USB_Device_Library/Core/Src/usbd_core.c **** /**
 591:lib/STM32_USB_Device_Library/Core/Src/usbd_core.c **** * @brief  USBD_IsoINIncomplete
 592:lib/STM32_USB_Device_Library/Core/Src/usbd_core.c **** *         Handle iso in incomplete event
 593:lib/STM32_USB_Device_Library/Core/Src/usbd_core.c **** * @param  pdev: device instance
 594:lib/STM32_USB_Device_Library/Core/Src/usbd_core.c **** * @retval status
ARM GAS  C:\Users\BIGBIG~1\AppData\Local\Temp\ccluI8kH.s 			page 33


 595:lib/STM32_USB_Device_Library/Core/Src/usbd_core.c **** */
 596:lib/STM32_USB_Device_Library/Core/Src/usbd_core.c **** USBD_StatusTypeDef USBD_LL_IsoINIncomplete(USBD_HandleTypeDef *pdev,
 597:lib/STM32_USB_Device_Library/Core/Src/usbd_core.c ****                                            uint8_t epnum)
 598:lib/STM32_USB_Device_Library/Core/Src/usbd_core.c **** {
 1150              		.loc 1 598 1 is_stmt 1 view -0
 1151              		.cfi_startproc
 1152              		@ args = 0, pretend = 0, frame = 0
 1153              		@ frame_needed = 0, uses_anonymous_args = 0
 1154              		@ link register save eliminated.
 599:lib/STM32_USB_Device_Library/Core/Src/usbd_core.c ****   /* Prevent unused arguments compilation warning */
 600:lib/STM32_USB_Device_Library/Core/Src/usbd_core.c ****   UNUSED(pdev);
 1155              		.loc 1 600 3 view .LVU337
 601:lib/STM32_USB_Device_Library/Core/Src/usbd_core.c ****   UNUSED(epnum);
 1156              		.loc 1 601 3 view .LVU338
 602:lib/STM32_USB_Device_Library/Core/Src/usbd_core.c **** 
 603:lib/STM32_USB_Device_Library/Core/Src/usbd_core.c ****   return USBD_OK;
 1157              		.loc 1 603 3 view .LVU339
 604:lib/STM32_USB_Device_Library/Core/Src/usbd_core.c **** }
 1158              		.loc 1 604 1 is_stmt 0 view .LVU340
 1159 0000 0020     		movs	r0, #0
 1160              	.LVL106:
 1161              		.loc 1 604 1 view .LVU341
 1162 0002 7047     		bx	lr
 1163              		.cfi_endproc
 1164              	.LFE161:
 1166              		.section	.text.USBD_LL_IsoOUTIncomplete,"ax",%progbits
 1167              		.align	1
 1168              		.global	USBD_LL_IsoOUTIncomplete
 1169              		.syntax unified
 1170              		.thumb
 1171              		.thumb_func
 1172              		.fpu fpv5-d16
 1174              	USBD_LL_IsoOUTIncomplete:
 1175              	.LVL107:
 1176              	.LFB162:
 605:lib/STM32_USB_Device_Library/Core/Src/usbd_core.c **** 
 606:lib/STM32_USB_Device_Library/Core/Src/usbd_core.c **** /**
 607:lib/STM32_USB_Device_Library/Core/Src/usbd_core.c **** * @brief  USBD_IsoOUTIncomplete
 608:lib/STM32_USB_Device_Library/Core/Src/usbd_core.c **** *         Handle iso out incomplete event
 609:lib/STM32_USB_Device_Library/Core/Src/usbd_core.c **** * @param  pdev: device instance
 610:lib/STM32_USB_Device_Library/Core/Src/usbd_core.c **** * @retval status
 611:lib/STM32_USB_Device_Library/Core/Src/usbd_core.c **** */
 612:lib/STM32_USB_Device_Library/Core/Src/usbd_core.c **** USBD_StatusTypeDef USBD_LL_IsoOUTIncomplete(USBD_HandleTypeDef *pdev,
 613:lib/STM32_USB_Device_Library/Core/Src/usbd_core.c ****                                             uint8_t epnum)
 614:lib/STM32_USB_Device_Library/Core/Src/usbd_core.c **** {
 1177              		.loc 1 614 1 is_stmt 1 view -0
 1178              		.cfi_startproc
 1179              		@ args = 0, pretend = 0, frame = 0
 1180              		@ frame_needed = 0, uses_anonymous_args = 0
 1181              		@ link register save eliminated.
 615:lib/STM32_USB_Device_Library/Core/Src/usbd_core.c ****   /* Prevent unused arguments compilation warning */
 616:lib/STM32_USB_Device_Library/Core/Src/usbd_core.c ****   UNUSED(pdev);
 1182              		.loc 1 616 3 view .LVU343
 617:lib/STM32_USB_Device_Library/Core/Src/usbd_core.c ****   UNUSED(epnum);
 1183              		.loc 1 617 3 view .LVU344
 618:lib/STM32_USB_Device_Library/Core/Src/usbd_core.c **** 
 619:lib/STM32_USB_Device_Library/Core/Src/usbd_core.c ****   return USBD_OK;
ARM GAS  C:\Users\BIGBIG~1\AppData\Local\Temp\ccluI8kH.s 			page 34


 1184              		.loc 1 619 3 view .LVU345
 620:lib/STM32_USB_Device_Library/Core/Src/usbd_core.c **** }
 1185              		.loc 1 620 1 is_stmt 0 view .LVU346
 1186 0000 0020     		movs	r0, #0
 1187              	.LVL108:
 1188              		.loc 1 620 1 view .LVU347
 1189 0002 7047     		bx	lr
 1190              		.cfi_endproc
 1191              	.LFE162:
 1193              		.section	.text.USBD_LL_DevConnected,"ax",%progbits
 1194              		.align	1
 1195              		.global	USBD_LL_DevConnected
 1196              		.syntax unified
 1197              		.thumb
 1198              		.thumb_func
 1199              		.fpu fpv5-d16
 1201              	USBD_LL_DevConnected:
 1202              	.LVL109:
 1203              	.LFB163:
 621:lib/STM32_USB_Device_Library/Core/Src/usbd_core.c **** 
 622:lib/STM32_USB_Device_Library/Core/Src/usbd_core.c **** /**
 623:lib/STM32_USB_Device_Library/Core/Src/usbd_core.c **** * @brief  USBD_DevConnected
 624:lib/STM32_USB_Device_Library/Core/Src/usbd_core.c **** *         Handle device connection event
 625:lib/STM32_USB_Device_Library/Core/Src/usbd_core.c **** * @param  pdev: device instance
 626:lib/STM32_USB_Device_Library/Core/Src/usbd_core.c **** * @retval status
 627:lib/STM32_USB_Device_Library/Core/Src/usbd_core.c **** */
 628:lib/STM32_USB_Device_Library/Core/Src/usbd_core.c **** USBD_StatusTypeDef USBD_LL_DevConnected(USBD_HandleTypeDef *pdev)
 629:lib/STM32_USB_Device_Library/Core/Src/usbd_core.c **** {
 1204              		.loc 1 629 1 is_stmt 1 view -0
 1205              		.cfi_startproc
 1206              		@ args = 0, pretend = 0, frame = 0
 1207              		@ frame_needed = 0, uses_anonymous_args = 0
 1208              		@ link register save eliminated.
 630:lib/STM32_USB_Device_Library/Core/Src/usbd_core.c ****   /* Prevent unused argument compilation warning */
 631:lib/STM32_USB_Device_Library/Core/Src/usbd_core.c ****   UNUSED(pdev);
 1209              		.loc 1 631 3 view .LVU349
 632:lib/STM32_USB_Device_Library/Core/Src/usbd_core.c **** 
 633:lib/STM32_USB_Device_Library/Core/Src/usbd_core.c ****   return USBD_OK;
 1210              		.loc 1 633 3 view .LVU350
 634:lib/STM32_USB_Device_Library/Core/Src/usbd_core.c **** }
 1211              		.loc 1 634 1 is_stmt 0 view .LVU351
 1212 0000 0020     		movs	r0, #0
 1213              	.LVL110:
 1214              		.loc 1 634 1 view .LVU352
 1215 0002 7047     		bx	lr
 1216              		.cfi_endproc
 1217              	.LFE163:
 1219              		.section	.text.USBD_LL_DevDisconnected,"ax",%progbits
 1220              		.align	1
 1221              		.global	USBD_LL_DevDisconnected
 1222              		.syntax unified
 1223              		.thumb
 1224              		.thumb_func
 1225              		.fpu fpv5-d16
 1227              	USBD_LL_DevDisconnected:
 1228              	.LVL111:
 1229              	.LFB164:
ARM GAS  C:\Users\BIGBIG~1\AppData\Local\Temp\ccluI8kH.s 			page 35


 635:lib/STM32_USB_Device_Library/Core/Src/usbd_core.c **** 
 636:lib/STM32_USB_Device_Library/Core/Src/usbd_core.c **** /**
 637:lib/STM32_USB_Device_Library/Core/Src/usbd_core.c **** * @brief  USBD_DevDisconnected
 638:lib/STM32_USB_Device_Library/Core/Src/usbd_core.c **** *         Handle device disconnection event
 639:lib/STM32_USB_Device_Library/Core/Src/usbd_core.c **** * @param  pdev: device instance
 640:lib/STM32_USB_Device_Library/Core/Src/usbd_core.c **** * @retval status
 641:lib/STM32_USB_Device_Library/Core/Src/usbd_core.c **** */
 642:lib/STM32_USB_Device_Library/Core/Src/usbd_core.c **** USBD_StatusTypeDef USBD_LL_DevDisconnected(USBD_HandleTypeDef *pdev)
 643:lib/STM32_USB_Device_Library/Core/Src/usbd_core.c **** {
 1230              		.loc 1 643 1 is_stmt 1 view -0
 1231              		.cfi_startproc
 1232              		@ args = 0, pretend = 0, frame = 0
 1233              		@ frame_needed = 0, uses_anonymous_args = 0
 1234              		.loc 1 643 1 is_stmt 0 view .LVU354
 1235 0000 08B5     		push	{r3, lr}
 1236              	.LCFI16:
 1237              		.cfi_def_cfa_offset 8
 1238              		.cfi_offset 3, -8
 1239              		.cfi_offset 14, -4
 644:lib/STM32_USB_Device_Library/Core/Src/usbd_core.c ****   /* Free Class Resources */
 645:lib/STM32_USB_Device_Library/Core/Src/usbd_core.c ****   pdev->dev_state = USBD_STATE_DEFAULT;
 1240              		.loc 1 645 3 is_stmt 1 view .LVU355
 1241              		.loc 1 645 19 is_stmt 0 view .LVU356
 1242 0002 0123     		movs	r3, #1
 1243 0004 80F89C32 		strb	r3, [r0, #668]
 646:lib/STM32_USB_Device_Library/Core/Src/usbd_core.c **** 
 647:lib/STM32_USB_Device_Library/Core/Src/usbd_core.c ****   if (pdev->pClass != NULL)
 1244              		.loc 1 647 3 is_stmt 1 view .LVU357
 1245              		.loc 1 647 11 is_stmt 0 view .LVU358
 1246 0008 D0F8B832 		ldr	r3, [r0, #696]
 1247              		.loc 1 647 6 view .LVU359
 1248 000c 13B1     		cbz	r3, .L86
 648:lib/STM32_USB_Device_Library/Core/Src/usbd_core.c ****   {
 649:lib/STM32_USB_Device_Library/Core/Src/usbd_core.c ****     pdev->pClass->DeInit(pdev, (uint8_t)pdev->dev_config);
 1249              		.loc 1 649 5 is_stmt 1 view .LVU360
 1250              		.loc 1 649 17 is_stmt 0 view .LVU361
 1251 000e 5B68     		ldr	r3, [r3, #4]
 1252              		.loc 1 649 5 view .LVU362
 1253 0010 0179     		ldrb	r1, [r0, #4]	@ zero_extendqisi2
 1254 0012 9847     		blx	r3
 1255              	.LVL112:
 1256              	.L86:
 650:lib/STM32_USB_Device_Library/Core/Src/usbd_core.c ****   }
 651:lib/STM32_USB_Device_Library/Core/Src/usbd_core.c **** 
 652:lib/STM32_USB_Device_Library/Core/Src/usbd_core.c ****   return USBD_OK;
 1257              		.loc 1 652 3 is_stmt 1 view .LVU363
 653:lib/STM32_USB_Device_Library/Core/Src/usbd_core.c **** }
 1258              		.loc 1 653 1 is_stmt 0 view .LVU364
 1259 0014 0020     		movs	r0, #0
 1260 0016 08BD     		pop	{r3, pc}
 1261              		.cfi_endproc
 1262              	.LFE164:
 1264              		.text
 1265              	.Letext0:
 1266              		.file 2 "c:\\program files (x86)\\gnu arm embedded toolchain\\9 2020-q2-update\\arm-none-eabi\\inc
 1267              		.file 3 "c:\\program files (x86)\\gnu arm embedded toolchain\\9 2020-q2-update\\lib\\gcc\\arm-none
 1268              		.file 4 "c:\\program files (x86)\\gnu arm embedded toolchain\\9 2020-q2-update\\arm-none-eabi\\inc
ARM GAS  C:\Users\BIGBIG~1\AppData\Local\Temp\ccluI8kH.s 			page 36


 1269              		.file 5 "c:\\program files (x86)\\gnu arm embedded toolchain\\9 2020-q2-update\\arm-none-eabi\\inc
 1270              		.file 6 "c:\\program files (x86)\\gnu arm embedded toolchain\\9 2020-q2-update\\arm-none-eabi\\inc
 1271              		.file 7 "c:\\program files (x86)\\gnu arm embedded toolchain\\9 2020-q2-update\\arm-none-eabi\\inc
 1272              		.file 8 "c:\\program files (x86)\\gnu arm embedded toolchain\\9 2020-q2-update\\arm-none-eabi\\inc
 1273              		.file 9 "dev/CMSIS/Include/core_cm7.h"
 1274              		.file 10 "dev/CMSIS/Device/ST/STM32F7xx/Include/system_stm32f7xx.h"
 1275              		.file 11 "dev/STM32F7xx_HAL_Driver/Inc/stm32f7xx_hal.h"
 1276              		.file 12 "lib/STM32_USB_Device_Library/Core/Inc/usbd_def.h"
 1277              		.file 13 "lib/STM32_USB_Device_Library/Core/Inc/usbd_core.h"
 1278              		.file 14 "lib/STM32_USB_Device_Library/Core/Inc/usbd_ioreq.h"
 1279              		.file 15 "lib/STM32_USB_Device_Library/Core/Inc/usbd_ctlreq.h"
ARM GAS  C:\Users\BIGBIG~1\AppData\Local\Temp\ccluI8kH.s 			page 37

