ARM GAS  C:\Users\BIGBIG~1\AppData\Local\Temp\cc5naY0b.s 			page 1


   1              		.cpu cortex-m7
   2              		.eabi_attribute 28, 1
   3              		.eabi_attribute 20, 1
   4              		.eabi_attribute 21, 1
   5              		.eabi_attribute 23, 3
   6              		.eabi_attribute 24, 1
   7              		.eabi_attribute 25, 1
   8              		.eabi_attribute 26, 1
   9              		.eabi_attribute 30, 1
  10              		.eabi_attribute 34, 1
  11              		.eabi_attribute 18, 4
  12              		.file	"usbd_ctlreq.c"
  13              		.text
  14              	.Ltext0:
  15              		.cfi_sections	.debug_frame
  16              		.section	.text.USBD_GetLen,"ax",%progbits
  17              		.align	1
  18              		.arch armv7e-m
  19              		.syntax unified
  20              		.thumb
  21              		.thumb_func
  22              		.fpu fpv5-d16
  24              	USBD_GetLen:
  25              	.LVL0:
  26              	.LFB158:
  27              		.file 1 "lib/STM32_USB_Device_Library/Core/Src/usbd_ctlreq.c"
   1:lib/STM32_USB_Device_Library/Core/Src/usbd_ctlreq.c **** /**
   2:lib/STM32_USB_Device_Library/Core/Src/usbd_ctlreq.c ****   ******************************************************************************
   3:lib/STM32_USB_Device_Library/Core/Src/usbd_ctlreq.c ****   * @file    usbd_req.c
   4:lib/STM32_USB_Device_Library/Core/Src/usbd_ctlreq.c ****   * @author  MCD Application Team
   5:lib/STM32_USB_Device_Library/Core/Src/usbd_ctlreq.c ****   * @brief   This file provides the standard USB requests following chapter 9.
   6:lib/STM32_USB_Device_Library/Core/Src/usbd_ctlreq.c ****   ******************************************************************************
   7:lib/STM32_USB_Device_Library/Core/Src/usbd_ctlreq.c ****   * @attention
   8:lib/STM32_USB_Device_Library/Core/Src/usbd_ctlreq.c ****   *
   9:lib/STM32_USB_Device_Library/Core/Src/usbd_ctlreq.c ****   * <h2><center>&copy; Copyright (c) 2015 STMicroelectronics.
  10:lib/STM32_USB_Device_Library/Core/Src/usbd_ctlreq.c ****   * All rights reserved.</center></h2>
  11:lib/STM32_USB_Device_Library/Core/Src/usbd_ctlreq.c ****   *
  12:lib/STM32_USB_Device_Library/Core/Src/usbd_ctlreq.c ****   * This software component is licensed by ST under Ultimate Liberty license
  13:lib/STM32_USB_Device_Library/Core/Src/usbd_ctlreq.c ****   * SLA0044, the "License"; You may not use this file except in compliance with
  14:lib/STM32_USB_Device_Library/Core/Src/usbd_ctlreq.c ****   * the License. You may obtain a copy of the License at:
  15:lib/STM32_USB_Device_Library/Core/Src/usbd_ctlreq.c ****   *                      www.st.com/SLA0044
  16:lib/STM32_USB_Device_Library/Core/Src/usbd_ctlreq.c ****   *
  17:lib/STM32_USB_Device_Library/Core/Src/usbd_ctlreq.c ****   ******************************************************************************
  18:lib/STM32_USB_Device_Library/Core/Src/usbd_ctlreq.c ****   */
  19:lib/STM32_USB_Device_Library/Core/Src/usbd_ctlreq.c **** 
  20:lib/STM32_USB_Device_Library/Core/Src/usbd_ctlreq.c **** /* Includes ------------------------------------------------------------------*/
  21:lib/STM32_USB_Device_Library/Core/Src/usbd_ctlreq.c **** #include "usbd_ctlreq.h"
  22:lib/STM32_USB_Device_Library/Core/Src/usbd_ctlreq.c **** #include "usbd_ioreq.h"
  23:lib/STM32_USB_Device_Library/Core/Src/usbd_ctlreq.c **** 
  24:lib/STM32_USB_Device_Library/Core/Src/usbd_ctlreq.c **** 
  25:lib/STM32_USB_Device_Library/Core/Src/usbd_ctlreq.c **** /** @addtogroup STM32_USBD_STATE_DEVICE_LIBRARY
  26:lib/STM32_USB_Device_Library/Core/Src/usbd_ctlreq.c ****   * @{
  27:lib/STM32_USB_Device_Library/Core/Src/usbd_ctlreq.c ****   */
  28:lib/STM32_USB_Device_Library/Core/Src/usbd_ctlreq.c **** 
  29:lib/STM32_USB_Device_Library/Core/Src/usbd_ctlreq.c **** 
  30:lib/STM32_USB_Device_Library/Core/Src/usbd_ctlreq.c **** /** @defgroup USBD_REQ
  31:lib/STM32_USB_Device_Library/Core/Src/usbd_ctlreq.c ****   * @brief USB standard requests module
ARM GAS  C:\Users\BIGBIG~1\AppData\Local\Temp\cc5naY0b.s 			page 2


  32:lib/STM32_USB_Device_Library/Core/Src/usbd_ctlreq.c ****   * @{
  33:lib/STM32_USB_Device_Library/Core/Src/usbd_ctlreq.c ****   */
  34:lib/STM32_USB_Device_Library/Core/Src/usbd_ctlreq.c **** 
  35:lib/STM32_USB_Device_Library/Core/Src/usbd_ctlreq.c **** /** @defgroup USBD_REQ_Private_TypesDefinitions
  36:lib/STM32_USB_Device_Library/Core/Src/usbd_ctlreq.c ****   * @{
  37:lib/STM32_USB_Device_Library/Core/Src/usbd_ctlreq.c ****   */
  38:lib/STM32_USB_Device_Library/Core/Src/usbd_ctlreq.c **** 
  39:lib/STM32_USB_Device_Library/Core/Src/usbd_ctlreq.c **** /**
  40:lib/STM32_USB_Device_Library/Core/Src/usbd_ctlreq.c ****   * @}
  41:lib/STM32_USB_Device_Library/Core/Src/usbd_ctlreq.c ****   */
  42:lib/STM32_USB_Device_Library/Core/Src/usbd_ctlreq.c **** 
  43:lib/STM32_USB_Device_Library/Core/Src/usbd_ctlreq.c **** 
  44:lib/STM32_USB_Device_Library/Core/Src/usbd_ctlreq.c **** /** @defgroup USBD_REQ_Private_Defines
  45:lib/STM32_USB_Device_Library/Core/Src/usbd_ctlreq.c ****   * @{
  46:lib/STM32_USB_Device_Library/Core/Src/usbd_ctlreq.c ****   */
  47:lib/STM32_USB_Device_Library/Core/Src/usbd_ctlreq.c **** 
  48:lib/STM32_USB_Device_Library/Core/Src/usbd_ctlreq.c **** /**
  49:lib/STM32_USB_Device_Library/Core/Src/usbd_ctlreq.c ****   * @}
  50:lib/STM32_USB_Device_Library/Core/Src/usbd_ctlreq.c ****   */
  51:lib/STM32_USB_Device_Library/Core/Src/usbd_ctlreq.c **** 
  52:lib/STM32_USB_Device_Library/Core/Src/usbd_ctlreq.c **** 
  53:lib/STM32_USB_Device_Library/Core/Src/usbd_ctlreq.c **** /** @defgroup USBD_REQ_Private_Macros
  54:lib/STM32_USB_Device_Library/Core/Src/usbd_ctlreq.c ****   * @{
  55:lib/STM32_USB_Device_Library/Core/Src/usbd_ctlreq.c ****   */
  56:lib/STM32_USB_Device_Library/Core/Src/usbd_ctlreq.c **** 
  57:lib/STM32_USB_Device_Library/Core/Src/usbd_ctlreq.c **** /**
  58:lib/STM32_USB_Device_Library/Core/Src/usbd_ctlreq.c ****   * @}
  59:lib/STM32_USB_Device_Library/Core/Src/usbd_ctlreq.c ****   */
  60:lib/STM32_USB_Device_Library/Core/Src/usbd_ctlreq.c **** 
  61:lib/STM32_USB_Device_Library/Core/Src/usbd_ctlreq.c **** 
  62:lib/STM32_USB_Device_Library/Core/Src/usbd_ctlreq.c **** /** @defgroup USBD_REQ_Private_Variables
  63:lib/STM32_USB_Device_Library/Core/Src/usbd_ctlreq.c ****   * @{
  64:lib/STM32_USB_Device_Library/Core/Src/usbd_ctlreq.c ****   */
  65:lib/STM32_USB_Device_Library/Core/Src/usbd_ctlreq.c **** 
  66:lib/STM32_USB_Device_Library/Core/Src/usbd_ctlreq.c **** /**
  67:lib/STM32_USB_Device_Library/Core/Src/usbd_ctlreq.c ****   * @}
  68:lib/STM32_USB_Device_Library/Core/Src/usbd_ctlreq.c ****   */
  69:lib/STM32_USB_Device_Library/Core/Src/usbd_ctlreq.c **** 
  70:lib/STM32_USB_Device_Library/Core/Src/usbd_ctlreq.c **** 
  71:lib/STM32_USB_Device_Library/Core/Src/usbd_ctlreq.c **** /** @defgroup USBD_REQ_Private_FunctionPrototypes
  72:lib/STM32_USB_Device_Library/Core/Src/usbd_ctlreq.c ****   * @{
  73:lib/STM32_USB_Device_Library/Core/Src/usbd_ctlreq.c ****   */
  74:lib/STM32_USB_Device_Library/Core/Src/usbd_ctlreq.c **** static void USBD_GetDescriptor(USBD_HandleTypeDef *pdev, USBD_SetupReqTypedef *req);
  75:lib/STM32_USB_Device_Library/Core/Src/usbd_ctlreq.c **** static void USBD_SetAddress(USBD_HandleTypeDef *pdev, USBD_SetupReqTypedef *req);
  76:lib/STM32_USB_Device_Library/Core/Src/usbd_ctlreq.c **** static USBD_StatusTypeDef USBD_SetConfig(USBD_HandleTypeDef *pdev, USBD_SetupReqTypedef *req);
  77:lib/STM32_USB_Device_Library/Core/Src/usbd_ctlreq.c **** static void USBD_GetConfig(USBD_HandleTypeDef *pdev, USBD_SetupReqTypedef *req);
  78:lib/STM32_USB_Device_Library/Core/Src/usbd_ctlreq.c **** static void USBD_GetStatus(USBD_HandleTypeDef *pdev, USBD_SetupReqTypedef *req);
  79:lib/STM32_USB_Device_Library/Core/Src/usbd_ctlreq.c **** static void USBD_SetFeature(USBD_HandleTypeDef *pdev, USBD_SetupReqTypedef *req);
  80:lib/STM32_USB_Device_Library/Core/Src/usbd_ctlreq.c **** static void USBD_ClrFeature(USBD_HandleTypeDef *pdev, USBD_SetupReqTypedef *req);
  81:lib/STM32_USB_Device_Library/Core/Src/usbd_ctlreq.c **** static uint8_t USBD_GetLen(uint8_t *buf);
  82:lib/STM32_USB_Device_Library/Core/Src/usbd_ctlreq.c **** 
  83:lib/STM32_USB_Device_Library/Core/Src/usbd_ctlreq.c **** /**
  84:lib/STM32_USB_Device_Library/Core/Src/usbd_ctlreq.c ****   * @}
  85:lib/STM32_USB_Device_Library/Core/Src/usbd_ctlreq.c ****   */
  86:lib/STM32_USB_Device_Library/Core/Src/usbd_ctlreq.c **** 
  87:lib/STM32_USB_Device_Library/Core/Src/usbd_ctlreq.c **** 
  88:lib/STM32_USB_Device_Library/Core/Src/usbd_ctlreq.c **** /** @defgroup USBD_REQ_Private_Functions
ARM GAS  C:\Users\BIGBIG~1\AppData\Local\Temp\cc5naY0b.s 			page 3


  89:lib/STM32_USB_Device_Library/Core/Src/usbd_ctlreq.c ****   * @{
  90:lib/STM32_USB_Device_Library/Core/Src/usbd_ctlreq.c ****   */
  91:lib/STM32_USB_Device_Library/Core/Src/usbd_ctlreq.c **** 
  92:lib/STM32_USB_Device_Library/Core/Src/usbd_ctlreq.c **** 
  93:lib/STM32_USB_Device_Library/Core/Src/usbd_ctlreq.c **** /**
  94:lib/STM32_USB_Device_Library/Core/Src/usbd_ctlreq.c **** * @brief  USBD_StdDevReq
  95:lib/STM32_USB_Device_Library/Core/Src/usbd_ctlreq.c **** *         Handle standard usb device requests
  96:lib/STM32_USB_Device_Library/Core/Src/usbd_ctlreq.c **** * @param  pdev: device instance
  97:lib/STM32_USB_Device_Library/Core/Src/usbd_ctlreq.c **** * @param  req: usb request
  98:lib/STM32_USB_Device_Library/Core/Src/usbd_ctlreq.c **** * @retval status
  99:lib/STM32_USB_Device_Library/Core/Src/usbd_ctlreq.c **** */
 100:lib/STM32_USB_Device_Library/Core/Src/usbd_ctlreq.c **** USBD_StatusTypeDef USBD_StdDevReq(USBD_HandleTypeDef *pdev, USBD_SetupReqTypedef *req)
 101:lib/STM32_USB_Device_Library/Core/Src/usbd_ctlreq.c **** {
 102:lib/STM32_USB_Device_Library/Core/Src/usbd_ctlreq.c ****   USBD_StatusTypeDef ret = USBD_OK;
 103:lib/STM32_USB_Device_Library/Core/Src/usbd_ctlreq.c **** 
 104:lib/STM32_USB_Device_Library/Core/Src/usbd_ctlreq.c ****   switch (req->bmRequest & USB_REQ_TYPE_MASK)
 105:lib/STM32_USB_Device_Library/Core/Src/usbd_ctlreq.c ****   {
 106:lib/STM32_USB_Device_Library/Core/Src/usbd_ctlreq.c ****   case USB_REQ_TYPE_CLASS:
 107:lib/STM32_USB_Device_Library/Core/Src/usbd_ctlreq.c ****   case USB_REQ_TYPE_VENDOR:
 108:lib/STM32_USB_Device_Library/Core/Src/usbd_ctlreq.c ****     ret = (USBD_StatusTypeDef)pdev->pClass->Setup(pdev, req);
 109:lib/STM32_USB_Device_Library/Core/Src/usbd_ctlreq.c ****     break;
 110:lib/STM32_USB_Device_Library/Core/Src/usbd_ctlreq.c **** 
 111:lib/STM32_USB_Device_Library/Core/Src/usbd_ctlreq.c ****   case USB_REQ_TYPE_STANDARD:
 112:lib/STM32_USB_Device_Library/Core/Src/usbd_ctlreq.c ****     switch (req->bRequest)
 113:lib/STM32_USB_Device_Library/Core/Src/usbd_ctlreq.c ****     {
 114:lib/STM32_USB_Device_Library/Core/Src/usbd_ctlreq.c ****     case USB_REQ_GET_DESCRIPTOR:
 115:lib/STM32_USB_Device_Library/Core/Src/usbd_ctlreq.c ****       USBD_GetDescriptor(pdev, req);
 116:lib/STM32_USB_Device_Library/Core/Src/usbd_ctlreq.c ****       break;
 117:lib/STM32_USB_Device_Library/Core/Src/usbd_ctlreq.c **** 
 118:lib/STM32_USB_Device_Library/Core/Src/usbd_ctlreq.c ****     case USB_REQ_SET_ADDRESS:
 119:lib/STM32_USB_Device_Library/Core/Src/usbd_ctlreq.c ****       USBD_SetAddress(pdev, req);
 120:lib/STM32_USB_Device_Library/Core/Src/usbd_ctlreq.c ****       break;
 121:lib/STM32_USB_Device_Library/Core/Src/usbd_ctlreq.c **** 
 122:lib/STM32_USB_Device_Library/Core/Src/usbd_ctlreq.c ****     case USB_REQ_SET_CONFIGURATION:
 123:lib/STM32_USB_Device_Library/Core/Src/usbd_ctlreq.c ****       ret = USBD_SetConfig(pdev, req);
 124:lib/STM32_USB_Device_Library/Core/Src/usbd_ctlreq.c ****       break;
 125:lib/STM32_USB_Device_Library/Core/Src/usbd_ctlreq.c **** 
 126:lib/STM32_USB_Device_Library/Core/Src/usbd_ctlreq.c ****     case USB_REQ_GET_CONFIGURATION:
 127:lib/STM32_USB_Device_Library/Core/Src/usbd_ctlreq.c ****       USBD_GetConfig(pdev, req);
 128:lib/STM32_USB_Device_Library/Core/Src/usbd_ctlreq.c ****       break;
 129:lib/STM32_USB_Device_Library/Core/Src/usbd_ctlreq.c **** 
 130:lib/STM32_USB_Device_Library/Core/Src/usbd_ctlreq.c ****     case USB_REQ_GET_STATUS:
 131:lib/STM32_USB_Device_Library/Core/Src/usbd_ctlreq.c ****       USBD_GetStatus(pdev, req);
 132:lib/STM32_USB_Device_Library/Core/Src/usbd_ctlreq.c ****       break;
 133:lib/STM32_USB_Device_Library/Core/Src/usbd_ctlreq.c **** 
 134:lib/STM32_USB_Device_Library/Core/Src/usbd_ctlreq.c ****     case USB_REQ_SET_FEATURE:
 135:lib/STM32_USB_Device_Library/Core/Src/usbd_ctlreq.c ****       USBD_SetFeature(pdev, req);
 136:lib/STM32_USB_Device_Library/Core/Src/usbd_ctlreq.c ****       break;
 137:lib/STM32_USB_Device_Library/Core/Src/usbd_ctlreq.c **** 
 138:lib/STM32_USB_Device_Library/Core/Src/usbd_ctlreq.c ****     case USB_REQ_CLEAR_FEATURE:
 139:lib/STM32_USB_Device_Library/Core/Src/usbd_ctlreq.c ****       USBD_ClrFeature(pdev, req);
 140:lib/STM32_USB_Device_Library/Core/Src/usbd_ctlreq.c ****       break;
 141:lib/STM32_USB_Device_Library/Core/Src/usbd_ctlreq.c **** 
 142:lib/STM32_USB_Device_Library/Core/Src/usbd_ctlreq.c ****     default:
 143:lib/STM32_USB_Device_Library/Core/Src/usbd_ctlreq.c ****       USBD_CtlError(pdev, req);
 144:lib/STM32_USB_Device_Library/Core/Src/usbd_ctlreq.c ****       break;
 145:lib/STM32_USB_Device_Library/Core/Src/usbd_ctlreq.c ****     }
ARM GAS  C:\Users\BIGBIG~1\AppData\Local\Temp\cc5naY0b.s 			page 4


 146:lib/STM32_USB_Device_Library/Core/Src/usbd_ctlreq.c ****     break;
 147:lib/STM32_USB_Device_Library/Core/Src/usbd_ctlreq.c **** 
 148:lib/STM32_USB_Device_Library/Core/Src/usbd_ctlreq.c ****   default:
 149:lib/STM32_USB_Device_Library/Core/Src/usbd_ctlreq.c ****     USBD_CtlError(pdev, req);
 150:lib/STM32_USB_Device_Library/Core/Src/usbd_ctlreq.c ****     break;
 151:lib/STM32_USB_Device_Library/Core/Src/usbd_ctlreq.c ****   }
 152:lib/STM32_USB_Device_Library/Core/Src/usbd_ctlreq.c **** 
 153:lib/STM32_USB_Device_Library/Core/Src/usbd_ctlreq.c ****   return ret;
 154:lib/STM32_USB_Device_Library/Core/Src/usbd_ctlreq.c **** }
 155:lib/STM32_USB_Device_Library/Core/Src/usbd_ctlreq.c **** 
 156:lib/STM32_USB_Device_Library/Core/Src/usbd_ctlreq.c **** /**
 157:lib/STM32_USB_Device_Library/Core/Src/usbd_ctlreq.c **** * @brief  USBD_StdItfReq
 158:lib/STM32_USB_Device_Library/Core/Src/usbd_ctlreq.c **** *         Handle standard usb interface requests
 159:lib/STM32_USB_Device_Library/Core/Src/usbd_ctlreq.c **** * @param  pdev: device instance
 160:lib/STM32_USB_Device_Library/Core/Src/usbd_ctlreq.c **** * @param  req: usb request
 161:lib/STM32_USB_Device_Library/Core/Src/usbd_ctlreq.c **** * @retval status
 162:lib/STM32_USB_Device_Library/Core/Src/usbd_ctlreq.c **** */
 163:lib/STM32_USB_Device_Library/Core/Src/usbd_ctlreq.c **** USBD_StatusTypeDef USBD_StdItfReq(USBD_HandleTypeDef *pdev, USBD_SetupReqTypedef *req)
 164:lib/STM32_USB_Device_Library/Core/Src/usbd_ctlreq.c **** {
 165:lib/STM32_USB_Device_Library/Core/Src/usbd_ctlreq.c ****   USBD_StatusTypeDef ret = USBD_OK;
 166:lib/STM32_USB_Device_Library/Core/Src/usbd_ctlreq.c **** 
 167:lib/STM32_USB_Device_Library/Core/Src/usbd_ctlreq.c ****   switch (req->bmRequest & USB_REQ_TYPE_MASK)
 168:lib/STM32_USB_Device_Library/Core/Src/usbd_ctlreq.c ****   {
 169:lib/STM32_USB_Device_Library/Core/Src/usbd_ctlreq.c ****   case USB_REQ_TYPE_CLASS:
 170:lib/STM32_USB_Device_Library/Core/Src/usbd_ctlreq.c ****   case USB_REQ_TYPE_VENDOR:
 171:lib/STM32_USB_Device_Library/Core/Src/usbd_ctlreq.c ****   case USB_REQ_TYPE_STANDARD:
 172:lib/STM32_USB_Device_Library/Core/Src/usbd_ctlreq.c ****     switch (pdev->dev_state)
 173:lib/STM32_USB_Device_Library/Core/Src/usbd_ctlreq.c ****     {
 174:lib/STM32_USB_Device_Library/Core/Src/usbd_ctlreq.c ****     case USBD_STATE_DEFAULT:
 175:lib/STM32_USB_Device_Library/Core/Src/usbd_ctlreq.c ****     case USBD_STATE_ADDRESSED:
 176:lib/STM32_USB_Device_Library/Core/Src/usbd_ctlreq.c ****     case USBD_STATE_CONFIGURED:
 177:lib/STM32_USB_Device_Library/Core/Src/usbd_ctlreq.c **** 
 178:lib/STM32_USB_Device_Library/Core/Src/usbd_ctlreq.c ****       if (LOBYTE(req->wIndex) <= USBD_MAX_NUM_INTERFACES)
 179:lib/STM32_USB_Device_Library/Core/Src/usbd_ctlreq.c ****       {
 180:lib/STM32_USB_Device_Library/Core/Src/usbd_ctlreq.c ****         ret = (USBD_StatusTypeDef)pdev->pClass->Setup(pdev, req);
 181:lib/STM32_USB_Device_Library/Core/Src/usbd_ctlreq.c **** 
 182:lib/STM32_USB_Device_Library/Core/Src/usbd_ctlreq.c ****         if ((req->wLength == 0U) && (ret == USBD_OK))
 183:lib/STM32_USB_Device_Library/Core/Src/usbd_ctlreq.c ****         {
 184:lib/STM32_USB_Device_Library/Core/Src/usbd_ctlreq.c ****           (void)USBD_CtlSendStatus(pdev);
 185:lib/STM32_USB_Device_Library/Core/Src/usbd_ctlreq.c ****         }
 186:lib/STM32_USB_Device_Library/Core/Src/usbd_ctlreq.c ****       }
 187:lib/STM32_USB_Device_Library/Core/Src/usbd_ctlreq.c ****       else
 188:lib/STM32_USB_Device_Library/Core/Src/usbd_ctlreq.c ****       {
 189:lib/STM32_USB_Device_Library/Core/Src/usbd_ctlreq.c ****         USBD_CtlError(pdev, req);
 190:lib/STM32_USB_Device_Library/Core/Src/usbd_ctlreq.c ****       }
 191:lib/STM32_USB_Device_Library/Core/Src/usbd_ctlreq.c ****       break;
 192:lib/STM32_USB_Device_Library/Core/Src/usbd_ctlreq.c **** 
 193:lib/STM32_USB_Device_Library/Core/Src/usbd_ctlreq.c ****     default:
 194:lib/STM32_USB_Device_Library/Core/Src/usbd_ctlreq.c ****       USBD_CtlError(pdev, req);
 195:lib/STM32_USB_Device_Library/Core/Src/usbd_ctlreq.c ****       break;
 196:lib/STM32_USB_Device_Library/Core/Src/usbd_ctlreq.c ****     }
 197:lib/STM32_USB_Device_Library/Core/Src/usbd_ctlreq.c ****     break;
 198:lib/STM32_USB_Device_Library/Core/Src/usbd_ctlreq.c **** 
 199:lib/STM32_USB_Device_Library/Core/Src/usbd_ctlreq.c ****   default:
 200:lib/STM32_USB_Device_Library/Core/Src/usbd_ctlreq.c ****     USBD_CtlError(pdev, req);
 201:lib/STM32_USB_Device_Library/Core/Src/usbd_ctlreq.c ****     break;
 202:lib/STM32_USB_Device_Library/Core/Src/usbd_ctlreq.c ****   }
ARM GAS  C:\Users\BIGBIG~1\AppData\Local\Temp\cc5naY0b.s 			page 5


 203:lib/STM32_USB_Device_Library/Core/Src/usbd_ctlreq.c **** 
 204:lib/STM32_USB_Device_Library/Core/Src/usbd_ctlreq.c ****   return ret;
 205:lib/STM32_USB_Device_Library/Core/Src/usbd_ctlreq.c **** }
 206:lib/STM32_USB_Device_Library/Core/Src/usbd_ctlreq.c **** 
 207:lib/STM32_USB_Device_Library/Core/Src/usbd_ctlreq.c **** /**
 208:lib/STM32_USB_Device_Library/Core/Src/usbd_ctlreq.c **** * @brief  USBD_StdEPReq
 209:lib/STM32_USB_Device_Library/Core/Src/usbd_ctlreq.c **** *         Handle standard usb endpoint requests
 210:lib/STM32_USB_Device_Library/Core/Src/usbd_ctlreq.c **** * @param  pdev: device instance
 211:lib/STM32_USB_Device_Library/Core/Src/usbd_ctlreq.c **** * @param  req: usb request
 212:lib/STM32_USB_Device_Library/Core/Src/usbd_ctlreq.c **** * @retval status
 213:lib/STM32_USB_Device_Library/Core/Src/usbd_ctlreq.c **** */
 214:lib/STM32_USB_Device_Library/Core/Src/usbd_ctlreq.c **** USBD_StatusTypeDef USBD_StdEPReq(USBD_HandleTypeDef *pdev, USBD_SetupReqTypedef *req)
 215:lib/STM32_USB_Device_Library/Core/Src/usbd_ctlreq.c **** {
 216:lib/STM32_USB_Device_Library/Core/Src/usbd_ctlreq.c ****   USBD_EndpointTypeDef *pep;
 217:lib/STM32_USB_Device_Library/Core/Src/usbd_ctlreq.c ****   uint8_t ep_addr;
 218:lib/STM32_USB_Device_Library/Core/Src/usbd_ctlreq.c ****   USBD_StatusTypeDef ret = USBD_OK;
 219:lib/STM32_USB_Device_Library/Core/Src/usbd_ctlreq.c ****   ep_addr = LOBYTE(req->wIndex);
 220:lib/STM32_USB_Device_Library/Core/Src/usbd_ctlreq.c **** 
 221:lib/STM32_USB_Device_Library/Core/Src/usbd_ctlreq.c ****   switch (req->bmRequest & USB_REQ_TYPE_MASK)
 222:lib/STM32_USB_Device_Library/Core/Src/usbd_ctlreq.c ****   {
 223:lib/STM32_USB_Device_Library/Core/Src/usbd_ctlreq.c ****   case USB_REQ_TYPE_CLASS:
 224:lib/STM32_USB_Device_Library/Core/Src/usbd_ctlreq.c ****   case USB_REQ_TYPE_VENDOR:
 225:lib/STM32_USB_Device_Library/Core/Src/usbd_ctlreq.c ****     ret = (USBD_StatusTypeDef)pdev->pClass->Setup(pdev, req);
 226:lib/STM32_USB_Device_Library/Core/Src/usbd_ctlreq.c ****     break;
 227:lib/STM32_USB_Device_Library/Core/Src/usbd_ctlreq.c **** 
 228:lib/STM32_USB_Device_Library/Core/Src/usbd_ctlreq.c ****   case USB_REQ_TYPE_STANDARD:
 229:lib/STM32_USB_Device_Library/Core/Src/usbd_ctlreq.c ****     switch (req->bRequest)
 230:lib/STM32_USB_Device_Library/Core/Src/usbd_ctlreq.c ****     {
 231:lib/STM32_USB_Device_Library/Core/Src/usbd_ctlreq.c ****     case USB_REQ_SET_FEATURE:
 232:lib/STM32_USB_Device_Library/Core/Src/usbd_ctlreq.c ****       switch (pdev->dev_state)
 233:lib/STM32_USB_Device_Library/Core/Src/usbd_ctlreq.c ****       {
 234:lib/STM32_USB_Device_Library/Core/Src/usbd_ctlreq.c ****       case USBD_STATE_ADDRESSED:
 235:lib/STM32_USB_Device_Library/Core/Src/usbd_ctlreq.c ****         if ((ep_addr != 0x00U) && (ep_addr != 0x80U))
 236:lib/STM32_USB_Device_Library/Core/Src/usbd_ctlreq.c ****         {
 237:lib/STM32_USB_Device_Library/Core/Src/usbd_ctlreq.c ****           (void)USBD_LL_StallEP(pdev, ep_addr);
 238:lib/STM32_USB_Device_Library/Core/Src/usbd_ctlreq.c ****           (void)USBD_LL_StallEP(pdev, 0x80U);
 239:lib/STM32_USB_Device_Library/Core/Src/usbd_ctlreq.c ****         }
 240:lib/STM32_USB_Device_Library/Core/Src/usbd_ctlreq.c ****         else
 241:lib/STM32_USB_Device_Library/Core/Src/usbd_ctlreq.c ****         {
 242:lib/STM32_USB_Device_Library/Core/Src/usbd_ctlreq.c ****           USBD_CtlError(pdev, req);
 243:lib/STM32_USB_Device_Library/Core/Src/usbd_ctlreq.c ****         }
 244:lib/STM32_USB_Device_Library/Core/Src/usbd_ctlreq.c ****         break;
 245:lib/STM32_USB_Device_Library/Core/Src/usbd_ctlreq.c **** 
 246:lib/STM32_USB_Device_Library/Core/Src/usbd_ctlreq.c ****       case USBD_STATE_CONFIGURED:
 247:lib/STM32_USB_Device_Library/Core/Src/usbd_ctlreq.c ****         if (req->wValue == USB_FEATURE_EP_HALT)
 248:lib/STM32_USB_Device_Library/Core/Src/usbd_ctlreq.c ****         {
 249:lib/STM32_USB_Device_Library/Core/Src/usbd_ctlreq.c ****           if ((ep_addr != 0x00U) && (ep_addr != 0x80U) && (req->wLength == 0x00U))
 250:lib/STM32_USB_Device_Library/Core/Src/usbd_ctlreq.c ****           {
 251:lib/STM32_USB_Device_Library/Core/Src/usbd_ctlreq.c ****             (void)USBD_LL_StallEP(pdev, ep_addr);
 252:lib/STM32_USB_Device_Library/Core/Src/usbd_ctlreq.c ****           }
 253:lib/STM32_USB_Device_Library/Core/Src/usbd_ctlreq.c ****         }
 254:lib/STM32_USB_Device_Library/Core/Src/usbd_ctlreq.c ****         (void)USBD_CtlSendStatus(pdev);
 255:lib/STM32_USB_Device_Library/Core/Src/usbd_ctlreq.c **** 
 256:lib/STM32_USB_Device_Library/Core/Src/usbd_ctlreq.c ****         break;
 257:lib/STM32_USB_Device_Library/Core/Src/usbd_ctlreq.c **** 
 258:lib/STM32_USB_Device_Library/Core/Src/usbd_ctlreq.c ****       default:
 259:lib/STM32_USB_Device_Library/Core/Src/usbd_ctlreq.c ****         USBD_CtlError(pdev, req);
ARM GAS  C:\Users\BIGBIG~1\AppData\Local\Temp\cc5naY0b.s 			page 6


 260:lib/STM32_USB_Device_Library/Core/Src/usbd_ctlreq.c ****         break;
 261:lib/STM32_USB_Device_Library/Core/Src/usbd_ctlreq.c ****       }
 262:lib/STM32_USB_Device_Library/Core/Src/usbd_ctlreq.c ****       break;
 263:lib/STM32_USB_Device_Library/Core/Src/usbd_ctlreq.c **** 
 264:lib/STM32_USB_Device_Library/Core/Src/usbd_ctlreq.c ****     case USB_REQ_CLEAR_FEATURE:
 265:lib/STM32_USB_Device_Library/Core/Src/usbd_ctlreq.c **** 
 266:lib/STM32_USB_Device_Library/Core/Src/usbd_ctlreq.c ****       switch (pdev->dev_state)
 267:lib/STM32_USB_Device_Library/Core/Src/usbd_ctlreq.c ****       {
 268:lib/STM32_USB_Device_Library/Core/Src/usbd_ctlreq.c ****       case USBD_STATE_ADDRESSED:
 269:lib/STM32_USB_Device_Library/Core/Src/usbd_ctlreq.c ****         if ((ep_addr != 0x00U) && (ep_addr != 0x80U))
 270:lib/STM32_USB_Device_Library/Core/Src/usbd_ctlreq.c ****         {
 271:lib/STM32_USB_Device_Library/Core/Src/usbd_ctlreq.c ****           (void)USBD_LL_StallEP(pdev, ep_addr);
 272:lib/STM32_USB_Device_Library/Core/Src/usbd_ctlreq.c ****           (void)USBD_LL_StallEP(pdev, 0x80U);
 273:lib/STM32_USB_Device_Library/Core/Src/usbd_ctlreq.c ****         }
 274:lib/STM32_USB_Device_Library/Core/Src/usbd_ctlreq.c ****         else
 275:lib/STM32_USB_Device_Library/Core/Src/usbd_ctlreq.c ****         {
 276:lib/STM32_USB_Device_Library/Core/Src/usbd_ctlreq.c ****           USBD_CtlError(pdev, req);
 277:lib/STM32_USB_Device_Library/Core/Src/usbd_ctlreq.c ****         }
 278:lib/STM32_USB_Device_Library/Core/Src/usbd_ctlreq.c ****         break;
 279:lib/STM32_USB_Device_Library/Core/Src/usbd_ctlreq.c **** 
 280:lib/STM32_USB_Device_Library/Core/Src/usbd_ctlreq.c ****       case USBD_STATE_CONFIGURED:
 281:lib/STM32_USB_Device_Library/Core/Src/usbd_ctlreq.c ****         if (req->wValue == USB_FEATURE_EP_HALT)
 282:lib/STM32_USB_Device_Library/Core/Src/usbd_ctlreq.c ****         {
 283:lib/STM32_USB_Device_Library/Core/Src/usbd_ctlreq.c ****           if ((ep_addr & 0x7FU) != 0x00U)
 284:lib/STM32_USB_Device_Library/Core/Src/usbd_ctlreq.c ****           {
 285:lib/STM32_USB_Device_Library/Core/Src/usbd_ctlreq.c ****             (void)USBD_LL_ClearStallEP(pdev, ep_addr);
 286:lib/STM32_USB_Device_Library/Core/Src/usbd_ctlreq.c ****           }
 287:lib/STM32_USB_Device_Library/Core/Src/usbd_ctlreq.c ****           (void)USBD_CtlSendStatus(pdev);
 288:lib/STM32_USB_Device_Library/Core/Src/usbd_ctlreq.c ****           (USBD_StatusTypeDef)pdev->pClass->Setup(pdev, req);
 289:lib/STM32_USB_Device_Library/Core/Src/usbd_ctlreq.c ****         }
 290:lib/STM32_USB_Device_Library/Core/Src/usbd_ctlreq.c ****         break;
 291:lib/STM32_USB_Device_Library/Core/Src/usbd_ctlreq.c **** 
 292:lib/STM32_USB_Device_Library/Core/Src/usbd_ctlreq.c ****       default:
 293:lib/STM32_USB_Device_Library/Core/Src/usbd_ctlreq.c ****         USBD_CtlError(pdev, req);
 294:lib/STM32_USB_Device_Library/Core/Src/usbd_ctlreq.c ****         break;
 295:lib/STM32_USB_Device_Library/Core/Src/usbd_ctlreq.c ****       }
 296:lib/STM32_USB_Device_Library/Core/Src/usbd_ctlreq.c ****       break;
 297:lib/STM32_USB_Device_Library/Core/Src/usbd_ctlreq.c **** 
 298:lib/STM32_USB_Device_Library/Core/Src/usbd_ctlreq.c ****     case USB_REQ_GET_STATUS:
 299:lib/STM32_USB_Device_Library/Core/Src/usbd_ctlreq.c ****       switch (pdev->dev_state)
 300:lib/STM32_USB_Device_Library/Core/Src/usbd_ctlreq.c ****       {
 301:lib/STM32_USB_Device_Library/Core/Src/usbd_ctlreq.c ****       case USBD_STATE_ADDRESSED:
 302:lib/STM32_USB_Device_Library/Core/Src/usbd_ctlreq.c ****         if ((ep_addr != 0x00U) && (ep_addr != 0x80U))
 303:lib/STM32_USB_Device_Library/Core/Src/usbd_ctlreq.c ****         {
 304:lib/STM32_USB_Device_Library/Core/Src/usbd_ctlreq.c ****           USBD_CtlError(pdev, req);
 305:lib/STM32_USB_Device_Library/Core/Src/usbd_ctlreq.c ****           break;
 306:lib/STM32_USB_Device_Library/Core/Src/usbd_ctlreq.c ****         }
 307:lib/STM32_USB_Device_Library/Core/Src/usbd_ctlreq.c ****         pep = ((ep_addr & 0x80U) == 0x80U) ? &pdev->ep_in[ep_addr & 0x7FU] : \
 308:lib/STM32_USB_Device_Library/Core/Src/usbd_ctlreq.c ****               &pdev->ep_out[ep_addr & 0x7FU];
 309:lib/STM32_USB_Device_Library/Core/Src/usbd_ctlreq.c **** 
 310:lib/STM32_USB_Device_Library/Core/Src/usbd_ctlreq.c ****         pep->status = 0x0000U;
 311:lib/STM32_USB_Device_Library/Core/Src/usbd_ctlreq.c **** 
 312:lib/STM32_USB_Device_Library/Core/Src/usbd_ctlreq.c ****         (void)USBD_CtlSendData(pdev, (uint8_t *)&pep->status, 2U);
 313:lib/STM32_USB_Device_Library/Core/Src/usbd_ctlreq.c ****         break;
 314:lib/STM32_USB_Device_Library/Core/Src/usbd_ctlreq.c **** 
 315:lib/STM32_USB_Device_Library/Core/Src/usbd_ctlreq.c ****       case USBD_STATE_CONFIGURED:
 316:lib/STM32_USB_Device_Library/Core/Src/usbd_ctlreq.c ****         if ((ep_addr & 0x80U) == 0x80U)
ARM GAS  C:\Users\BIGBIG~1\AppData\Local\Temp\cc5naY0b.s 			page 7


 317:lib/STM32_USB_Device_Library/Core/Src/usbd_ctlreq.c ****         {
 318:lib/STM32_USB_Device_Library/Core/Src/usbd_ctlreq.c ****           if (pdev->ep_in[ep_addr & 0xFU].is_used == 0U)
 319:lib/STM32_USB_Device_Library/Core/Src/usbd_ctlreq.c ****           {
 320:lib/STM32_USB_Device_Library/Core/Src/usbd_ctlreq.c ****             USBD_CtlError(pdev, req);
 321:lib/STM32_USB_Device_Library/Core/Src/usbd_ctlreq.c ****             break;
 322:lib/STM32_USB_Device_Library/Core/Src/usbd_ctlreq.c ****           }
 323:lib/STM32_USB_Device_Library/Core/Src/usbd_ctlreq.c ****         }
 324:lib/STM32_USB_Device_Library/Core/Src/usbd_ctlreq.c ****         else
 325:lib/STM32_USB_Device_Library/Core/Src/usbd_ctlreq.c ****         {
 326:lib/STM32_USB_Device_Library/Core/Src/usbd_ctlreq.c ****           if (pdev->ep_out[ep_addr & 0xFU].is_used == 0U)
 327:lib/STM32_USB_Device_Library/Core/Src/usbd_ctlreq.c ****           {
 328:lib/STM32_USB_Device_Library/Core/Src/usbd_ctlreq.c ****             USBD_CtlError(pdev, req);
 329:lib/STM32_USB_Device_Library/Core/Src/usbd_ctlreq.c ****             break;
 330:lib/STM32_USB_Device_Library/Core/Src/usbd_ctlreq.c ****           }
 331:lib/STM32_USB_Device_Library/Core/Src/usbd_ctlreq.c ****         }
 332:lib/STM32_USB_Device_Library/Core/Src/usbd_ctlreq.c **** 
 333:lib/STM32_USB_Device_Library/Core/Src/usbd_ctlreq.c ****         pep = ((ep_addr & 0x80U) == 0x80U) ? &pdev->ep_in[ep_addr & 0x7FU] : \
 334:lib/STM32_USB_Device_Library/Core/Src/usbd_ctlreq.c ****               &pdev->ep_out[ep_addr & 0x7FU];
 335:lib/STM32_USB_Device_Library/Core/Src/usbd_ctlreq.c **** 
 336:lib/STM32_USB_Device_Library/Core/Src/usbd_ctlreq.c ****           if ((ep_addr == 0x00U) || (ep_addr == 0x80U))
 337:lib/STM32_USB_Device_Library/Core/Src/usbd_ctlreq.c ****           {
 338:lib/STM32_USB_Device_Library/Core/Src/usbd_ctlreq.c ****             pep->status = 0x0000U;
 339:lib/STM32_USB_Device_Library/Core/Src/usbd_ctlreq.c ****           }
 340:lib/STM32_USB_Device_Library/Core/Src/usbd_ctlreq.c ****           else if (USBD_LL_IsStallEP(pdev, ep_addr) != 0U)
 341:lib/STM32_USB_Device_Library/Core/Src/usbd_ctlreq.c ****           {
 342:lib/STM32_USB_Device_Library/Core/Src/usbd_ctlreq.c ****             pep->status = 0x0001U;
 343:lib/STM32_USB_Device_Library/Core/Src/usbd_ctlreq.c ****           }
 344:lib/STM32_USB_Device_Library/Core/Src/usbd_ctlreq.c ****           else
 345:lib/STM32_USB_Device_Library/Core/Src/usbd_ctlreq.c ****           {
 346:lib/STM32_USB_Device_Library/Core/Src/usbd_ctlreq.c ****             pep->status = 0x0000U;
 347:lib/STM32_USB_Device_Library/Core/Src/usbd_ctlreq.c ****           }
 348:lib/STM32_USB_Device_Library/Core/Src/usbd_ctlreq.c **** 
 349:lib/STM32_USB_Device_Library/Core/Src/usbd_ctlreq.c ****           (void)USBD_CtlSendData(pdev, (uint8_t *)&pep->status, 2U);
 350:lib/STM32_USB_Device_Library/Core/Src/usbd_ctlreq.c ****           break;
 351:lib/STM32_USB_Device_Library/Core/Src/usbd_ctlreq.c **** 
 352:lib/STM32_USB_Device_Library/Core/Src/usbd_ctlreq.c ****       default:
 353:lib/STM32_USB_Device_Library/Core/Src/usbd_ctlreq.c ****         USBD_CtlError(pdev, req);
 354:lib/STM32_USB_Device_Library/Core/Src/usbd_ctlreq.c ****         break;
 355:lib/STM32_USB_Device_Library/Core/Src/usbd_ctlreq.c ****       }
 356:lib/STM32_USB_Device_Library/Core/Src/usbd_ctlreq.c ****       break;
 357:lib/STM32_USB_Device_Library/Core/Src/usbd_ctlreq.c **** 
 358:lib/STM32_USB_Device_Library/Core/Src/usbd_ctlreq.c ****     default:
 359:lib/STM32_USB_Device_Library/Core/Src/usbd_ctlreq.c ****       USBD_CtlError(pdev, req);
 360:lib/STM32_USB_Device_Library/Core/Src/usbd_ctlreq.c ****       break;
 361:lib/STM32_USB_Device_Library/Core/Src/usbd_ctlreq.c ****     }
 362:lib/STM32_USB_Device_Library/Core/Src/usbd_ctlreq.c ****     break;
 363:lib/STM32_USB_Device_Library/Core/Src/usbd_ctlreq.c **** 
 364:lib/STM32_USB_Device_Library/Core/Src/usbd_ctlreq.c ****   default:
 365:lib/STM32_USB_Device_Library/Core/Src/usbd_ctlreq.c ****     USBD_CtlError(pdev, req);
 366:lib/STM32_USB_Device_Library/Core/Src/usbd_ctlreq.c ****     break;
 367:lib/STM32_USB_Device_Library/Core/Src/usbd_ctlreq.c ****   }
 368:lib/STM32_USB_Device_Library/Core/Src/usbd_ctlreq.c **** 
 369:lib/STM32_USB_Device_Library/Core/Src/usbd_ctlreq.c ****   return ret;
 370:lib/STM32_USB_Device_Library/Core/Src/usbd_ctlreq.c **** }
 371:lib/STM32_USB_Device_Library/Core/Src/usbd_ctlreq.c **** 
 372:lib/STM32_USB_Device_Library/Core/Src/usbd_ctlreq.c **** 
 373:lib/STM32_USB_Device_Library/Core/Src/usbd_ctlreq.c **** /**
ARM GAS  C:\Users\BIGBIG~1\AppData\Local\Temp\cc5naY0b.s 			page 8


 374:lib/STM32_USB_Device_Library/Core/Src/usbd_ctlreq.c **** * @brief  USBD_GetDescriptor
 375:lib/STM32_USB_Device_Library/Core/Src/usbd_ctlreq.c **** *         Handle Get Descriptor requests
 376:lib/STM32_USB_Device_Library/Core/Src/usbd_ctlreq.c **** * @param  pdev: device instance
 377:lib/STM32_USB_Device_Library/Core/Src/usbd_ctlreq.c **** * @param  req: usb request
 378:lib/STM32_USB_Device_Library/Core/Src/usbd_ctlreq.c **** * @retval status
 379:lib/STM32_USB_Device_Library/Core/Src/usbd_ctlreq.c **** */
 380:lib/STM32_USB_Device_Library/Core/Src/usbd_ctlreq.c **** static void USBD_GetDescriptor(USBD_HandleTypeDef *pdev, USBD_SetupReqTypedef *req)
 381:lib/STM32_USB_Device_Library/Core/Src/usbd_ctlreq.c **** {
 382:lib/STM32_USB_Device_Library/Core/Src/usbd_ctlreq.c ****   uint16_t len = 0U;
 383:lib/STM32_USB_Device_Library/Core/Src/usbd_ctlreq.c ****   uint8_t *pbuf = NULL;
 384:lib/STM32_USB_Device_Library/Core/Src/usbd_ctlreq.c ****   uint8_t err = 0U;
 385:lib/STM32_USB_Device_Library/Core/Src/usbd_ctlreq.c **** 
 386:lib/STM32_USB_Device_Library/Core/Src/usbd_ctlreq.c ****   switch (req->wValue >> 8)
 387:lib/STM32_USB_Device_Library/Core/Src/usbd_ctlreq.c ****   {
 388:lib/STM32_USB_Device_Library/Core/Src/usbd_ctlreq.c **** #if ((USBD_LPM_ENABLED == 1U) || (USBD_CLASS_BOS_ENABLED == 1U))
 389:lib/STM32_USB_Device_Library/Core/Src/usbd_ctlreq.c ****   case USB_DESC_TYPE_BOS:
 390:lib/STM32_USB_Device_Library/Core/Src/usbd_ctlreq.c ****     if (pdev->pDesc->GetBOSDescriptor != NULL)
 391:lib/STM32_USB_Device_Library/Core/Src/usbd_ctlreq.c ****     {
 392:lib/STM32_USB_Device_Library/Core/Src/usbd_ctlreq.c ****       pbuf = pdev->pDesc->GetBOSDescriptor(pdev->dev_speed, &len);
 393:lib/STM32_USB_Device_Library/Core/Src/usbd_ctlreq.c ****     }
 394:lib/STM32_USB_Device_Library/Core/Src/usbd_ctlreq.c ****     else
 395:lib/STM32_USB_Device_Library/Core/Src/usbd_ctlreq.c ****     {
 396:lib/STM32_USB_Device_Library/Core/Src/usbd_ctlreq.c ****       USBD_CtlError(pdev, req);
 397:lib/STM32_USB_Device_Library/Core/Src/usbd_ctlreq.c ****       err++;
 398:lib/STM32_USB_Device_Library/Core/Src/usbd_ctlreq.c ****     }
 399:lib/STM32_USB_Device_Library/Core/Src/usbd_ctlreq.c ****     break;
 400:lib/STM32_USB_Device_Library/Core/Src/usbd_ctlreq.c **** #endif
 401:lib/STM32_USB_Device_Library/Core/Src/usbd_ctlreq.c ****   case USB_DESC_TYPE_DEVICE:
 402:lib/STM32_USB_Device_Library/Core/Src/usbd_ctlreq.c ****     pbuf = pdev->pDesc->GetDeviceDescriptor(pdev->dev_speed, &len);
 403:lib/STM32_USB_Device_Library/Core/Src/usbd_ctlreq.c ****     break;
 404:lib/STM32_USB_Device_Library/Core/Src/usbd_ctlreq.c **** 
 405:lib/STM32_USB_Device_Library/Core/Src/usbd_ctlreq.c ****   case USB_DESC_TYPE_CONFIGURATION:
 406:lib/STM32_USB_Device_Library/Core/Src/usbd_ctlreq.c ****     if (pdev->dev_speed == USBD_SPEED_HIGH)
 407:lib/STM32_USB_Device_Library/Core/Src/usbd_ctlreq.c ****     {
 408:lib/STM32_USB_Device_Library/Core/Src/usbd_ctlreq.c ****       pbuf = pdev->pClass->GetHSConfigDescriptor(&len);
 409:lib/STM32_USB_Device_Library/Core/Src/usbd_ctlreq.c ****       pbuf[1] = USB_DESC_TYPE_CONFIGURATION;
 410:lib/STM32_USB_Device_Library/Core/Src/usbd_ctlreq.c ****     }
 411:lib/STM32_USB_Device_Library/Core/Src/usbd_ctlreq.c ****     else
 412:lib/STM32_USB_Device_Library/Core/Src/usbd_ctlreq.c ****     {
 413:lib/STM32_USB_Device_Library/Core/Src/usbd_ctlreq.c ****       pbuf = pdev->pClass->GetFSConfigDescriptor(&len);
 414:lib/STM32_USB_Device_Library/Core/Src/usbd_ctlreq.c ****       pbuf[1] = USB_DESC_TYPE_CONFIGURATION;
 415:lib/STM32_USB_Device_Library/Core/Src/usbd_ctlreq.c ****     }
 416:lib/STM32_USB_Device_Library/Core/Src/usbd_ctlreq.c ****     break;
 417:lib/STM32_USB_Device_Library/Core/Src/usbd_ctlreq.c **** 
 418:lib/STM32_USB_Device_Library/Core/Src/usbd_ctlreq.c ****   case USB_DESC_TYPE_STRING:
 419:lib/STM32_USB_Device_Library/Core/Src/usbd_ctlreq.c ****     switch ((uint8_t)(req->wValue))
 420:lib/STM32_USB_Device_Library/Core/Src/usbd_ctlreq.c ****     {
 421:lib/STM32_USB_Device_Library/Core/Src/usbd_ctlreq.c ****     case USBD_IDX_LANGID_STR:
 422:lib/STM32_USB_Device_Library/Core/Src/usbd_ctlreq.c ****       if (pdev->pDesc->GetLangIDStrDescriptor != NULL)
 423:lib/STM32_USB_Device_Library/Core/Src/usbd_ctlreq.c ****       {
 424:lib/STM32_USB_Device_Library/Core/Src/usbd_ctlreq.c ****         pbuf = pdev->pDesc->GetLangIDStrDescriptor(pdev->dev_speed, &len);
 425:lib/STM32_USB_Device_Library/Core/Src/usbd_ctlreq.c ****       }
 426:lib/STM32_USB_Device_Library/Core/Src/usbd_ctlreq.c ****       else
 427:lib/STM32_USB_Device_Library/Core/Src/usbd_ctlreq.c ****       {
 428:lib/STM32_USB_Device_Library/Core/Src/usbd_ctlreq.c ****         USBD_CtlError(pdev, req);
 429:lib/STM32_USB_Device_Library/Core/Src/usbd_ctlreq.c ****         err++;
 430:lib/STM32_USB_Device_Library/Core/Src/usbd_ctlreq.c ****       }
ARM GAS  C:\Users\BIGBIG~1\AppData\Local\Temp\cc5naY0b.s 			page 9


 431:lib/STM32_USB_Device_Library/Core/Src/usbd_ctlreq.c ****       break;
 432:lib/STM32_USB_Device_Library/Core/Src/usbd_ctlreq.c **** 
 433:lib/STM32_USB_Device_Library/Core/Src/usbd_ctlreq.c ****     case USBD_IDX_MFC_STR:
 434:lib/STM32_USB_Device_Library/Core/Src/usbd_ctlreq.c ****       if (pdev->pDesc->GetManufacturerStrDescriptor != NULL)
 435:lib/STM32_USB_Device_Library/Core/Src/usbd_ctlreq.c ****       {
 436:lib/STM32_USB_Device_Library/Core/Src/usbd_ctlreq.c ****         pbuf = pdev->pDesc->GetManufacturerStrDescriptor(pdev->dev_speed, &len);
 437:lib/STM32_USB_Device_Library/Core/Src/usbd_ctlreq.c ****       }
 438:lib/STM32_USB_Device_Library/Core/Src/usbd_ctlreq.c ****       else
 439:lib/STM32_USB_Device_Library/Core/Src/usbd_ctlreq.c ****       {
 440:lib/STM32_USB_Device_Library/Core/Src/usbd_ctlreq.c ****         USBD_CtlError(pdev, req);
 441:lib/STM32_USB_Device_Library/Core/Src/usbd_ctlreq.c ****         err++;
 442:lib/STM32_USB_Device_Library/Core/Src/usbd_ctlreq.c ****       }
 443:lib/STM32_USB_Device_Library/Core/Src/usbd_ctlreq.c ****       break;
 444:lib/STM32_USB_Device_Library/Core/Src/usbd_ctlreq.c **** 
 445:lib/STM32_USB_Device_Library/Core/Src/usbd_ctlreq.c ****     case USBD_IDX_PRODUCT_STR:
 446:lib/STM32_USB_Device_Library/Core/Src/usbd_ctlreq.c ****       if (pdev->pDesc->GetProductStrDescriptor != NULL)
 447:lib/STM32_USB_Device_Library/Core/Src/usbd_ctlreq.c ****       {
 448:lib/STM32_USB_Device_Library/Core/Src/usbd_ctlreq.c ****         pbuf = pdev->pDesc->GetProductStrDescriptor(pdev->dev_speed, &len);
 449:lib/STM32_USB_Device_Library/Core/Src/usbd_ctlreq.c ****       }
 450:lib/STM32_USB_Device_Library/Core/Src/usbd_ctlreq.c ****       else
 451:lib/STM32_USB_Device_Library/Core/Src/usbd_ctlreq.c ****       {
 452:lib/STM32_USB_Device_Library/Core/Src/usbd_ctlreq.c ****         USBD_CtlError(pdev, req);
 453:lib/STM32_USB_Device_Library/Core/Src/usbd_ctlreq.c ****         err++;
 454:lib/STM32_USB_Device_Library/Core/Src/usbd_ctlreq.c ****       }
 455:lib/STM32_USB_Device_Library/Core/Src/usbd_ctlreq.c ****       break;
 456:lib/STM32_USB_Device_Library/Core/Src/usbd_ctlreq.c **** 
 457:lib/STM32_USB_Device_Library/Core/Src/usbd_ctlreq.c ****     case USBD_IDX_SERIAL_STR:
 458:lib/STM32_USB_Device_Library/Core/Src/usbd_ctlreq.c ****       if (pdev->pDesc->GetSerialStrDescriptor != NULL)
 459:lib/STM32_USB_Device_Library/Core/Src/usbd_ctlreq.c ****       {
 460:lib/STM32_USB_Device_Library/Core/Src/usbd_ctlreq.c ****         pbuf = pdev->pDesc->GetSerialStrDescriptor(pdev->dev_speed, &len);
 461:lib/STM32_USB_Device_Library/Core/Src/usbd_ctlreq.c ****       }
 462:lib/STM32_USB_Device_Library/Core/Src/usbd_ctlreq.c ****       else
 463:lib/STM32_USB_Device_Library/Core/Src/usbd_ctlreq.c ****       {
 464:lib/STM32_USB_Device_Library/Core/Src/usbd_ctlreq.c ****         USBD_CtlError(pdev, req);
 465:lib/STM32_USB_Device_Library/Core/Src/usbd_ctlreq.c ****         err++;
 466:lib/STM32_USB_Device_Library/Core/Src/usbd_ctlreq.c ****       }
 467:lib/STM32_USB_Device_Library/Core/Src/usbd_ctlreq.c ****       break;
 468:lib/STM32_USB_Device_Library/Core/Src/usbd_ctlreq.c **** 
 469:lib/STM32_USB_Device_Library/Core/Src/usbd_ctlreq.c ****     case USBD_IDX_CONFIG_STR:
 470:lib/STM32_USB_Device_Library/Core/Src/usbd_ctlreq.c ****       if (pdev->pDesc->GetConfigurationStrDescriptor != NULL)
 471:lib/STM32_USB_Device_Library/Core/Src/usbd_ctlreq.c ****       {
 472:lib/STM32_USB_Device_Library/Core/Src/usbd_ctlreq.c ****         pbuf = pdev->pDesc->GetConfigurationStrDescriptor(pdev->dev_speed, &len);
 473:lib/STM32_USB_Device_Library/Core/Src/usbd_ctlreq.c ****       }
 474:lib/STM32_USB_Device_Library/Core/Src/usbd_ctlreq.c ****       else
 475:lib/STM32_USB_Device_Library/Core/Src/usbd_ctlreq.c ****       {
 476:lib/STM32_USB_Device_Library/Core/Src/usbd_ctlreq.c ****         USBD_CtlError(pdev, req);
 477:lib/STM32_USB_Device_Library/Core/Src/usbd_ctlreq.c ****         err++;
 478:lib/STM32_USB_Device_Library/Core/Src/usbd_ctlreq.c ****       }
 479:lib/STM32_USB_Device_Library/Core/Src/usbd_ctlreq.c ****       break;
 480:lib/STM32_USB_Device_Library/Core/Src/usbd_ctlreq.c **** 
 481:lib/STM32_USB_Device_Library/Core/Src/usbd_ctlreq.c ****     case USBD_IDX_INTERFACE_STR:
 482:lib/STM32_USB_Device_Library/Core/Src/usbd_ctlreq.c ****       if (pdev->pDesc->GetInterfaceStrDescriptor != NULL)
 483:lib/STM32_USB_Device_Library/Core/Src/usbd_ctlreq.c ****       {
 484:lib/STM32_USB_Device_Library/Core/Src/usbd_ctlreq.c ****         pbuf = pdev->pDesc->GetInterfaceStrDescriptor(pdev->dev_speed, &len);
 485:lib/STM32_USB_Device_Library/Core/Src/usbd_ctlreq.c ****       }
 486:lib/STM32_USB_Device_Library/Core/Src/usbd_ctlreq.c ****       else
 487:lib/STM32_USB_Device_Library/Core/Src/usbd_ctlreq.c ****       {
ARM GAS  C:\Users\BIGBIG~1\AppData\Local\Temp\cc5naY0b.s 			page 10


 488:lib/STM32_USB_Device_Library/Core/Src/usbd_ctlreq.c ****         USBD_CtlError(pdev, req);
 489:lib/STM32_USB_Device_Library/Core/Src/usbd_ctlreq.c ****         err++;
 490:lib/STM32_USB_Device_Library/Core/Src/usbd_ctlreq.c ****       }
 491:lib/STM32_USB_Device_Library/Core/Src/usbd_ctlreq.c ****       break;
 492:lib/STM32_USB_Device_Library/Core/Src/usbd_ctlreq.c **** 
 493:lib/STM32_USB_Device_Library/Core/Src/usbd_ctlreq.c ****     default:
 494:lib/STM32_USB_Device_Library/Core/Src/usbd_ctlreq.c **** #if (USBD_SUPPORT_USER_STRING_DESC == 1U)
 495:lib/STM32_USB_Device_Library/Core/Src/usbd_ctlreq.c ****       if (pdev->pClass->GetUsrStrDescriptor != NULL)
 496:lib/STM32_USB_Device_Library/Core/Src/usbd_ctlreq.c ****       {
 497:lib/STM32_USB_Device_Library/Core/Src/usbd_ctlreq.c ****         pbuf = pdev->pClass->GetUsrStrDescriptor(pdev, (req->wValue), &len);
 498:lib/STM32_USB_Device_Library/Core/Src/usbd_ctlreq.c ****       }
 499:lib/STM32_USB_Device_Library/Core/Src/usbd_ctlreq.c ****       else
 500:lib/STM32_USB_Device_Library/Core/Src/usbd_ctlreq.c ****       {
 501:lib/STM32_USB_Device_Library/Core/Src/usbd_ctlreq.c ****         USBD_CtlError(pdev, req);
 502:lib/STM32_USB_Device_Library/Core/Src/usbd_ctlreq.c ****         err++;
 503:lib/STM32_USB_Device_Library/Core/Src/usbd_ctlreq.c ****       }
 504:lib/STM32_USB_Device_Library/Core/Src/usbd_ctlreq.c **** #elif (USBD_CLASS_USER_STRING_DESC == 1U)
 505:lib/STM32_USB_Device_Library/Core/Src/usbd_ctlreq.c ****       if (pdev->pDesc->GetUserStrDescriptor != NULL)
 506:lib/STM32_USB_Device_Library/Core/Src/usbd_ctlreq.c ****       {
 507:lib/STM32_USB_Device_Library/Core/Src/usbd_ctlreq.c ****         pbuf = pdev->pDesc->GetUserStrDescriptor(pdev->dev_speed, (req->wValue), &len);
 508:lib/STM32_USB_Device_Library/Core/Src/usbd_ctlreq.c ****       }
 509:lib/STM32_USB_Device_Library/Core/Src/usbd_ctlreq.c ****       else
 510:lib/STM32_USB_Device_Library/Core/Src/usbd_ctlreq.c ****       {
 511:lib/STM32_USB_Device_Library/Core/Src/usbd_ctlreq.c ****         USBD_CtlError(pdev, req);
 512:lib/STM32_USB_Device_Library/Core/Src/usbd_ctlreq.c ****         err++;
 513:lib/STM32_USB_Device_Library/Core/Src/usbd_ctlreq.c ****       }
 514:lib/STM32_USB_Device_Library/Core/Src/usbd_ctlreq.c **** #else
 515:lib/STM32_USB_Device_Library/Core/Src/usbd_ctlreq.c ****       USBD_CtlError(pdev, req);
 516:lib/STM32_USB_Device_Library/Core/Src/usbd_ctlreq.c ****       err++;
 517:lib/STM32_USB_Device_Library/Core/Src/usbd_ctlreq.c **** #endif
 518:lib/STM32_USB_Device_Library/Core/Src/usbd_ctlreq.c ****       break;
 519:lib/STM32_USB_Device_Library/Core/Src/usbd_ctlreq.c ****     }
 520:lib/STM32_USB_Device_Library/Core/Src/usbd_ctlreq.c ****     break;
 521:lib/STM32_USB_Device_Library/Core/Src/usbd_ctlreq.c **** 
 522:lib/STM32_USB_Device_Library/Core/Src/usbd_ctlreq.c ****   case USB_DESC_TYPE_DEVICE_QUALIFIER:
 523:lib/STM32_USB_Device_Library/Core/Src/usbd_ctlreq.c ****     if (pdev->dev_speed == USBD_SPEED_HIGH)
 524:lib/STM32_USB_Device_Library/Core/Src/usbd_ctlreq.c ****     {
 525:lib/STM32_USB_Device_Library/Core/Src/usbd_ctlreq.c ****       pbuf = pdev->pClass->GetDeviceQualifierDescriptor(&len);
 526:lib/STM32_USB_Device_Library/Core/Src/usbd_ctlreq.c ****     }
 527:lib/STM32_USB_Device_Library/Core/Src/usbd_ctlreq.c ****     else
 528:lib/STM32_USB_Device_Library/Core/Src/usbd_ctlreq.c ****     {
 529:lib/STM32_USB_Device_Library/Core/Src/usbd_ctlreq.c ****       USBD_CtlError(pdev, req);
 530:lib/STM32_USB_Device_Library/Core/Src/usbd_ctlreq.c ****       err++;
 531:lib/STM32_USB_Device_Library/Core/Src/usbd_ctlreq.c ****     }
 532:lib/STM32_USB_Device_Library/Core/Src/usbd_ctlreq.c ****     break;
 533:lib/STM32_USB_Device_Library/Core/Src/usbd_ctlreq.c **** 
 534:lib/STM32_USB_Device_Library/Core/Src/usbd_ctlreq.c ****   case USB_DESC_TYPE_OTHER_SPEED_CONFIGURATION:
 535:lib/STM32_USB_Device_Library/Core/Src/usbd_ctlreq.c ****     if (pdev->dev_speed == USBD_SPEED_HIGH)
 536:lib/STM32_USB_Device_Library/Core/Src/usbd_ctlreq.c ****     {
 537:lib/STM32_USB_Device_Library/Core/Src/usbd_ctlreq.c ****       pbuf = pdev->pClass->GetOtherSpeedConfigDescriptor(&len);
 538:lib/STM32_USB_Device_Library/Core/Src/usbd_ctlreq.c ****       pbuf[1] = USB_DESC_TYPE_OTHER_SPEED_CONFIGURATION;
 539:lib/STM32_USB_Device_Library/Core/Src/usbd_ctlreq.c ****     }
 540:lib/STM32_USB_Device_Library/Core/Src/usbd_ctlreq.c ****     else
 541:lib/STM32_USB_Device_Library/Core/Src/usbd_ctlreq.c ****     {
 542:lib/STM32_USB_Device_Library/Core/Src/usbd_ctlreq.c ****       USBD_CtlError(pdev, req);
 543:lib/STM32_USB_Device_Library/Core/Src/usbd_ctlreq.c ****       err++;
 544:lib/STM32_USB_Device_Library/Core/Src/usbd_ctlreq.c ****     }
ARM GAS  C:\Users\BIGBIG~1\AppData\Local\Temp\cc5naY0b.s 			page 11


 545:lib/STM32_USB_Device_Library/Core/Src/usbd_ctlreq.c ****     break;
 546:lib/STM32_USB_Device_Library/Core/Src/usbd_ctlreq.c **** 
 547:lib/STM32_USB_Device_Library/Core/Src/usbd_ctlreq.c ****   default:
 548:lib/STM32_USB_Device_Library/Core/Src/usbd_ctlreq.c ****     USBD_CtlError(pdev, req);
 549:lib/STM32_USB_Device_Library/Core/Src/usbd_ctlreq.c ****     err++;
 550:lib/STM32_USB_Device_Library/Core/Src/usbd_ctlreq.c ****     break;
 551:lib/STM32_USB_Device_Library/Core/Src/usbd_ctlreq.c ****   }
 552:lib/STM32_USB_Device_Library/Core/Src/usbd_ctlreq.c **** 
 553:lib/STM32_USB_Device_Library/Core/Src/usbd_ctlreq.c ****   if (err != 0U)
 554:lib/STM32_USB_Device_Library/Core/Src/usbd_ctlreq.c ****   {
 555:lib/STM32_USB_Device_Library/Core/Src/usbd_ctlreq.c ****     return;
 556:lib/STM32_USB_Device_Library/Core/Src/usbd_ctlreq.c ****   }
 557:lib/STM32_USB_Device_Library/Core/Src/usbd_ctlreq.c ****   else
 558:lib/STM32_USB_Device_Library/Core/Src/usbd_ctlreq.c ****   {
 559:lib/STM32_USB_Device_Library/Core/Src/usbd_ctlreq.c ****     if (req->wLength != 0U)
 560:lib/STM32_USB_Device_Library/Core/Src/usbd_ctlreq.c ****     {
 561:lib/STM32_USB_Device_Library/Core/Src/usbd_ctlreq.c ****       if (len != 0U)
 562:lib/STM32_USB_Device_Library/Core/Src/usbd_ctlreq.c ****       {
 563:lib/STM32_USB_Device_Library/Core/Src/usbd_ctlreq.c ****         len = MIN(len, req->wLength);
 564:lib/STM32_USB_Device_Library/Core/Src/usbd_ctlreq.c ****         (void)USBD_CtlSendData(pdev, pbuf, len);
 565:lib/STM32_USB_Device_Library/Core/Src/usbd_ctlreq.c ****       }
 566:lib/STM32_USB_Device_Library/Core/Src/usbd_ctlreq.c ****       else
 567:lib/STM32_USB_Device_Library/Core/Src/usbd_ctlreq.c ****       {
 568:lib/STM32_USB_Device_Library/Core/Src/usbd_ctlreq.c ****         USBD_CtlError(pdev, req);
 569:lib/STM32_USB_Device_Library/Core/Src/usbd_ctlreq.c ****       }
 570:lib/STM32_USB_Device_Library/Core/Src/usbd_ctlreq.c ****     }
 571:lib/STM32_USB_Device_Library/Core/Src/usbd_ctlreq.c ****     else
 572:lib/STM32_USB_Device_Library/Core/Src/usbd_ctlreq.c ****     {
 573:lib/STM32_USB_Device_Library/Core/Src/usbd_ctlreq.c ****       (void)USBD_CtlSendStatus(pdev);
 574:lib/STM32_USB_Device_Library/Core/Src/usbd_ctlreq.c ****     }
 575:lib/STM32_USB_Device_Library/Core/Src/usbd_ctlreq.c ****   }
 576:lib/STM32_USB_Device_Library/Core/Src/usbd_ctlreq.c **** }
 577:lib/STM32_USB_Device_Library/Core/Src/usbd_ctlreq.c **** 
 578:lib/STM32_USB_Device_Library/Core/Src/usbd_ctlreq.c **** /**
 579:lib/STM32_USB_Device_Library/Core/Src/usbd_ctlreq.c **** * @brief  USBD_SetAddress
 580:lib/STM32_USB_Device_Library/Core/Src/usbd_ctlreq.c **** *         Set device address
 581:lib/STM32_USB_Device_Library/Core/Src/usbd_ctlreq.c **** * @param  pdev: device instance
 582:lib/STM32_USB_Device_Library/Core/Src/usbd_ctlreq.c **** * @param  req: usb request
 583:lib/STM32_USB_Device_Library/Core/Src/usbd_ctlreq.c **** * @retval status
 584:lib/STM32_USB_Device_Library/Core/Src/usbd_ctlreq.c **** */
 585:lib/STM32_USB_Device_Library/Core/Src/usbd_ctlreq.c **** static void USBD_SetAddress(USBD_HandleTypeDef *pdev, USBD_SetupReqTypedef *req)
 586:lib/STM32_USB_Device_Library/Core/Src/usbd_ctlreq.c **** {
 587:lib/STM32_USB_Device_Library/Core/Src/usbd_ctlreq.c ****   uint8_t  dev_addr;
 588:lib/STM32_USB_Device_Library/Core/Src/usbd_ctlreq.c **** 
 589:lib/STM32_USB_Device_Library/Core/Src/usbd_ctlreq.c ****   if ((req->wIndex == 0U) && (req->wLength == 0U) && (req->wValue < 128U))
 590:lib/STM32_USB_Device_Library/Core/Src/usbd_ctlreq.c ****   {
 591:lib/STM32_USB_Device_Library/Core/Src/usbd_ctlreq.c ****     dev_addr = (uint8_t)(req->wValue) & 0x7FU;
 592:lib/STM32_USB_Device_Library/Core/Src/usbd_ctlreq.c **** 
 593:lib/STM32_USB_Device_Library/Core/Src/usbd_ctlreq.c ****     if (pdev->dev_state == USBD_STATE_CONFIGURED)
 594:lib/STM32_USB_Device_Library/Core/Src/usbd_ctlreq.c ****     {
 595:lib/STM32_USB_Device_Library/Core/Src/usbd_ctlreq.c ****       USBD_CtlError(pdev, req);
 596:lib/STM32_USB_Device_Library/Core/Src/usbd_ctlreq.c ****     }
 597:lib/STM32_USB_Device_Library/Core/Src/usbd_ctlreq.c ****     else
 598:lib/STM32_USB_Device_Library/Core/Src/usbd_ctlreq.c ****     {
 599:lib/STM32_USB_Device_Library/Core/Src/usbd_ctlreq.c ****       pdev->dev_address = dev_addr;
 600:lib/STM32_USB_Device_Library/Core/Src/usbd_ctlreq.c ****       (void)USBD_LL_SetUSBAddress(pdev, dev_addr);
 601:lib/STM32_USB_Device_Library/Core/Src/usbd_ctlreq.c ****       (void)USBD_CtlSendStatus(pdev);
ARM GAS  C:\Users\BIGBIG~1\AppData\Local\Temp\cc5naY0b.s 			page 12


 602:lib/STM32_USB_Device_Library/Core/Src/usbd_ctlreq.c **** 
 603:lib/STM32_USB_Device_Library/Core/Src/usbd_ctlreq.c ****       if (dev_addr != 0U)
 604:lib/STM32_USB_Device_Library/Core/Src/usbd_ctlreq.c ****       {
 605:lib/STM32_USB_Device_Library/Core/Src/usbd_ctlreq.c ****         pdev->dev_state = USBD_STATE_ADDRESSED;
 606:lib/STM32_USB_Device_Library/Core/Src/usbd_ctlreq.c ****       }
 607:lib/STM32_USB_Device_Library/Core/Src/usbd_ctlreq.c ****       else
 608:lib/STM32_USB_Device_Library/Core/Src/usbd_ctlreq.c ****       {
 609:lib/STM32_USB_Device_Library/Core/Src/usbd_ctlreq.c ****         pdev->dev_state = USBD_STATE_DEFAULT;
 610:lib/STM32_USB_Device_Library/Core/Src/usbd_ctlreq.c ****       }
 611:lib/STM32_USB_Device_Library/Core/Src/usbd_ctlreq.c ****     }
 612:lib/STM32_USB_Device_Library/Core/Src/usbd_ctlreq.c ****   }
 613:lib/STM32_USB_Device_Library/Core/Src/usbd_ctlreq.c ****   else
 614:lib/STM32_USB_Device_Library/Core/Src/usbd_ctlreq.c ****   {
 615:lib/STM32_USB_Device_Library/Core/Src/usbd_ctlreq.c ****     USBD_CtlError(pdev, req);
 616:lib/STM32_USB_Device_Library/Core/Src/usbd_ctlreq.c ****   }
 617:lib/STM32_USB_Device_Library/Core/Src/usbd_ctlreq.c **** }
 618:lib/STM32_USB_Device_Library/Core/Src/usbd_ctlreq.c **** 
 619:lib/STM32_USB_Device_Library/Core/Src/usbd_ctlreq.c **** /**
 620:lib/STM32_USB_Device_Library/Core/Src/usbd_ctlreq.c **** * @brief  USBD_SetConfig
 621:lib/STM32_USB_Device_Library/Core/Src/usbd_ctlreq.c **** *         Handle Set device configuration request
 622:lib/STM32_USB_Device_Library/Core/Src/usbd_ctlreq.c **** * @param  pdev: device instance
 623:lib/STM32_USB_Device_Library/Core/Src/usbd_ctlreq.c **** * @param  req: usb request
 624:lib/STM32_USB_Device_Library/Core/Src/usbd_ctlreq.c **** * @retval status
 625:lib/STM32_USB_Device_Library/Core/Src/usbd_ctlreq.c **** */
 626:lib/STM32_USB_Device_Library/Core/Src/usbd_ctlreq.c **** static USBD_StatusTypeDef USBD_SetConfig(USBD_HandleTypeDef *pdev, USBD_SetupReqTypedef *req)
 627:lib/STM32_USB_Device_Library/Core/Src/usbd_ctlreq.c **** {
 628:lib/STM32_USB_Device_Library/Core/Src/usbd_ctlreq.c ****   USBD_StatusTypeDef ret = USBD_OK;
 629:lib/STM32_USB_Device_Library/Core/Src/usbd_ctlreq.c ****   static uint8_t cfgidx;
 630:lib/STM32_USB_Device_Library/Core/Src/usbd_ctlreq.c **** 
 631:lib/STM32_USB_Device_Library/Core/Src/usbd_ctlreq.c ****   cfgidx = (uint8_t)(req->wValue);
 632:lib/STM32_USB_Device_Library/Core/Src/usbd_ctlreq.c **** 
 633:lib/STM32_USB_Device_Library/Core/Src/usbd_ctlreq.c ****   if (cfgidx > USBD_MAX_NUM_CONFIGURATION)
 634:lib/STM32_USB_Device_Library/Core/Src/usbd_ctlreq.c ****   {
 635:lib/STM32_USB_Device_Library/Core/Src/usbd_ctlreq.c ****     USBD_CtlError(pdev, req);
 636:lib/STM32_USB_Device_Library/Core/Src/usbd_ctlreq.c ****     return USBD_FAIL;
 637:lib/STM32_USB_Device_Library/Core/Src/usbd_ctlreq.c ****   }
 638:lib/STM32_USB_Device_Library/Core/Src/usbd_ctlreq.c **** 
 639:lib/STM32_USB_Device_Library/Core/Src/usbd_ctlreq.c ****   switch (pdev->dev_state)
 640:lib/STM32_USB_Device_Library/Core/Src/usbd_ctlreq.c ****   {
 641:lib/STM32_USB_Device_Library/Core/Src/usbd_ctlreq.c ****   case USBD_STATE_ADDRESSED:
 642:lib/STM32_USB_Device_Library/Core/Src/usbd_ctlreq.c ****     if (cfgidx != 0U)
 643:lib/STM32_USB_Device_Library/Core/Src/usbd_ctlreq.c ****     {
 644:lib/STM32_USB_Device_Library/Core/Src/usbd_ctlreq.c ****       pdev->dev_config = cfgidx;
 645:lib/STM32_USB_Device_Library/Core/Src/usbd_ctlreq.c **** 
 646:lib/STM32_USB_Device_Library/Core/Src/usbd_ctlreq.c ****       ret = USBD_SetClassConfig(pdev, cfgidx);
 647:lib/STM32_USB_Device_Library/Core/Src/usbd_ctlreq.c **** 
 648:lib/STM32_USB_Device_Library/Core/Src/usbd_ctlreq.c ****       if (ret != USBD_OK)
 649:lib/STM32_USB_Device_Library/Core/Src/usbd_ctlreq.c ****       {
 650:lib/STM32_USB_Device_Library/Core/Src/usbd_ctlreq.c ****         USBD_CtlError(pdev, req);
 651:lib/STM32_USB_Device_Library/Core/Src/usbd_ctlreq.c ****       }
 652:lib/STM32_USB_Device_Library/Core/Src/usbd_ctlreq.c ****       else
 653:lib/STM32_USB_Device_Library/Core/Src/usbd_ctlreq.c ****       {
 654:lib/STM32_USB_Device_Library/Core/Src/usbd_ctlreq.c ****         (void)USBD_CtlSendStatus(pdev);
 655:lib/STM32_USB_Device_Library/Core/Src/usbd_ctlreq.c ****         pdev->dev_state = USBD_STATE_CONFIGURED;
 656:lib/STM32_USB_Device_Library/Core/Src/usbd_ctlreq.c ****       }
 657:lib/STM32_USB_Device_Library/Core/Src/usbd_ctlreq.c ****     }
 658:lib/STM32_USB_Device_Library/Core/Src/usbd_ctlreq.c ****     else
ARM GAS  C:\Users\BIGBIG~1\AppData\Local\Temp\cc5naY0b.s 			page 13


 659:lib/STM32_USB_Device_Library/Core/Src/usbd_ctlreq.c ****     {
 660:lib/STM32_USB_Device_Library/Core/Src/usbd_ctlreq.c ****       (void)USBD_CtlSendStatus(pdev);
 661:lib/STM32_USB_Device_Library/Core/Src/usbd_ctlreq.c ****     }
 662:lib/STM32_USB_Device_Library/Core/Src/usbd_ctlreq.c ****     break;
 663:lib/STM32_USB_Device_Library/Core/Src/usbd_ctlreq.c **** 
 664:lib/STM32_USB_Device_Library/Core/Src/usbd_ctlreq.c ****   case USBD_STATE_CONFIGURED:
 665:lib/STM32_USB_Device_Library/Core/Src/usbd_ctlreq.c ****     if (cfgidx == 0U)
 666:lib/STM32_USB_Device_Library/Core/Src/usbd_ctlreq.c ****     {
 667:lib/STM32_USB_Device_Library/Core/Src/usbd_ctlreq.c ****       pdev->dev_state = USBD_STATE_ADDRESSED;
 668:lib/STM32_USB_Device_Library/Core/Src/usbd_ctlreq.c ****       pdev->dev_config = cfgidx;
 669:lib/STM32_USB_Device_Library/Core/Src/usbd_ctlreq.c ****       (void)USBD_ClrClassConfig(pdev, cfgidx);
 670:lib/STM32_USB_Device_Library/Core/Src/usbd_ctlreq.c ****       (void)USBD_CtlSendStatus(pdev);
 671:lib/STM32_USB_Device_Library/Core/Src/usbd_ctlreq.c ****     }
 672:lib/STM32_USB_Device_Library/Core/Src/usbd_ctlreq.c ****     else if (cfgidx != pdev->dev_config)
 673:lib/STM32_USB_Device_Library/Core/Src/usbd_ctlreq.c ****     {
 674:lib/STM32_USB_Device_Library/Core/Src/usbd_ctlreq.c ****       /* Clear old configuration */
 675:lib/STM32_USB_Device_Library/Core/Src/usbd_ctlreq.c ****       (void)USBD_ClrClassConfig(pdev, (uint8_t)pdev->dev_config);
 676:lib/STM32_USB_Device_Library/Core/Src/usbd_ctlreq.c **** 
 677:lib/STM32_USB_Device_Library/Core/Src/usbd_ctlreq.c ****       /* set new configuration */
 678:lib/STM32_USB_Device_Library/Core/Src/usbd_ctlreq.c ****       pdev->dev_config = cfgidx;
 679:lib/STM32_USB_Device_Library/Core/Src/usbd_ctlreq.c **** 
 680:lib/STM32_USB_Device_Library/Core/Src/usbd_ctlreq.c ****       ret = USBD_SetClassConfig(pdev, cfgidx);
 681:lib/STM32_USB_Device_Library/Core/Src/usbd_ctlreq.c **** 
 682:lib/STM32_USB_Device_Library/Core/Src/usbd_ctlreq.c ****       if (ret != USBD_OK)
 683:lib/STM32_USB_Device_Library/Core/Src/usbd_ctlreq.c ****       {
 684:lib/STM32_USB_Device_Library/Core/Src/usbd_ctlreq.c ****         USBD_CtlError(pdev, req);
 685:lib/STM32_USB_Device_Library/Core/Src/usbd_ctlreq.c ****         (void)USBD_ClrClassConfig(pdev, (uint8_t)pdev->dev_config);
 686:lib/STM32_USB_Device_Library/Core/Src/usbd_ctlreq.c ****         pdev->dev_state = USBD_STATE_ADDRESSED;
 687:lib/STM32_USB_Device_Library/Core/Src/usbd_ctlreq.c ****       }
 688:lib/STM32_USB_Device_Library/Core/Src/usbd_ctlreq.c ****       else
 689:lib/STM32_USB_Device_Library/Core/Src/usbd_ctlreq.c ****       {
 690:lib/STM32_USB_Device_Library/Core/Src/usbd_ctlreq.c ****         (void)USBD_CtlSendStatus(pdev);
 691:lib/STM32_USB_Device_Library/Core/Src/usbd_ctlreq.c ****       }
 692:lib/STM32_USB_Device_Library/Core/Src/usbd_ctlreq.c ****     }
 693:lib/STM32_USB_Device_Library/Core/Src/usbd_ctlreq.c ****     else
 694:lib/STM32_USB_Device_Library/Core/Src/usbd_ctlreq.c ****     {
 695:lib/STM32_USB_Device_Library/Core/Src/usbd_ctlreq.c ****       (void)USBD_CtlSendStatus(pdev);
 696:lib/STM32_USB_Device_Library/Core/Src/usbd_ctlreq.c ****     }
 697:lib/STM32_USB_Device_Library/Core/Src/usbd_ctlreq.c ****     break;
 698:lib/STM32_USB_Device_Library/Core/Src/usbd_ctlreq.c **** 
 699:lib/STM32_USB_Device_Library/Core/Src/usbd_ctlreq.c ****   default:
 700:lib/STM32_USB_Device_Library/Core/Src/usbd_ctlreq.c ****     USBD_CtlError(pdev, req);
 701:lib/STM32_USB_Device_Library/Core/Src/usbd_ctlreq.c ****     (void)USBD_ClrClassConfig(pdev, cfgidx);
 702:lib/STM32_USB_Device_Library/Core/Src/usbd_ctlreq.c ****     ret = USBD_FAIL;
 703:lib/STM32_USB_Device_Library/Core/Src/usbd_ctlreq.c ****     break;
 704:lib/STM32_USB_Device_Library/Core/Src/usbd_ctlreq.c ****   }
 705:lib/STM32_USB_Device_Library/Core/Src/usbd_ctlreq.c **** 
 706:lib/STM32_USB_Device_Library/Core/Src/usbd_ctlreq.c ****   return ret;
 707:lib/STM32_USB_Device_Library/Core/Src/usbd_ctlreq.c **** }
 708:lib/STM32_USB_Device_Library/Core/Src/usbd_ctlreq.c **** 
 709:lib/STM32_USB_Device_Library/Core/Src/usbd_ctlreq.c **** /**
 710:lib/STM32_USB_Device_Library/Core/Src/usbd_ctlreq.c **** * @brief  USBD_GetConfig
 711:lib/STM32_USB_Device_Library/Core/Src/usbd_ctlreq.c **** *         Handle Get device configuration request
 712:lib/STM32_USB_Device_Library/Core/Src/usbd_ctlreq.c **** * @param  pdev: device instance
 713:lib/STM32_USB_Device_Library/Core/Src/usbd_ctlreq.c **** * @param  req: usb request
 714:lib/STM32_USB_Device_Library/Core/Src/usbd_ctlreq.c **** * @retval status
 715:lib/STM32_USB_Device_Library/Core/Src/usbd_ctlreq.c **** */
ARM GAS  C:\Users\BIGBIG~1\AppData\Local\Temp\cc5naY0b.s 			page 14


 716:lib/STM32_USB_Device_Library/Core/Src/usbd_ctlreq.c **** static void USBD_GetConfig(USBD_HandleTypeDef *pdev, USBD_SetupReqTypedef *req)
 717:lib/STM32_USB_Device_Library/Core/Src/usbd_ctlreq.c **** {
 718:lib/STM32_USB_Device_Library/Core/Src/usbd_ctlreq.c ****   if (req->wLength != 1U)
 719:lib/STM32_USB_Device_Library/Core/Src/usbd_ctlreq.c ****   {
 720:lib/STM32_USB_Device_Library/Core/Src/usbd_ctlreq.c ****     USBD_CtlError(pdev, req);
 721:lib/STM32_USB_Device_Library/Core/Src/usbd_ctlreq.c ****   }
 722:lib/STM32_USB_Device_Library/Core/Src/usbd_ctlreq.c ****   else
 723:lib/STM32_USB_Device_Library/Core/Src/usbd_ctlreq.c ****   {
 724:lib/STM32_USB_Device_Library/Core/Src/usbd_ctlreq.c ****     switch (pdev->dev_state)
 725:lib/STM32_USB_Device_Library/Core/Src/usbd_ctlreq.c ****     {
 726:lib/STM32_USB_Device_Library/Core/Src/usbd_ctlreq.c ****     case USBD_STATE_DEFAULT:
 727:lib/STM32_USB_Device_Library/Core/Src/usbd_ctlreq.c ****     case USBD_STATE_ADDRESSED:
 728:lib/STM32_USB_Device_Library/Core/Src/usbd_ctlreq.c ****       pdev->dev_default_config = 0U;
 729:lib/STM32_USB_Device_Library/Core/Src/usbd_ctlreq.c ****       (void)USBD_CtlSendData(pdev, (uint8_t *)&pdev->dev_default_config, 1U);
 730:lib/STM32_USB_Device_Library/Core/Src/usbd_ctlreq.c ****       break;
 731:lib/STM32_USB_Device_Library/Core/Src/usbd_ctlreq.c **** 
 732:lib/STM32_USB_Device_Library/Core/Src/usbd_ctlreq.c ****     case USBD_STATE_CONFIGURED:
 733:lib/STM32_USB_Device_Library/Core/Src/usbd_ctlreq.c ****       (void)USBD_CtlSendData(pdev, (uint8_t *)&pdev->dev_config, 1U);
 734:lib/STM32_USB_Device_Library/Core/Src/usbd_ctlreq.c ****       break;
 735:lib/STM32_USB_Device_Library/Core/Src/usbd_ctlreq.c **** 
 736:lib/STM32_USB_Device_Library/Core/Src/usbd_ctlreq.c ****     default:
 737:lib/STM32_USB_Device_Library/Core/Src/usbd_ctlreq.c ****       USBD_CtlError(pdev, req);
 738:lib/STM32_USB_Device_Library/Core/Src/usbd_ctlreq.c ****       break;
 739:lib/STM32_USB_Device_Library/Core/Src/usbd_ctlreq.c ****     }
 740:lib/STM32_USB_Device_Library/Core/Src/usbd_ctlreq.c ****   }
 741:lib/STM32_USB_Device_Library/Core/Src/usbd_ctlreq.c **** }
 742:lib/STM32_USB_Device_Library/Core/Src/usbd_ctlreq.c **** 
 743:lib/STM32_USB_Device_Library/Core/Src/usbd_ctlreq.c **** /**
 744:lib/STM32_USB_Device_Library/Core/Src/usbd_ctlreq.c **** * @brief  USBD_GetStatus
 745:lib/STM32_USB_Device_Library/Core/Src/usbd_ctlreq.c **** *         Handle Get Status request
 746:lib/STM32_USB_Device_Library/Core/Src/usbd_ctlreq.c **** * @param  pdev: device instance
 747:lib/STM32_USB_Device_Library/Core/Src/usbd_ctlreq.c **** * @param  req: usb request
 748:lib/STM32_USB_Device_Library/Core/Src/usbd_ctlreq.c **** * @retval status
 749:lib/STM32_USB_Device_Library/Core/Src/usbd_ctlreq.c **** */
 750:lib/STM32_USB_Device_Library/Core/Src/usbd_ctlreq.c **** static void USBD_GetStatus(USBD_HandleTypeDef *pdev, USBD_SetupReqTypedef *req)
 751:lib/STM32_USB_Device_Library/Core/Src/usbd_ctlreq.c **** {
 752:lib/STM32_USB_Device_Library/Core/Src/usbd_ctlreq.c ****   switch (pdev->dev_state)
 753:lib/STM32_USB_Device_Library/Core/Src/usbd_ctlreq.c ****   {
 754:lib/STM32_USB_Device_Library/Core/Src/usbd_ctlreq.c ****   case USBD_STATE_DEFAULT:
 755:lib/STM32_USB_Device_Library/Core/Src/usbd_ctlreq.c ****   case USBD_STATE_ADDRESSED:
 756:lib/STM32_USB_Device_Library/Core/Src/usbd_ctlreq.c ****   case USBD_STATE_CONFIGURED:
 757:lib/STM32_USB_Device_Library/Core/Src/usbd_ctlreq.c ****     if (req->wLength != 0x2U)
 758:lib/STM32_USB_Device_Library/Core/Src/usbd_ctlreq.c ****     {
 759:lib/STM32_USB_Device_Library/Core/Src/usbd_ctlreq.c ****       USBD_CtlError(pdev, req);
 760:lib/STM32_USB_Device_Library/Core/Src/usbd_ctlreq.c ****       break;
 761:lib/STM32_USB_Device_Library/Core/Src/usbd_ctlreq.c ****     }
 762:lib/STM32_USB_Device_Library/Core/Src/usbd_ctlreq.c **** 
 763:lib/STM32_USB_Device_Library/Core/Src/usbd_ctlreq.c **** #if (USBD_SELF_POWERED == 1U)
 764:lib/STM32_USB_Device_Library/Core/Src/usbd_ctlreq.c ****     pdev->dev_config_status = USB_CONFIG_SELF_POWERED;
 765:lib/STM32_USB_Device_Library/Core/Src/usbd_ctlreq.c **** #else
 766:lib/STM32_USB_Device_Library/Core/Src/usbd_ctlreq.c ****     pdev->dev_config_status = 0U;
 767:lib/STM32_USB_Device_Library/Core/Src/usbd_ctlreq.c **** #endif
 768:lib/STM32_USB_Device_Library/Core/Src/usbd_ctlreq.c **** 
 769:lib/STM32_USB_Device_Library/Core/Src/usbd_ctlreq.c ****     if (pdev->dev_remote_wakeup != 0U)
 770:lib/STM32_USB_Device_Library/Core/Src/usbd_ctlreq.c ****     {
 771:lib/STM32_USB_Device_Library/Core/Src/usbd_ctlreq.c ****       pdev->dev_config_status |= USB_CONFIG_REMOTE_WAKEUP;
 772:lib/STM32_USB_Device_Library/Core/Src/usbd_ctlreq.c ****     }
ARM GAS  C:\Users\BIGBIG~1\AppData\Local\Temp\cc5naY0b.s 			page 15


 773:lib/STM32_USB_Device_Library/Core/Src/usbd_ctlreq.c **** 
 774:lib/STM32_USB_Device_Library/Core/Src/usbd_ctlreq.c ****     (void)USBD_CtlSendData(pdev, (uint8_t *)&pdev->dev_config_status, 2U);
 775:lib/STM32_USB_Device_Library/Core/Src/usbd_ctlreq.c ****     break;
 776:lib/STM32_USB_Device_Library/Core/Src/usbd_ctlreq.c **** 
 777:lib/STM32_USB_Device_Library/Core/Src/usbd_ctlreq.c ****   default:
 778:lib/STM32_USB_Device_Library/Core/Src/usbd_ctlreq.c ****     USBD_CtlError(pdev, req);
 779:lib/STM32_USB_Device_Library/Core/Src/usbd_ctlreq.c ****     break;
 780:lib/STM32_USB_Device_Library/Core/Src/usbd_ctlreq.c ****   }
 781:lib/STM32_USB_Device_Library/Core/Src/usbd_ctlreq.c **** }
 782:lib/STM32_USB_Device_Library/Core/Src/usbd_ctlreq.c **** 
 783:lib/STM32_USB_Device_Library/Core/Src/usbd_ctlreq.c **** 
 784:lib/STM32_USB_Device_Library/Core/Src/usbd_ctlreq.c **** /**
 785:lib/STM32_USB_Device_Library/Core/Src/usbd_ctlreq.c **** * @brief  USBD_SetFeature
 786:lib/STM32_USB_Device_Library/Core/Src/usbd_ctlreq.c **** *         Handle Set device feature request
 787:lib/STM32_USB_Device_Library/Core/Src/usbd_ctlreq.c **** * @param  pdev: device instance
 788:lib/STM32_USB_Device_Library/Core/Src/usbd_ctlreq.c **** * @param  req: usb request
 789:lib/STM32_USB_Device_Library/Core/Src/usbd_ctlreq.c **** * @retval status
 790:lib/STM32_USB_Device_Library/Core/Src/usbd_ctlreq.c **** */
 791:lib/STM32_USB_Device_Library/Core/Src/usbd_ctlreq.c **** static void USBD_SetFeature(USBD_HandleTypeDef *pdev, USBD_SetupReqTypedef *req)
 792:lib/STM32_USB_Device_Library/Core/Src/usbd_ctlreq.c **** {
 793:lib/STM32_USB_Device_Library/Core/Src/usbd_ctlreq.c ****   if (req->wValue == USB_FEATURE_REMOTE_WAKEUP)
 794:lib/STM32_USB_Device_Library/Core/Src/usbd_ctlreq.c ****   {
 795:lib/STM32_USB_Device_Library/Core/Src/usbd_ctlreq.c ****     pdev->dev_remote_wakeup = 1U;
 796:lib/STM32_USB_Device_Library/Core/Src/usbd_ctlreq.c ****     (void)USBD_CtlSendStatus(pdev);
 797:lib/STM32_USB_Device_Library/Core/Src/usbd_ctlreq.c ****   }
 798:lib/STM32_USB_Device_Library/Core/Src/usbd_ctlreq.c **** }
 799:lib/STM32_USB_Device_Library/Core/Src/usbd_ctlreq.c **** 
 800:lib/STM32_USB_Device_Library/Core/Src/usbd_ctlreq.c **** 
 801:lib/STM32_USB_Device_Library/Core/Src/usbd_ctlreq.c **** /**
 802:lib/STM32_USB_Device_Library/Core/Src/usbd_ctlreq.c **** * @brief  USBD_ClrFeature
 803:lib/STM32_USB_Device_Library/Core/Src/usbd_ctlreq.c **** *         Handle clear device feature request
 804:lib/STM32_USB_Device_Library/Core/Src/usbd_ctlreq.c **** * @param  pdev: device instance
 805:lib/STM32_USB_Device_Library/Core/Src/usbd_ctlreq.c **** * @param  req: usb request
 806:lib/STM32_USB_Device_Library/Core/Src/usbd_ctlreq.c **** * @retval status
 807:lib/STM32_USB_Device_Library/Core/Src/usbd_ctlreq.c **** */
 808:lib/STM32_USB_Device_Library/Core/Src/usbd_ctlreq.c **** static void USBD_ClrFeature(USBD_HandleTypeDef *pdev, USBD_SetupReqTypedef *req)
 809:lib/STM32_USB_Device_Library/Core/Src/usbd_ctlreq.c **** {
 810:lib/STM32_USB_Device_Library/Core/Src/usbd_ctlreq.c ****   switch (pdev->dev_state)
 811:lib/STM32_USB_Device_Library/Core/Src/usbd_ctlreq.c ****   {
 812:lib/STM32_USB_Device_Library/Core/Src/usbd_ctlreq.c ****     case USBD_STATE_DEFAULT:
 813:lib/STM32_USB_Device_Library/Core/Src/usbd_ctlreq.c ****     case USBD_STATE_ADDRESSED:
 814:lib/STM32_USB_Device_Library/Core/Src/usbd_ctlreq.c ****     case USBD_STATE_CONFIGURED:
 815:lib/STM32_USB_Device_Library/Core/Src/usbd_ctlreq.c ****       if (req->wValue == USB_FEATURE_REMOTE_WAKEUP)
 816:lib/STM32_USB_Device_Library/Core/Src/usbd_ctlreq.c ****       {
 817:lib/STM32_USB_Device_Library/Core/Src/usbd_ctlreq.c ****         pdev->dev_remote_wakeup = 0U;
 818:lib/STM32_USB_Device_Library/Core/Src/usbd_ctlreq.c ****         (void)USBD_CtlSendStatus(pdev);
 819:lib/STM32_USB_Device_Library/Core/Src/usbd_ctlreq.c ****       }
 820:lib/STM32_USB_Device_Library/Core/Src/usbd_ctlreq.c ****       break;
 821:lib/STM32_USB_Device_Library/Core/Src/usbd_ctlreq.c **** 
 822:lib/STM32_USB_Device_Library/Core/Src/usbd_ctlreq.c ****     default:
 823:lib/STM32_USB_Device_Library/Core/Src/usbd_ctlreq.c ****       USBD_CtlError(pdev, req);
 824:lib/STM32_USB_Device_Library/Core/Src/usbd_ctlreq.c ****       break;
 825:lib/STM32_USB_Device_Library/Core/Src/usbd_ctlreq.c ****   }
 826:lib/STM32_USB_Device_Library/Core/Src/usbd_ctlreq.c **** }
 827:lib/STM32_USB_Device_Library/Core/Src/usbd_ctlreq.c **** 
 828:lib/STM32_USB_Device_Library/Core/Src/usbd_ctlreq.c **** /**
 829:lib/STM32_USB_Device_Library/Core/Src/usbd_ctlreq.c **** * @brief  USBD_ParseSetupRequest
ARM GAS  C:\Users\BIGBIG~1\AppData\Local\Temp\cc5naY0b.s 			page 16


 830:lib/STM32_USB_Device_Library/Core/Src/usbd_ctlreq.c **** *         Copy buffer into setup structure
 831:lib/STM32_USB_Device_Library/Core/Src/usbd_ctlreq.c **** * @param  pdev: device instance
 832:lib/STM32_USB_Device_Library/Core/Src/usbd_ctlreq.c **** * @param  req: usb request
 833:lib/STM32_USB_Device_Library/Core/Src/usbd_ctlreq.c **** * @retval None
 834:lib/STM32_USB_Device_Library/Core/Src/usbd_ctlreq.c **** */
 835:lib/STM32_USB_Device_Library/Core/Src/usbd_ctlreq.c **** 
 836:lib/STM32_USB_Device_Library/Core/Src/usbd_ctlreq.c **** void USBD_ParseSetupRequest(USBD_SetupReqTypedef *req, uint8_t *pdata)
 837:lib/STM32_USB_Device_Library/Core/Src/usbd_ctlreq.c **** {
 838:lib/STM32_USB_Device_Library/Core/Src/usbd_ctlreq.c ****   uint8_t *pbuff = pdata;
 839:lib/STM32_USB_Device_Library/Core/Src/usbd_ctlreq.c **** 
 840:lib/STM32_USB_Device_Library/Core/Src/usbd_ctlreq.c ****   req->bmRequest = *(uint8_t *)(pbuff);
 841:lib/STM32_USB_Device_Library/Core/Src/usbd_ctlreq.c **** 
 842:lib/STM32_USB_Device_Library/Core/Src/usbd_ctlreq.c ****   pbuff++;
 843:lib/STM32_USB_Device_Library/Core/Src/usbd_ctlreq.c ****   req->bRequest = *(uint8_t *)(pbuff);
 844:lib/STM32_USB_Device_Library/Core/Src/usbd_ctlreq.c **** 
 845:lib/STM32_USB_Device_Library/Core/Src/usbd_ctlreq.c ****   pbuff++;
 846:lib/STM32_USB_Device_Library/Core/Src/usbd_ctlreq.c ****   req->wValue = SWAPBYTE(pbuff);
 847:lib/STM32_USB_Device_Library/Core/Src/usbd_ctlreq.c **** 
 848:lib/STM32_USB_Device_Library/Core/Src/usbd_ctlreq.c ****   pbuff++;
 849:lib/STM32_USB_Device_Library/Core/Src/usbd_ctlreq.c ****   pbuff++;
 850:lib/STM32_USB_Device_Library/Core/Src/usbd_ctlreq.c ****   req->wIndex = SWAPBYTE(pbuff);
 851:lib/STM32_USB_Device_Library/Core/Src/usbd_ctlreq.c **** 
 852:lib/STM32_USB_Device_Library/Core/Src/usbd_ctlreq.c ****   pbuff++;
 853:lib/STM32_USB_Device_Library/Core/Src/usbd_ctlreq.c ****   pbuff++;
 854:lib/STM32_USB_Device_Library/Core/Src/usbd_ctlreq.c ****   req->wLength = SWAPBYTE(pbuff);
 855:lib/STM32_USB_Device_Library/Core/Src/usbd_ctlreq.c **** }
 856:lib/STM32_USB_Device_Library/Core/Src/usbd_ctlreq.c **** 
 857:lib/STM32_USB_Device_Library/Core/Src/usbd_ctlreq.c **** /**
 858:lib/STM32_USB_Device_Library/Core/Src/usbd_ctlreq.c **** * @brief  USBD_CtlError
 859:lib/STM32_USB_Device_Library/Core/Src/usbd_ctlreq.c **** *         Handle USB low level Error
 860:lib/STM32_USB_Device_Library/Core/Src/usbd_ctlreq.c **** * @param  pdev: device instance
 861:lib/STM32_USB_Device_Library/Core/Src/usbd_ctlreq.c **** * @param  req: usb request
 862:lib/STM32_USB_Device_Library/Core/Src/usbd_ctlreq.c **** * @retval None
 863:lib/STM32_USB_Device_Library/Core/Src/usbd_ctlreq.c **** */
 864:lib/STM32_USB_Device_Library/Core/Src/usbd_ctlreq.c **** 
 865:lib/STM32_USB_Device_Library/Core/Src/usbd_ctlreq.c **** void USBD_CtlError(USBD_HandleTypeDef *pdev, USBD_SetupReqTypedef *req)
 866:lib/STM32_USB_Device_Library/Core/Src/usbd_ctlreq.c **** {
 867:lib/STM32_USB_Device_Library/Core/Src/usbd_ctlreq.c ****   UNUSED(req);
 868:lib/STM32_USB_Device_Library/Core/Src/usbd_ctlreq.c **** 
 869:lib/STM32_USB_Device_Library/Core/Src/usbd_ctlreq.c ****   (void)USBD_LL_StallEP(pdev, 0x80U);
 870:lib/STM32_USB_Device_Library/Core/Src/usbd_ctlreq.c ****   (void)USBD_LL_StallEP(pdev, 0U);
 871:lib/STM32_USB_Device_Library/Core/Src/usbd_ctlreq.c **** }
 872:lib/STM32_USB_Device_Library/Core/Src/usbd_ctlreq.c **** 
 873:lib/STM32_USB_Device_Library/Core/Src/usbd_ctlreq.c **** 
 874:lib/STM32_USB_Device_Library/Core/Src/usbd_ctlreq.c **** /**
 875:lib/STM32_USB_Device_Library/Core/Src/usbd_ctlreq.c ****   * @brief  USBD_GetString
 876:lib/STM32_USB_Device_Library/Core/Src/usbd_ctlreq.c ****   *         Convert Ascii string into unicode one
 877:lib/STM32_USB_Device_Library/Core/Src/usbd_ctlreq.c ****   * @param  desc : descriptor buffer
 878:lib/STM32_USB_Device_Library/Core/Src/usbd_ctlreq.c ****   * @param  unicode : Formatted string buffer (unicode)
 879:lib/STM32_USB_Device_Library/Core/Src/usbd_ctlreq.c ****   * @param  len : descriptor length
 880:lib/STM32_USB_Device_Library/Core/Src/usbd_ctlreq.c ****   * @retval None
 881:lib/STM32_USB_Device_Library/Core/Src/usbd_ctlreq.c ****   */
 882:lib/STM32_USB_Device_Library/Core/Src/usbd_ctlreq.c **** void USBD_GetString(uint8_t *desc, uint8_t *unicode, uint16_t *len)
 883:lib/STM32_USB_Device_Library/Core/Src/usbd_ctlreq.c **** {
 884:lib/STM32_USB_Device_Library/Core/Src/usbd_ctlreq.c ****   uint8_t idx = 0U;
 885:lib/STM32_USB_Device_Library/Core/Src/usbd_ctlreq.c ****   uint8_t *pdesc;
 886:lib/STM32_USB_Device_Library/Core/Src/usbd_ctlreq.c **** 
ARM GAS  C:\Users\BIGBIG~1\AppData\Local\Temp\cc5naY0b.s 			page 17


 887:lib/STM32_USB_Device_Library/Core/Src/usbd_ctlreq.c ****   if (desc == NULL)
 888:lib/STM32_USB_Device_Library/Core/Src/usbd_ctlreq.c ****   {
 889:lib/STM32_USB_Device_Library/Core/Src/usbd_ctlreq.c ****     return;
 890:lib/STM32_USB_Device_Library/Core/Src/usbd_ctlreq.c ****   }
 891:lib/STM32_USB_Device_Library/Core/Src/usbd_ctlreq.c **** 
 892:lib/STM32_USB_Device_Library/Core/Src/usbd_ctlreq.c ****   pdesc = desc;
 893:lib/STM32_USB_Device_Library/Core/Src/usbd_ctlreq.c ****   *len = ((uint16_t)USBD_GetLen(pdesc) * 2U) + 2U;
 894:lib/STM32_USB_Device_Library/Core/Src/usbd_ctlreq.c **** 
 895:lib/STM32_USB_Device_Library/Core/Src/usbd_ctlreq.c ****   unicode[idx] = *(uint8_t *)len;
 896:lib/STM32_USB_Device_Library/Core/Src/usbd_ctlreq.c ****   idx++;
 897:lib/STM32_USB_Device_Library/Core/Src/usbd_ctlreq.c ****   unicode[idx] = USB_DESC_TYPE_STRING;
 898:lib/STM32_USB_Device_Library/Core/Src/usbd_ctlreq.c ****   idx++;
 899:lib/STM32_USB_Device_Library/Core/Src/usbd_ctlreq.c **** 
 900:lib/STM32_USB_Device_Library/Core/Src/usbd_ctlreq.c ****   while (*pdesc != (uint8_t)'\0')
 901:lib/STM32_USB_Device_Library/Core/Src/usbd_ctlreq.c ****   {
 902:lib/STM32_USB_Device_Library/Core/Src/usbd_ctlreq.c ****     unicode[idx] = *pdesc;
 903:lib/STM32_USB_Device_Library/Core/Src/usbd_ctlreq.c ****     pdesc++;
 904:lib/STM32_USB_Device_Library/Core/Src/usbd_ctlreq.c ****     idx++;
 905:lib/STM32_USB_Device_Library/Core/Src/usbd_ctlreq.c **** 
 906:lib/STM32_USB_Device_Library/Core/Src/usbd_ctlreq.c ****     unicode[idx] = 0U;
 907:lib/STM32_USB_Device_Library/Core/Src/usbd_ctlreq.c ****     idx++;
 908:lib/STM32_USB_Device_Library/Core/Src/usbd_ctlreq.c ****   }
 909:lib/STM32_USB_Device_Library/Core/Src/usbd_ctlreq.c **** }
 910:lib/STM32_USB_Device_Library/Core/Src/usbd_ctlreq.c **** 
 911:lib/STM32_USB_Device_Library/Core/Src/usbd_ctlreq.c **** /**
 912:lib/STM32_USB_Device_Library/Core/Src/usbd_ctlreq.c ****   * @brief  USBD_GetLen
 913:lib/STM32_USB_Device_Library/Core/Src/usbd_ctlreq.c ****   *         return the string length
 914:lib/STM32_USB_Device_Library/Core/Src/usbd_ctlreq.c ****    * @param  buf : pointer to the ascii string buffer
 915:lib/STM32_USB_Device_Library/Core/Src/usbd_ctlreq.c ****   * @retval string length
 916:lib/STM32_USB_Device_Library/Core/Src/usbd_ctlreq.c ****   */
 917:lib/STM32_USB_Device_Library/Core/Src/usbd_ctlreq.c **** static uint8_t USBD_GetLen(uint8_t *buf)
 918:lib/STM32_USB_Device_Library/Core/Src/usbd_ctlreq.c **** {
  28              		.loc 1 918 1 view -0
  29              		.cfi_startproc
  30              		@ args = 0, pretend = 0, frame = 0
  31              		@ frame_needed = 0, uses_anonymous_args = 0
  32              		@ link register save eliminated.
  33              		.loc 1 918 1 is_stmt 0 view .LVU1
  34 0000 0346     		mov	r3, r0
 919:lib/STM32_USB_Device_Library/Core/Src/usbd_ctlreq.c ****   uint8_t  len = 0U;
  35              		.loc 1 919 3 is_stmt 1 view .LVU2
  36              	.LVL1:
 920:lib/STM32_USB_Device_Library/Core/Src/usbd_ctlreq.c ****   uint8_t *pbuff = buf;
  37              		.loc 1 920 3 view .LVU3
 921:lib/STM32_USB_Device_Library/Core/Src/usbd_ctlreq.c **** 
 922:lib/STM32_USB_Device_Library/Core/Src/usbd_ctlreq.c ****   while (*pbuff != (uint8_t)'\0')
  38              		.loc 1 922 3 view .LVU4
 919:lib/STM32_USB_Device_Library/Core/Src/usbd_ctlreq.c ****   uint8_t *pbuff = buf;
  39              		.loc 1 919 12 is_stmt 0 view .LVU5
  40 0002 0020     		movs	r0, #0
  41              	.LVL2:
  42              	.L2:
  43              		.loc 1 922 9 is_stmt 1 view .LVU6
  44              		.loc 1 922 10 is_stmt 0 view .LVU7
  45 0004 1A78     		ldrb	r2, [r3]	@ zero_extendqisi2
  46              		.loc 1 922 9 view .LVU8
  47 0006 1AB1     		cbz	r2, .L4
ARM GAS  C:\Users\BIGBIG~1\AppData\Local\Temp\cc5naY0b.s 			page 18


 923:lib/STM32_USB_Device_Library/Core/Src/usbd_ctlreq.c ****   {
 924:lib/STM32_USB_Device_Library/Core/Src/usbd_ctlreq.c ****     len++;
  48              		.loc 1 924 5 is_stmt 1 view .LVU9
  49              		.loc 1 924 8 is_stmt 0 view .LVU10
  50 0008 0130     		adds	r0, r0, #1
  51              	.LVL3:
  52              		.loc 1 924 8 view .LVU11
  53 000a C0B2     		uxtb	r0, r0
  54              	.LVL4:
 925:lib/STM32_USB_Device_Library/Core/Src/usbd_ctlreq.c ****     pbuff++;
  55              		.loc 1 925 5 is_stmt 1 view .LVU12
  56              		.loc 1 925 10 is_stmt 0 view .LVU13
  57 000c 0133     		adds	r3, r3, #1
  58              	.LVL5:
  59              		.loc 1 925 10 view .LVU14
  60 000e F9E7     		b	.L2
  61              	.L4:
 926:lib/STM32_USB_Device_Library/Core/Src/usbd_ctlreq.c ****   }
 927:lib/STM32_USB_Device_Library/Core/Src/usbd_ctlreq.c **** 
 928:lib/STM32_USB_Device_Library/Core/Src/usbd_ctlreq.c ****   return len;
 929:lib/STM32_USB_Device_Library/Core/Src/usbd_ctlreq.c **** }
  62              		.loc 1 929 1 view .LVU15
  63 0010 7047     		bx	lr
  64              		.cfi_endproc
  65              	.LFE158:
  67              		.section	.text.USBD_SetFeature,"ax",%progbits
  68              		.align	1
  69              		.syntax unified
  70              		.thumb
  71              		.thumb_func
  72              		.fpu fpv5-d16
  74              	USBD_SetFeature:
  75              	.LVL6:
  76              	.LFB153:
 792:lib/STM32_USB_Device_Library/Core/Src/usbd_ctlreq.c ****   if (req->wValue == USB_FEATURE_REMOTE_WAKEUP)
  77              		.loc 1 792 1 is_stmt 1 view -0
  78              		.cfi_startproc
  79              		@ args = 0, pretend = 0, frame = 0
  80              		@ frame_needed = 0, uses_anonymous_args = 0
 792:lib/STM32_USB_Device_Library/Core/Src/usbd_ctlreq.c ****   if (req->wValue == USB_FEATURE_REMOTE_WAKEUP)
  81              		.loc 1 792 1 is_stmt 0 view .LVU17
  82 0000 08B5     		push	{r3, lr}
  83              	.LCFI0:
  84              		.cfi_def_cfa_offset 8
  85              		.cfi_offset 3, -8
  86              		.cfi_offset 14, -4
 793:lib/STM32_USB_Device_Library/Core/Src/usbd_ctlreq.c ****   {
  87              		.loc 1 793 3 is_stmt 1 view .LVU18
 793:lib/STM32_USB_Device_Library/Core/Src/usbd_ctlreq.c ****   {
  88              		.loc 1 793 10 is_stmt 0 view .LVU19
  89 0002 4B88     		ldrh	r3, [r1, #2]
 793:lib/STM32_USB_Device_Library/Core/Src/usbd_ctlreq.c ****   {
  90              		.loc 1 793 6 view .LVU20
  91 0004 012B     		cmp	r3, #1
  92 0006 00D0     		beq	.L8
  93              	.LVL7:
  94              	.L5:
ARM GAS  C:\Users\BIGBIG~1\AppData\Local\Temp\cc5naY0b.s 			page 19


 798:lib/STM32_USB_Device_Library/Core/Src/usbd_ctlreq.c **** 
  95              		.loc 1 798 1 view .LVU21
  96 0008 08BD     		pop	{r3, pc}
  97              	.LVL8:
  98              	.L8:
 795:lib/STM32_USB_Device_Library/Core/Src/usbd_ctlreq.c ****     (void)USBD_CtlSendStatus(pdev);
  99              		.loc 1 795 5 is_stmt 1 view .LVU22
 795:lib/STM32_USB_Device_Library/Core/Src/usbd_ctlreq.c ****     (void)USBD_CtlSendStatus(pdev);
 100              		.loc 1 795 29 is_stmt 0 view .LVU23
 101 000a C0F8A432 		str	r3, [r0, #676]
 796:lib/STM32_USB_Device_Library/Core/Src/usbd_ctlreq.c ****   }
 102              		.loc 1 796 5 is_stmt 1 view .LVU24
 796:lib/STM32_USB_Device_Library/Core/Src/usbd_ctlreq.c ****   }
 103              		.loc 1 796 11 is_stmt 0 view .LVU25
 104 000e FFF7FEFF 		bl	USBD_CtlSendStatus
 105              	.LVL9:
 798:lib/STM32_USB_Device_Library/Core/Src/usbd_ctlreq.c **** 
 106              		.loc 1 798 1 view .LVU26
 107 0012 F9E7     		b	.L5
 108              		.cfi_endproc
 109              	.LFE153:
 111              		.section	.text.USBD_ParseSetupRequest,"ax",%progbits
 112              		.align	1
 113              		.global	USBD_ParseSetupRequest
 114              		.syntax unified
 115              		.thumb
 116              		.thumb_func
 117              		.fpu fpv5-d16
 119              	USBD_ParseSetupRequest:
 120              	.LVL10:
 121              	.LFB155:
 837:lib/STM32_USB_Device_Library/Core/Src/usbd_ctlreq.c ****   uint8_t *pbuff = pdata;
 122              		.loc 1 837 1 is_stmt 1 view -0
 123              		.cfi_startproc
 124              		@ args = 0, pretend = 0, frame = 0
 125              		@ frame_needed = 0, uses_anonymous_args = 0
 126              		@ link register save eliminated.
 838:lib/STM32_USB_Device_Library/Core/Src/usbd_ctlreq.c **** 
 127              		.loc 1 838 3 view .LVU28
 840:lib/STM32_USB_Device_Library/Core/Src/usbd_ctlreq.c **** 
 128              		.loc 1 840 3 view .LVU29
 840:lib/STM32_USB_Device_Library/Core/Src/usbd_ctlreq.c **** 
 129              		.loc 1 840 20 is_stmt 0 view .LVU30
 130 0000 0B78     		ldrb	r3, [r1]	@ zero_extendqisi2
 840:lib/STM32_USB_Device_Library/Core/Src/usbd_ctlreq.c **** 
 131              		.loc 1 840 18 view .LVU31
 132 0002 0370     		strb	r3, [r0]
 842:lib/STM32_USB_Device_Library/Core/Src/usbd_ctlreq.c ****   req->bRequest = *(uint8_t *)(pbuff);
 133              		.loc 1 842 3 is_stmt 1 view .LVU32
 134              	.LVL11:
 843:lib/STM32_USB_Device_Library/Core/Src/usbd_ctlreq.c **** 
 135              		.loc 1 843 3 view .LVU33
 843:lib/STM32_USB_Device_Library/Core/Src/usbd_ctlreq.c **** 
 136              		.loc 1 843 19 is_stmt 0 view .LVU34
 137 0004 4B78     		ldrb	r3, [r1, #1]	@ zero_extendqisi2
 843:lib/STM32_USB_Device_Library/Core/Src/usbd_ctlreq.c **** 
 138              		.loc 1 843 17 view .LVU35
ARM GAS  C:\Users\BIGBIG~1\AppData\Local\Temp\cc5naY0b.s 			page 20


 139 0006 4370     		strb	r3, [r0, #1]
 845:lib/STM32_USB_Device_Library/Core/Src/usbd_ctlreq.c ****   req->wValue = SWAPBYTE(pbuff);
 140              		.loc 1 845 3 is_stmt 1 view .LVU36
 141              	.LVL12:
 846:lib/STM32_USB_Device_Library/Core/Src/usbd_ctlreq.c **** 
 142              		.loc 1 846 3 view .LVU37
 143              	.LBB8:
 144              	.LBI8:
 145              		.file 2 "lib/STM32_USB_Device_Library/Core/Inc/usbd_def.h"
   1:lib/STM32_USB_Device_Library/Core/Inc/usbd_def.h **** /**
   2:lib/STM32_USB_Device_Library/Core/Inc/usbd_def.h ****   ******************************************************************************
   3:lib/STM32_USB_Device_Library/Core/Inc/usbd_def.h ****   * @file    usbd_def.h
   4:lib/STM32_USB_Device_Library/Core/Inc/usbd_def.h ****   * @author  MCD Application Team
   5:lib/STM32_USB_Device_Library/Core/Inc/usbd_def.h ****   * @brief   General defines for the usb device library
   6:lib/STM32_USB_Device_Library/Core/Inc/usbd_def.h ****   ******************************************************************************
   7:lib/STM32_USB_Device_Library/Core/Inc/usbd_def.h ****   * @attention
   8:lib/STM32_USB_Device_Library/Core/Inc/usbd_def.h ****   *
   9:lib/STM32_USB_Device_Library/Core/Inc/usbd_def.h ****   * <h2><center>&copy; Copyright (c) 2015 STMicroelectronics.
  10:lib/STM32_USB_Device_Library/Core/Inc/usbd_def.h ****   * All rights reserved.</center></h2>
  11:lib/STM32_USB_Device_Library/Core/Inc/usbd_def.h ****   *
  12:lib/STM32_USB_Device_Library/Core/Inc/usbd_def.h ****   * This software component is licensed by ST under Ultimate Liberty license
  13:lib/STM32_USB_Device_Library/Core/Inc/usbd_def.h ****   * SLA0044, the "License"; You may not use this file except in compliance with
  14:lib/STM32_USB_Device_Library/Core/Inc/usbd_def.h ****   * the License. You may obtain a copy of the License at:
  15:lib/STM32_USB_Device_Library/Core/Inc/usbd_def.h ****   *                      www.st.com/SLA0044
  16:lib/STM32_USB_Device_Library/Core/Inc/usbd_def.h ****   *
  17:lib/STM32_USB_Device_Library/Core/Inc/usbd_def.h ****   ******************************************************************************
  18:lib/STM32_USB_Device_Library/Core/Inc/usbd_def.h ****   */
  19:lib/STM32_USB_Device_Library/Core/Inc/usbd_def.h **** 
  20:lib/STM32_USB_Device_Library/Core/Inc/usbd_def.h **** /* Define to prevent recursive inclusion -------------------------------------*/
  21:lib/STM32_USB_Device_Library/Core/Inc/usbd_def.h **** #ifndef __USBD_DEF_H
  22:lib/STM32_USB_Device_Library/Core/Inc/usbd_def.h **** #define __USBD_DEF_H
  23:lib/STM32_USB_Device_Library/Core/Inc/usbd_def.h **** 
  24:lib/STM32_USB_Device_Library/Core/Inc/usbd_def.h **** #ifdef __cplusplus
  25:lib/STM32_USB_Device_Library/Core/Inc/usbd_def.h **** extern "C" {
  26:lib/STM32_USB_Device_Library/Core/Inc/usbd_def.h **** #endif
  27:lib/STM32_USB_Device_Library/Core/Inc/usbd_def.h **** 
  28:lib/STM32_USB_Device_Library/Core/Inc/usbd_def.h **** /* Includes ------------------------------------------------------------------*/
  29:lib/STM32_USB_Device_Library/Core/Inc/usbd_def.h **** #include "usbd_conf.h"
  30:lib/STM32_USB_Device_Library/Core/Inc/usbd_def.h **** 
  31:lib/STM32_USB_Device_Library/Core/Inc/usbd_def.h **** /** @addtogroup STM32_USBD_DEVICE_LIBRARY
  32:lib/STM32_USB_Device_Library/Core/Inc/usbd_def.h ****   * @{
  33:lib/STM32_USB_Device_Library/Core/Inc/usbd_def.h ****   */
  34:lib/STM32_USB_Device_Library/Core/Inc/usbd_def.h **** 
  35:lib/STM32_USB_Device_Library/Core/Inc/usbd_def.h **** /** @defgroup USB_DEF
  36:lib/STM32_USB_Device_Library/Core/Inc/usbd_def.h ****   * @brief general defines for the usb device library file
  37:lib/STM32_USB_Device_Library/Core/Inc/usbd_def.h ****   * @{
  38:lib/STM32_USB_Device_Library/Core/Inc/usbd_def.h ****   */
  39:lib/STM32_USB_Device_Library/Core/Inc/usbd_def.h **** 
  40:lib/STM32_USB_Device_Library/Core/Inc/usbd_def.h **** /** @defgroup USB_DEF_Exported_Defines
  41:lib/STM32_USB_Device_Library/Core/Inc/usbd_def.h ****   * @{
  42:lib/STM32_USB_Device_Library/Core/Inc/usbd_def.h ****   */
  43:lib/STM32_USB_Device_Library/Core/Inc/usbd_def.h **** 
  44:lib/STM32_USB_Device_Library/Core/Inc/usbd_def.h **** #ifndef NULL
  45:lib/STM32_USB_Device_Library/Core/Inc/usbd_def.h **** #define NULL                                            0U
  46:lib/STM32_USB_Device_Library/Core/Inc/usbd_def.h **** #endif /* NULL */
  47:lib/STM32_USB_Device_Library/Core/Inc/usbd_def.h **** 
  48:lib/STM32_USB_Device_Library/Core/Inc/usbd_def.h **** #ifndef USBD_MAX_NUM_INTERFACES
ARM GAS  C:\Users\BIGBIG~1\AppData\Local\Temp\cc5naY0b.s 			page 21


  49:lib/STM32_USB_Device_Library/Core/Inc/usbd_def.h **** #define USBD_MAX_NUM_INTERFACES                         1U
  50:lib/STM32_USB_Device_Library/Core/Inc/usbd_def.h **** #endif /* USBD_MAX_NUM_CONFIGURATION */
  51:lib/STM32_USB_Device_Library/Core/Inc/usbd_def.h **** 
  52:lib/STM32_USB_Device_Library/Core/Inc/usbd_def.h **** #ifndef USBD_MAX_NUM_CONFIGURATION
  53:lib/STM32_USB_Device_Library/Core/Inc/usbd_def.h **** #define USBD_MAX_NUM_CONFIGURATION                      1U
  54:lib/STM32_USB_Device_Library/Core/Inc/usbd_def.h **** #endif /* USBD_MAX_NUM_CONFIGURATION */
  55:lib/STM32_USB_Device_Library/Core/Inc/usbd_def.h **** 
  56:lib/STM32_USB_Device_Library/Core/Inc/usbd_def.h **** #ifndef USBD_LPM_ENABLED
  57:lib/STM32_USB_Device_Library/Core/Inc/usbd_def.h **** #define USBD_LPM_ENABLED                                0U
  58:lib/STM32_USB_Device_Library/Core/Inc/usbd_def.h **** #endif /* USBD_LPM_ENABLED */
  59:lib/STM32_USB_Device_Library/Core/Inc/usbd_def.h **** 
  60:lib/STM32_USB_Device_Library/Core/Inc/usbd_def.h **** #ifndef USBD_SELF_POWERED
  61:lib/STM32_USB_Device_Library/Core/Inc/usbd_def.h **** #define USBD_SELF_POWERED                               1U
  62:lib/STM32_USB_Device_Library/Core/Inc/usbd_def.h **** #endif /*USBD_SELF_POWERED */
  63:lib/STM32_USB_Device_Library/Core/Inc/usbd_def.h **** 
  64:lib/STM32_USB_Device_Library/Core/Inc/usbd_def.h **** #ifndef USBD_SUPPORT_USER_STRING_DESC
  65:lib/STM32_USB_Device_Library/Core/Inc/usbd_def.h **** #define USBD_SUPPORT_USER_STRING_DESC                   0U
  66:lib/STM32_USB_Device_Library/Core/Inc/usbd_def.h **** #endif /* USBD_SUPPORT_USER_STRING_DESC */
  67:lib/STM32_USB_Device_Library/Core/Inc/usbd_def.h **** 
  68:lib/STM32_USB_Device_Library/Core/Inc/usbd_def.h **** #ifndef USBD_CLASS_USER_STRING_DESC
  69:lib/STM32_USB_Device_Library/Core/Inc/usbd_def.h **** #define USBD_CLASS_USER_STRING_DESC                     0U
  70:lib/STM32_USB_Device_Library/Core/Inc/usbd_def.h **** #endif /* USBD_CLASS_USER_STRING_DESC */
  71:lib/STM32_USB_Device_Library/Core/Inc/usbd_def.h **** 
  72:lib/STM32_USB_Device_Library/Core/Inc/usbd_def.h **** #define  USB_LEN_DEV_QUALIFIER_DESC                     0x0AU
  73:lib/STM32_USB_Device_Library/Core/Inc/usbd_def.h **** #define  USB_LEN_DEV_DESC                               0x12U
  74:lib/STM32_USB_Device_Library/Core/Inc/usbd_def.h **** #define  USB_LEN_CFG_DESC                               0x09U
  75:lib/STM32_USB_Device_Library/Core/Inc/usbd_def.h **** #define  USB_LEN_IF_DESC                                0x09U
  76:lib/STM32_USB_Device_Library/Core/Inc/usbd_def.h **** #define  USB_LEN_EP_DESC                                0x07U
  77:lib/STM32_USB_Device_Library/Core/Inc/usbd_def.h **** #define  USB_LEN_OTG_DESC                               0x03U
  78:lib/STM32_USB_Device_Library/Core/Inc/usbd_def.h **** #define  USB_LEN_LANGID_STR_DESC                        0x04U
  79:lib/STM32_USB_Device_Library/Core/Inc/usbd_def.h **** #define  USB_LEN_OTHER_SPEED_DESC_SIZ                   0x09U
  80:lib/STM32_USB_Device_Library/Core/Inc/usbd_def.h **** 
  81:lib/STM32_USB_Device_Library/Core/Inc/usbd_def.h **** #define  USBD_IDX_LANGID_STR                            0x00U
  82:lib/STM32_USB_Device_Library/Core/Inc/usbd_def.h **** #define  USBD_IDX_MFC_STR                               0x01U
  83:lib/STM32_USB_Device_Library/Core/Inc/usbd_def.h **** #define  USBD_IDX_PRODUCT_STR                           0x02U
  84:lib/STM32_USB_Device_Library/Core/Inc/usbd_def.h **** #define  USBD_IDX_SERIAL_STR                            0x03U
  85:lib/STM32_USB_Device_Library/Core/Inc/usbd_def.h **** #define  USBD_IDX_CONFIG_STR                            0x04U
  86:lib/STM32_USB_Device_Library/Core/Inc/usbd_def.h **** #define  USBD_IDX_INTERFACE_STR                         0x05U
  87:lib/STM32_USB_Device_Library/Core/Inc/usbd_def.h **** 
  88:lib/STM32_USB_Device_Library/Core/Inc/usbd_def.h **** #define  USB_REQ_TYPE_STANDARD                          0x00U
  89:lib/STM32_USB_Device_Library/Core/Inc/usbd_def.h **** #define  USB_REQ_TYPE_CLASS                             0x20U
  90:lib/STM32_USB_Device_Library/Core/Inc/usbd_def.h **** #define  USB_REQ_TYPE_VENDOR                            0x40U
  91:lib/STM32_USB_Device_Library/Core/Inc/usbd_def.h **** #define  USB_REQ_TYPE_MASK                              0x60U
  92:lib/STM32_USB_Device_Library/Core/Inc/usbd_def.h **** 
  93:lib/STM32_USB_Device_Library/Core/Inc/usbd_def.h **** #define  USB_REQ_RECIPIENT_DEVICE                       0x00U
  94:lib/STM32_USB_Device_Library/Core/Inc/usbd_def.h **** #define  USB_REQ_RECIPIENT_INTERFACE                    0x01U
  95:lib/STM32_USB_Device_Library/Core/Inc/usbd_def.h **** #define  USB_REQ_RECIPIENT_ENDPOINT                     0x02U
  96:lib/STM32_USB_Device_Library/Core/Inc/usbd_def.h **** #define  USB_REQ_RECIPIENT_MASK                         0x03U
  97:lib/STM32_USB_Device_Library/Core/Inc/usbd_def.h **** 
  98:lib/STM32_USB_Device_Library/Core/Inc/usbd_def.h **** #define  USB_REQ_GET_STATUS                             0x00U
  99:lib/STM32_USB_Device_Library/Core/Inc/usbd_def.h **** #define  USB_REQ_CLEAR_FEATURE                          0x01U
 100:lib/STM32_USB_Device_Library/Core/Inc/usbd_def.h **** #define  USB_REQ_SET_FEATURE                            0x03U
 101:lib/STM32_USB_Device_Library/Core/Inc/usbd_def.h **** #define  USB_REQ_SET_ADDRESS                            0x05U
 102:lib/STM32_USB_Device_Library/Core/Inc/usbd_def.h **** #define  USB_REQ_GET_DESCRIPTOR                         0x06U
 103:lib/STM32_USB_Device_Library/Core/Inc/usbd_def.h **** #define  USB_REQ_SET_DESCRIPTOR                         0x07U
 104:lib/STM32_USB_Device_Library/Core/Inc/usbd_def.h **** #define  USB_REQ_GET_CONFIGURATION                      0x08U
 105:lib/STM32_USB_Device_Library/Core/Inc/usbd_def.h **** #define  USB_REQ_SET_CONFIGURATION                      0x09U
ARM GAS  C:\Users\BIGBIG~1\AppData\Local\Temp\cc5naY0b.s 			page 22


 106:lib/STM32_USB_Device_Library/Core/Inc/usbd_def.h **** #define  USB_REQ_GET_INTERFACE                          0x0AU
 107:lib/STM32_USB_Device_Library/Core/Inc/usbd_def.h **** #define  USB_REQ_SET_INTERFACE                          0x0BU
 108:lib/STM32_USB_Device_Library/Core/Inc/usbd_def.h **** #define  USB_REQ_SYNCH_FRAME                            0x0CU
 109:lib/STM32_USB_Device_Library/Core/Inc/usbd_def.h **** 
 110:lib/STM32_USB_Device_Library/Core/Inc/usbd_def.h **** #define  USB_DESC_TYPE_DEVICE                           0x01U
 111:lib/STM32_USB_Device_Library/Core/Inc/usbd_def.h **** #define  USB_DESC_TYPE_CONFIGURATION                    0x02U
 112:lib/STM32_USB_Device_Library/Core/Inc/usbd_def.h **** #define  USB_DESC_TYPE_STRING                           0x03U
 113:lib/STM32_USB_Device_Library/Core/Inc/usbd_def.h **** #define  USB_DESC_TYPE_INTERFACE                        0x04U
 114:lib/STM32_USB_Device_Library/Core/Inc/usbd_def.h **** #define  USB_DESC_TYPE_ENDPOINT                         0x05U
 115:lib/STM32_USB_Device_Library/Core/Inc/usbd_def.h **** #define  USB_DESC_TYPE_DEVICE_QUALIFIER                 0x06U
 116:lib/STM32_USB_Device_Library/Core/Inc/usbd_def.h **** #define  USB_DESC_TYPE_OTHER_SPEED_CONFIGURATION        0x07U
 117:lib/STM32_USB_Device_Library/Core/Inc/usbd_def.h **** #define  USB_DESC_TYPE_BOS                              0x0FU
 118:lib/STM32_USB_Device_Library/Core/Inc/usbd_def.h **** 
 119:lib/STM32_USB_Device_Library/Core/Inc/usbd_def.h **** #define USB_CONFIG_REMOTE_WAKEUP                        0x02U
 120:lib/STM32_USB_Device_Library/Core/Inc/usbd_def.h **** #define USB_CONFIG_SELF_POWERED                         0x01U
 121:lib/STM32_USB_Device_Library/Core/Inc/usbd_def.h **** 
 122:lib/STM32_USB_Device_Library/Core/Inc/usbd_def.h **** #define USB_FEATURE_EP_HALT                             0x00U
 123:lib/STM32_USB_Device_Library/Core/Inc/usbd_def.h **** #define USB_FEATURE_REMOTE_WAKEUP                       0x01U
 124:lib/STM32_USB_Device_Library/Core/Inc/usbd_def.h **** #define USB_FEATURE_TEST_MODE                           0x02U
 125:lib/STM32_USB_Device_Library/Core/Inc/usbd_def.h **** 
 126:lib/STM32_USB_Device_Library/Core/Inc/usbd_def.h **** #define USB_DEVICE_CAPABITY_TYPE                        0x10U
 127:lib/STM32_USB_Device_Library/Core/Inc/usbd_def.h **** 
 128:lib/STM32_USB_Device_Library/Core/Inc/usbd_def.h **** #define USB_HS_MAX_PACKET_SIZE                          512U
 129:lib/STM32_USB_Device_Library/Core/Inc/usbd_def.h **** #define USB_FS_MAX_PACKET_SIZE                          64U
 130:lib/STM32_USB_Device_Library/Core/Inc/usbd_def.h **** #define USB_MAX_EP0_SIZE                                64U
 131:lib/STM32_USB_Device_Library/Core/Inc/usbd_def.h **** 
 132:lib/STM32_USB_Device_Library/Core/Inc/usbd_def.h **** /*  Device Status */
 133:lib/STM32_USB_Device_Library/Core/Inc/usbd_def.h **** #define USBD_STATE_DEFAULT                              0x01U
 134:lib/STM32_USB_Device_Library/Core/Inc/usbd_def.h **** #define USBD_STATE_ADDRESSED                            0x02U
 135:lib/STM32_USB_Device_Library/Core/Inc/usbd_def.h **** #define USBD_STATE_CONFIGURED                           0x03U
 136:lib/STM32_USB_Device_Library/Core/Inc/usbd_def.h **** #define USBD_STATE_SUSPENDED                            0x04U
 137:lib/STM32_USB_Device_Library/Core/Inc/usbd_def.h **** 
 138:lib/STM32_USB_Device_Library/Core/Inc/usbd_def.h **** 
 139:lib/STM32_USB_Device_Library/Core/Inc/usbd_def.h **** /*  EP0 State */
 140:lib/STM32_USB_Device_Library/Core/Inc/usbd_def.h **** #define USBD_EP0_IDLE                                   0x00U
 141:lib/STM32_USB_Device_Library/Core/Inc/usbd_def.h **** #define USBD_EP0_SETUP                                  0x01U
 142:lib/STM32_USB_Device_Library/Core/Inc/usbd_def.h **** #define USBD_EP0_DATA_IN                                0x02U
 143:lib/STM32_USB_Device_Library/Core/Inc/usbd_def.h **** #define USBD_EP0_DATA_OUT                               0x03U
 144:lib/STM32_USB_Device_Library/Core/Inc/usbd_def.h **** #define USBD_EP0_STATUS_IN                              0x04U
 145:lib/STM32_USB_Device_Library/Core/Inc/usbd_def.h **** #define USBD_EP0_STATUS_OUT                             0x05U
 146:lib/STM32_USB_Device_Library/Core/Inc/usbd_def.h **** #define USBD_EP0_STALL                                  0x06U
 147:lib/STM32_USB_Device_Library/Core/Inc/usbd_def.h **** 
 148:lib/STM32_USB_Device_Library/Core/Inc/usbd_def.h **** #define USBD_EP_TYPE_CTRL                               0x00U
 149:lib/STM32_USB_Device_Library/Core/Inc/usbd_def.h **** #define USBD_EP_TYPE_ISOC                               0x01U
 150:lib/STM32_USB_Device_Library/Core/Inc/usbd_def.h **** #define USBD_EP_TYPE_BULK                               0x02U
 151:lib/STM32_USB_Device_Library/Core/Inc/usbd_def.h **** #define USBD_EP_TYPE_INTR                               0x03U
 152:lib/STM32_USB_Device_Library/Core/Inc/usbd_def.h **** 
 153:lib/STM32_USB_Device_Library/Core/Inc/usbd_def.h **** 
 154:lib/STM32_USB_Device_Library/Core/Inc/usbd_def.h **** /**
 155:lib/STM32_USB_Device_Library/Core/Inc/usbd_def.h ****   * @}
 156:lib/STM32_USB_Device_Library/Core/Inc/usbd_def.h ****   */
 157:lib/STM32_USB_Device_Library/Core/Inc/usbd_def.h **** 
 158:lib/STM32_USB_Device_Library/Core/Inc/usbd_def.h **** 
 159:lib/STM32_USB_Device_Library/Core/Inc/usbd_def.h **** /** @defgroup USBD_DEF_Exported_TypesDefinitions
 160:lib/STM32_USB_Device_Library/Core/Inc/usbd_def.h ****   * @{
 161:lib/STM32_USB_Device_Library/Core/Inc/usbd_def.h ****   */
 162:lib/STM32_USB_Device_Library/Core/Inc/usbd_def.h **** 
ARM GAS  C:\Users\BIGBIG~1\AppData\Local\Temp\cc5naY0b.s 			page 23


 163:lib/STM32_USB_Device_Library/Core/Inc/usbd_def.h **** typedef  struct  usb_setup_req
 164:lib/STM32_USB_Device_Library/Core/Inc/usbd_def.h **** {
 165:lib/STM32_USB_Device_Library/Core/Inc/usbd_def.h ****   uint8_t   bmRequest;
 166:lib/STM32_USB_Device_Library/Core/Inc/usbd_def.h ****   uint8_t   bRequest;
 167:lib/STM32_USB_Device_Library/Core/Inc/usbd_def.h ****   uint16_t  wValue;
 168:lib/STM32_USB_Device_Library/Core/Inc/usbd_def.h ****   uint16_t  wIndex;
 169:lib/STM32_USB_Device_Library/Core/Inc/usbd_def.h ****   uint16_t  wLength;
 170:lib/STM32_USB_Device_Library/Core/Inc/usbd_def.h **** } USBD_SetupReqTypedef;
 171:lib/STM32_USB_Device_Library/Core/Inc/usbd_def.h **** 
 172:lib/STM32_USB_Device_Library/Core/Inc/usbd_def.h **** typedef struct
 173:lib/STM32_USB_Device_Library/Core/Inc/usbd_def.h **** {
 174:lib/STM32_USB_Device_Library/Core/Inc/usbd_def.h ****   uint8_t   bLength;
 175:lib/STM32_USB_Device_Library/Core/Inc/usbd_def.h ****   uint8_t   bDescriptorType;
 176:lib/STM32_USB_Device_Library/Core/Inc/usbd_def.h ****   uint8_t   wDescriptorLengthLow;
 177:lib/STM32_USB_Device_Library/Core/Inc/usbd_def.h ****   uint8_t   wDescriptorLengthHigh;
 178:lib/STM32_USB_Device_Library/Core/Inc/usbd_def.h ****   uint8_t   bNumInterfaces;
 179:lib/STM32_USB_Device_Library/Core/Inc/usbd_def.h ****   uint8_t   bConfigurationValue;
 180:lib/STM32_USB_Device_Library/Core/Inc/usbd_def.h ****   uint8_t   iConfiguration;
 181:lib/STM32_USB_Device_Library/Core/Inc/usbd_def.h ****   uint8_t   bmAttributes;
 182:lib/STM32_USB_Device_Library/Core/Inc/usbd_def.h ****   uint8_t   bMaxPower;
 183:lib/STM32_USB_Device_Library/Core/Inc/usbd_def.h **** } USBD_ConfigDescTypedef;
 184:lib/STM32_USB_Device_Library/Core/Inc/usbd_def.h **** 
 185:lib/STM32_USB_Device_Library/Core/Inc/usbd_def.h **** typedef struct
 186:lib/STM32_USB_Device_Library/Core/Inc/usbd_def.h **** {
 187:lib/STM32_USB_Device_Library/Core/Inc/usbd_def.h ****   uint8_t   bLength;
 188:lib/STM32_USB_Device_Library/Core/Inc/usbd_def.h ****   uint8_t   bDescriptorType;
 189:lib/STM32_USB_Device_Library/Core/Inc/usbd_def.h ****   uint16_t  wTotalLength;
 190:lib/STM32_USB_Device_Library/Core/Inc/usbd_def.h ****   uint8_t   bNumDeviceCaps;
 191:lib/STM32_USB_Device_Library/Core/Inc/usbd_def.h **** } USBD_BosDescTypedef;
 192:lib/STM32_USB_Device_Library/Core/Inc/usbd_def.h **** 
 193:lib/STM32_USB_Device_Library/Core/Inc/usbd_def.h **** 
 194:lib/STM32_USB_Device_Library/Core/Inc/usbd_def.h **** struct _USBD_HandleTypeDef;
 195:lib/STM32_USB_Device_Library/Core/Inc/usbd_def.h **** 
 196:lib/STM32_USB_Device_Library/Core/Inc/usbd_def.h **** typedef struct _Device_cb
 197:lib/STM32_USB_Device_Library/Core/Inc/usbd_def.h **** {
 198:lib/STM32_USB_Device_Library/Core/Inc/usbd_def.h ****   uint8_t (*Init)(struct _USBD_HandleTypeDef *pdev, uint8_t cfgidx);
 199:lib/STM32_USB_Device_Library/Core/Inc/usbd_def.h ****   uint8_t (*DeInit)(struct _USBD_HandleTypeDef *pdev, uint8_t cfgidx);
 200:lib/STM32_USB_Device_Library/Core/Inc/usbd_def.h ****   /* Control Endpoints*/
 201:lib/STM32_USB_Device_Library/Core/Inc/usbd_def.h ****   uint8_t (*Setup)(struct _USBD_HandleTypeDef *pdev, USBD_SetupReqTypedef  *req);
 202:lib/STM32_USB_Device_Library/Core/Inc/usbd_def.h ****   uint8_t (*EP0_TxSent)(struct _USBD_HandleTypeDef *pdev);
 203:lib/STM32_USB_Device_Library/Core/Inc/usbd_def.h ****   uint8_t (*EP0_RxReady)(struct _USBD_HandleTypeDef *pdev);
 204:lib/STM32_USB_Device_Library/Core/Inc/usbd_def.h ****   /* Class Specific Endpoints*/
 205:lib/STM32_USB_Device_Library/Core/Inc/usbd_def.h ****   uint8_t (*DataIn)(struct _USBD_HandleTypeDef *pdev, uint8_t epnum);
 206:lib/STM32_USB_Device_Library/Core/Inc/usbd_def.h ****   uint8_t (*DataOut)(struct _USBD_HandleTypeDef *pdev, uint8_t epnum);
 207:lib/STM32_USB_Device_Library/Core/Inc/usbd_def.h ****   uint8_t (*SOF)(struct _USBD_HandleTypeDef *pdev);
 208:lib/STM32_USB_Device_Library/Core/Inc/usbd_def.h ****   uint8_t (*IsoINIncomplete)(struct _USBD_HandleTypeDef *pdev, uint8_t epnum);
 209:lib/STM32_USB_Device_Library/Core/Inc/usbd_def.h ****   uint8_t (*IsoOUTIncomplete)(struct _USBD_HandleTypeDef *pdev, uint8_t epnum);
 210:lib/STM32_USB_Device_Library/Core/Inc/usbd_def.h **** 
 211:lib/STM32_USB_Device_Library/Core/Inc/usbd_def.h ****   uint8_t  *(*GetHSConfigDescriptor)(uint16_t *length);
 212:lib/STM32_USB_Device_Library/Core/Inc/usbd_def.h ****   uint8_t  *(*GetFSConfigDescriptor)(uint16_t *length);
 213:lib/STM32_USB_Device_Library/Core/Inc/usbd_def.h ****   uint8_t  *(*GetOtherSpeedConfigDescriptor)(uint16_t *length);
 214:lib/STM32_USB_Device_Library/Core/Inc/usbd_def.h ****   uint8_t  *(*GetDeviceQualifierDescriptor)(uint16_t *length);
 215:lib/STM32_USB_Device_Library/Core/Inc/usbd_def.h **** #if (USBD_SUPPORT_USER_STRING_DESC == 1U)
 216:lib/STM32_USB_Device_Library/Core/Inc/usbd_def.h ****   uint8_t  *(*GetUsrStrDescriptor)(struct _USBD_HandleTypeDef *pdev, uint8_t index,  uint16_t *leng
 217:lib/STM32_USB_Device_Library/Core/Inc/usbd_def.h **** #endif
 218:lib/STM32_USB_Device_Library/Core/Inc/usbd_def.h **** 
 219:lib/STM32_USB_Device_Library/Core/Inc/usbd_def.h **** } USBD_ClassTypeDef;
ARM GAS  C:\Users\BIGBIG~1\AppData\Local\Temp\cc5naY0b.s 			page 24


 220:lib/STM32_USB_Device_Library/Core/Inc/usbd_def.h **** 
 221:lib/STM32_USB_Device_Library/Core/Inc/usbd_def.h **** /* Following USB Device Speed */
 222:lib/STM32_USB_Device_Library/Core/Inc/usbd_def.h **** typedef enum
 223:lib/STM32_USB_Device_Library/Core/Inc/usbd_def.h **** {
 224:lib/STM32_USB_Device_Library/Core/Inc/usbd_def.h ****   USBD_SPEED_HIGH  = 0U,
 225:lib/STM32_USB_Device_Library/Core/Inc/usbd_def.h ****   USBD_SPEED_FULL  = 1U,
 226:lib/STM32_USB_Device_Library/Core/Inc/usbd_def.h ****   USBD_SPEED_LOW   = 2U,
 227:lib/STM32_USB_Device_Library/Core/Inc/usbd_def.h **** } USBD_SpeedTypeDef;
 228:lib/STM32_USB_Device_Library/Core/Inc/usbd_def.h **** 
 229:lib/STM32_USB_Device_Library/Core/Inc/usbd_def.h **** /* Following USB Device status */
 230:lib/STM32_USB_Device_Library/Core/Inc/usbd_def.h **** typedef enum
 231:lib/STM32_USB_Device_Library/Core/Inc/usbd_def.h **** {
 232:lib/STM32_USB_Device_Library/Core/Inc/usbd_def.h ****   USBD_OK = 0U,
 233:lib/STM32_USB_Device_Library/Core/Inc/usbd_def.h ****   USBD_BUSY,
 234:lib/STM32_USB_Device_Library/Core/Inc/usbd_def.h ****   USBD_EMEM,
 235:lib/STM32_USB_Device_Library/Core/Inc/usbd_def.h ****   USBD_FAIL,
 236:lib/STM32_USB_Device_Library/Core/Inc/usbd_def.h **** } USBD_StatusTypeDef;
 237:lib/STM32_USB_Device_Library/Core/Inc/usbd_def.h **** 
 238:lib/STM32_USB_Device_Library/Core/Inc/usbd_def.h **** /* USB Device descriptors structure */
 239:lib/STM32_USB_Device_Library/Core/Inc/usbd_def.h **** typedef struct
 240:lib/STM32_USB_Device_Library/Core/Inc/usbd_def.h **** {
 241:lib/STM32_USB_Device_Library/Core/Inc/usbd_def.h ****   uint8_t *(*GetDeviceDescriptor)(USBD_SpeedTypeDef speed, uint16_t *length);
 242:lib/STM32_USB_Device_Library/Core/Inc/usbd_def.h ****   uint8_t *(*GetLangIDStrDescriptor)(USBD_SpeedTypeDef speed, uint16_t *length);
 243:lib/STM32_USB_Device_Library/Core/Inc/usbd_def.h ****   uint8_t *(*GetManufacturerStrDescriptor)(USBD_SpeedTypeDef speed, uint16_t *length);
 244:lib/STM32_USB_Device_Library/Core/Inc/usbd_def.h ****   uint8_t *(*GetProductStrDescriptor)(USBD_SpeedTypeDef speed, uint16_t *length);
 245:lib/STM32_USB_Device_Library/Core/Inc/usbd_def.h ****   uint8_t *(*GetSerialStrDescriptor)(USBD_SpeedTypeDef speed, uint16_t *length);
 246:lib/STM32_USB_Device_Library/Core/Inc/usbd_def.h ****   uint8_t *(*GetConfigurationStrDescriptor)(USBD_SpeedTypeDef speed, uint16_t *length);
 247:lib/STM32_USB_Device_Library/Core/Inc/usbd_def.h ****   uint8_t *(*GetInterfaceStrDescriptor)(USBD_SpeedTypeDef speed, uint16_t *length);
 248:lib/STM32_USB_Device_Library/Core/Inc/usbd_def.h **** #if (USBD_CLASS_USER_STRING_DESC == 1)
 249:lib/STM32_USB_Device_Library/Core/Inc/usbd_def.h ****   uint8_t *(*GetUserStrDescriptor)(USBD_SpeedTypeDef speed, uint8_t idx, uint16_t *length);
 250:lib/STM32_USB_Device_Library/Core/Inc/usbd_def.h **** #endif
 251:lib/STM32_USB_Device_Library/Core/Inc/usbd_def.h **** #if ((USBD_LPM_ENABLED == 1U) || (USBD_CLASS_BOS_ENABLED == 1))
 252:lib/STM32_USB_Device_Library/Core/Inc/usbd_def.h ****   uint8_t *(*GetBOSDescriptor)(USBD_SpeedTypeDef speed, uint16_t *length);
 253:lib/STM32_USB_Device_Library/Core/Inc/usbd_def.h **** #endif
 254:lib/STM32_USB_Device_Library/Core/Inc/usbd_def.h **** } USBD_DescriptorsTypeDef;
 255:lib/STM32_USB_Device_Library/Core/Inc/usbd_def.h **** 
 256:lib/STM32_USB_Device_Library/Core/Inc/usbd_def.h **** /* USB Device handle structure */
 257:lib/STM32_USB_Device_Library/Core/Inc/usbd_def.h **** typedef struct
 258:lib/STM32_USB_Device_Library/Core/Inc/usbd_def.h **** {
 259:lib/STM32_USB_Device_Library/Core/Inc/usbd_def.h ****   uint32_t status;
 260:lib/STM32_USB_Device_Library/Core/Inc/usbd_def.h ****   uint32_t total_length;
 261:lib/STM32_USB_Device_Library/Core/Inc/usbd_def.h ****   uint32_t rem_length;
 262:lib/STM32_USB_Device_Library/Core/Inc/usbd_def.h ****   uint32_t maxpacket;
 263:lib/STM32_USB_Device_Library/Core/Inc/usbd_def.h ****   uint16_t is_used;
 264:lib/STM32_USB_Device_Library/Core/Inc/usbd_def.h ****   uint16_t bInterval;
 265:lib/STM32_USB_Device_Library/Core/Inc/usbd_def.h **** } USBD_EndpointTypeDef;
 266:lib/STM32_USB_Device_Library/Core/Inc/usbd_def.h **** 
 267:lib/STM32_USB_Device_Library/Core/Inc/usbd_def.h **** /* USB Device handle structure */
 268:lib/STM32_USB_Device_Library/Core/Inc/usbd_def.h **** typedef struct _USBD_HandleTypeDef
 269:lib/STM32_USB_Device_Library/Core/Inc/usbd_def.h **** {
 270:lib/STM32_USB_Device_Library/Core/Inc/usbd_def.h ****   uint8_t                 id;
 271:lib/STM32_USB_Device_Library/Core/Inc/usbd_def.h ****   uint32_t                dev_config;
 272:lib/STM32_USB_Device_Library/Core/Inc/usbd_def.h ****   uint32_t                dev_default_config;
 273:lib/STM32_USB_Device_Library/Core/Inc/usbd_def.h ****   uint32_t                dev_config_status;
 274:lib/STM32_USB_Device_Library/Core/Inc/usbd_def.h ****   USBD_SpeedTypeDef       dev_speed;
 275:lib/STM32_USB_Device_Library/Core/Inc/usbd_def.h ****   USBD_EndpointTypeDef    ep_in[16];
 276:lib/STM32_USB_Device_Library/Core/Inc/usbd_def.h ****   USBD_EndpointTypeDef    ep_out[16];
ARM GAS  C:\Users\BIGBIG~1\AppData\Local\Temp\cc5naY0b.s 			page 25


 277:lib/STM32_USB_Device_Library/Core/Inc/usbd_def.h ****   uint32_t                ep0_state;
 278:lib/STM32_USB_Device_Library/Core/Inc/usbd_def.h ****   uint32_t                ep0_data_len;
 279:lib/STM32_USB_Device_Library/Core/Inc/usbd_def.h ****   uint8_t                 dev_state;
 280:lib/STM32_USB_Device_Library/Core/Inc/usbd_def.h ****   uint8_t                 dev_old_state;
 281:lib/STM32_USB_Device_Library/Core/Inc/usbd_def.h ****   uint8_t                 dev_address;
 282:lib/STM32_USB_Device_Library/Core/Inc/usbd_def.h ****   uint8_t                 dev_connection_status;
 283:lib/STM32_USB_Device_Library/Core/Inc/usbd_def.h ****   uint8_t                 dev_test_mode;
 284:lib/STM32_USB_Device_Library/Core/Inc/usbd_def.h ****   uint32_t                dev_remote_wakeup;
 285:lib/STM32_USB_Device_Library/Core/Inc/usbd_def.h ****   uint8_t                 ConfIdx;
 286:lib/STM32_USB_Device_Library/Core/Inc/usbd_def.h **** 
 287:lib/STM32_USB_Device_Library/Core/Inc/usbd_def.h ****   USBD_SetupReqTypedef    request;
 288:lib/STM32_USB_Device_Library/Core/Inc/usbd_def.h ****   USBD_DescriptorsTypeDef *pDesc;
 289:lib/STM32_USB_Device_Library/Core/Inc/usbd_def.h ****   USBD_ClassTypeDef       *pClass;
 290:lib/STM32_USB_Device_Library/Core/Inc/usbd_def.h ****   void                    *pClassData;
 291:lib/STM32_USB_Device_Library/Core/Inc/usbd_def.h ****   void                    *pUserData;
 292:lib/STM32_USB_Device_Library/Core/Inc/usbd_def.h ****   void                    *pData;
 293:lib/STM32_USB_Device_Library/Core/Inc/usbd_def.h ****   void                    *pBosDesc;
 294:lib/STM32_USB_Device_Library/Core/Inc/usbd_def.h ****   void                    *pConfDesc;
 295:lib/STM32_USB_Device_Library/Core/Inc/usbd_def.h **** } USBD_HandleTypeDef;
 296:lib/STM32_USB_Device_Library/Core/Inc/usbd_def.h **** 
 297:lib/STM32_USB_Device_Library/Core/Inc/usbd_def.h **** /**
 298:lib/STM32_USB_Device_Library/Core/Inc/usbd_def.h ****   * @}
 299:lib/STM32_USB_Device_Library/Core/Inc/usbd_def.h ****   */
 300:lib/STM32_USB_Device_Library/Core/Inc/usbd_def.h **** 
 301:lib/STM32_USB_Device_Library/Core/Inc/usbd_def.h **** 
 302:lib/STM32_USB_Device_Library/Core/Inc/usbd_def.h **** 
 303:lib/STM32_USB_Device_Library/Core/Inc/usbd_def.h **** /** @defgroup USBD_DEF_Exported_Macros
 304:lib/STM32_USB_Device_Library/Core/Inc/usbd_def.h ****   * @{
 305:lib/STM32_USB_Device_Library/Core/Inc/usbd_def.h ****   */
 306:lib/STM32_USB_Device_Library/Core/Inc/usbd_def.h **** __STATIC_INLINE uint16_t SWAPBYTE(uint8_t *addr)
 146              		.loc 2 306 26 view .LVU38
 147              	.LBB9:
 307:lib/STM32_USB_Device_Library/Core/Inc/usbd_def.h **** {
 308:lib/STM32_USB_Device_Library/Core/Inc/usbd_def.h ****   uint16_t _SwapVal, _Byte1, _Byte2;
 148              		.loc 2 308 3 view .LVU39
 309:lib/STM32_USB_Device_Library/Core/Inc/usbd_def.h ****   uint8_t *_pbuff = addr;
 149              		.loc 2 309 3 view .LVU40
 310:lib/STM32_USB_Device_Library/Core/Inc/usbd_def.h **** 
 311:lib/STM32_USB_Device_Library/Core/Inc/usbd_def.h ****   _Byte1 = *(uint8_t *)_pbuff;
 150              		.loc 2 311 3 view .LVU41
 151              		.loc 2 311 12 is_stmt 0 view .LVU42
 152 0008 8B78     		ldrb	r3, [r1, #2]	@ zero_extendqisi2
 153              	.LVL13:
 312:lib/STM32_USB_Device_Library/Core/Inc/usbd_def.h ****   _pbuff++;
 154              		.loc 2 312 3 is_stmt 1 view .LVU43
 313:lib/STM32_USB_Device_Library/Core/Inc/usbd_def.h ****   _Byte2 = *(uint8_t *)_pbuff;
 155              		.loc 2 313 3 view .LVU44
 156              		.loc 2 313 12 is_stmt 0 view .LVU45
 157 000a CA78     		ldrb	r2, [r1, #3]	@ zero_extendqisi2
 158              	.LVL14:
 314:lib/STM32_USB_Device_Library/Core/Inc/usbd_def.h **** 
 315:lib/STM32_USB_Device_Library/Core/Inc/usbd_def.h ****   _SwapVal = (_Byte2 << 8) | _Byte1;
 159              		.loc 2 315 3 is_stmt 1 view .LVU46
 160              		.loc 2 315 12 is_stmt 0 view .LVU47
 161 000c 43EA0223 		orr	r3, r3, r2, lsl #8
 162              	.LVL15:
 316:lib/STM32_USB_Device_Library/Core/Inc/usbd_def.h **** 
ARM GAS  C:\Users\BIGBIG~1\AppData\Local\Temp\cc5naY0b.s 			page 26


 317:lib/STM32_USB_Device_Library/Core/Inc/usbd_def.h ****   return _SwapVal;
 163              		.loc 2 317 3 is_stmt 1 view .LVU48
 164              		.loc 2 317 3 is_stmt 0 view .LVU49
 165              	.LBE9:
 166              	.LBE8:
 846:lib/STM32_USB_Device_Library/Core/Src/usbd_ctlreq.c **** 
 167              		.loc 1 846 15 view .LVU50
 168 0010 4380     		strh	r3, [r0, #2]	@ movhi
 169              	.LVL16:
 848:lib/STM32_USB_Device_Library/Core/Src/usbd_ctlreq.c ****   pbuff++;
 170              		.loc 1 848 3 is_stmt 1 view .LVU51
 849:lib/STM32_USB_Device_Library/Core/Src/usbd_ctlreq.c ****   req->wIndex = SWAPBYTE(pbuff);
 171              		.loc 1 849 3 view .LVU52
 850:lib/STM32_USB_Device_Library/Core/Src/usbd_ctlreq.c **** 
 172              		.loc 1 850 3 view .LVU53
 173              	.LBB10:
 174              	.LBI10:
 306:lib/STM32_USB_Device_Library/Core/Inc/usbd_def.h **** {
 175              		.loc 2 306 26 view .LVU54
 176              	.LBB11:
 308:lib/STM32_USB_Device_Library/Core/Inc/usbd_def.h ****   uint8_t *_pbuff = addr;
 177              		.loc 2 308 3 view .LVU55
 309:lib/STM32_USB_Device_Library/Core/Inc/usbd_def.h **** 
 178              		.loc 2 309 3 view .LVU56
 311:lib/STM32_USB_Device_Library/Core/Inc/usbd_def.h ****   _pbuff++;
 179              		.loc 2 311 3 view .LVU57
 311:lib/STM32_USB_Device_Library/Core/Inc/usbd_def.h ****   _pbuff++;
 180              		.loc 2 311 12 is_stmt 0 view .LVU58
 181 0012 0B79     		ldrb	r3, [r1, #4]	@ zero_extendqisi2
 182              	.LVL17:
 312:lib/STM32_USB_Device_Library/Core/Inc/usbd_def.h ****   _Byte2 = *(uint8_t *)_pbuff;
 183              		.loc 2 312 3 is_stmt 1 view .LVU59
 313:lib/STM32_USB_Device_Library/Core/Inc/usbd_def.h **** 
 184              		.loc 2 313 3 view .LVU60
 313:lib/STM32_USB_Device_Library/Core/Inc/usbd_def.h **** 
 185              		.loc 2 313 12 is_stmt 0 view .LVU61
 186 0014 4A79     		ldrb	r2, [r1, #5]	@ zero_extendqisi2
 187              	.LVL18:
 315:lib/STM32_USB_Device_Library/Core/Inc/usbd_def.h **** 
 188              		.loc 2 315 3 is_stmt 1 view .LVU62
 315:lib/STM32_USB_Device_Library/Core/Inc/usbd_def.h **** 
 189              		.loc 2 315 12 is_stmt 0 view .LVU63
 190 0016 43EA0223 		orr	r3, r3, r2, lsl #8
 191              	.LVL19:
 192              		.loc 2 317 3 is_stmt 1 view .LVU64
 193              		.loc 2 317 3 is_stmt 0 view .LVU65
 194              	.LBE11:
 195              	.LBE10:
 850:lib/STM32_USB_Device_Library/Core/Src/usbd_ctlreq.c **** 
 196              		.loc 1 850 15 view .LVU66
 197 001a 8380     		strh	r3, [r0, #4]	@ movhi
 198              	.LVL20:
 852:lib/STM32_USB_Device_Library/Core/Src/usbd_ctlreq.c ****   pbuff++;
 199              		.loc 1 852 3 is_stmt 1 view .LVU67
 853:lib/STM32_USB_Device_Library/Core/Src/usbd_ctlreq.c ****   req->wLength = SWAPBYTE(pbuff);
 200              		.loc 1 853 3 view .LVU68
 854:lib/STM32_USB_Device_Library/Core/Src/usbd_ctlreq.c **** }
ARM GAS  C:\Users\BIGBIG~1\AppData\Local\Temp\cc5naY0b.s 			page 27


 201              		.loc 1 854 3 view .LVU69
 202              	.LBB12:
 203              	.LBI12:
 306:lib/STM32_USB_Device_Library/Core/Inc/usbd_def.h **** {
 204              		.loc 2 306 26 view .LVU70
 205              	.LBB13:
 308:lib/STM32_USB_Device_Library/Core/Inc/usbd_def.h ****   uint8_t *_pbuff = addr;
 206              		.loc 2 308 3 view .LVU71
 309:lib/STM32_USB_Device_Library/Core/Inc/usbd_def.h **** 
 207              		.loc 2 309 3 view .LVU72
 311:lib/STM32_USB_Device_Library/Core/Inc/usbd_def.h ****   _pbuff++;
 208              		.loc 2 311 3 view .LVU73
 311:lib/STM32_USB_Device_Library/Core/Inc/usbd_def.h ****   _pbuff++;
 209              		.loc 2 311 12 is_stmt 0 view .LVU74
 210 001c 8B79     		ldrb	r3, [r1, #6]	@ zero_extendqisi2
 211              	.LVL21:
 312:lib/STM32_USB_Device_Library/Core/Inc/usbd_def.h ****   _Byte2 = *(uint8_t *)_pbuff;
 212              		.loc 2 312 3 is_stmt 1 view .LVU75
 313:lib/STM32_USB_Device_Library/Core/Inc/usbd_def.h **** 
 213              		.loc 2 313 3 view .LVU76
 313:lib/STM32_USB_Device_Library/Core/Inc/usbd_def.h **** 
 214              		.loc 2 313 12 is_stmt 0 view .LVU77
 215 001e CA79     		ldrb	r2, [r1, #7]	@ zero_extendqisi2
 216              	.LVL22:
 315:lib/STM32_USB_Device_Library/Core/Inc/usbd_def.h **** 
 217              		.loc 2 315 3 is_stmt 1 view .LVU78
 315:lib/STM32_USB_Device_Library/Core/Inc/usbd_def.h **** 
 218              		.loc 2 315 12 is_stmt 0 view .LVU79
 219 0020 43EA0223 		orr	r3, r3, r2, lsl #8
 220              	.LVL23:
 221              		.loc 2 317 3 is_stmt 1 view .LVU80
 222              		.loc 2 317 3 is_stmt 0 view .LVU81
 223              	.LBE13:
 224              	.LBE12:
 854:lib/STM32_USB_Device_Library/Core/Src/usbd_ctlreq.c **** }
 225              		.loc 1 854 16 view .LVU82
 226 0024 C380     		strh	r3, [r0, #6]	@ movhi
 227              	.LVL24:
 855:lib/STM32_USB_Device_Library/Core/Src/usbd_ctlreq.c **** 
 228              		.loc 1 855 1 view .LVU83
 229 0026 7047     		bx	lr
 230              		.cfi_endproc
 231              	.LFE155:
 233              		.section	.text.USBD_CtlError,"ax",%progbits
 234              		.align	1
 235              		.global	USBD_CtlError
 236              		.syntax unified
 237              		.thumb
 238              		.thumb_func
 239              		.fpu fpv5-d16
 241              	USBD_CtlError:
 242              	.LVL25:
 243              	.LFB156:
 866:lib/STM32_USB_Device_Library/Core/Src/usbd_ctlreq.c ****   UNUSED(req);
 244              		.loc 1 866 1 is_stmt 1 view -0
 245              		.cfi_startproc
 246              		@ args = 0, pretend = 0, frame = 0
ARM GAS  C:\Users\BIGBIG~1\AppData\Local\Temp\cc5naY0b.s 			page 28


 247              		@ frame_needed = 0, uses_anonymous_args = 0
 866:lib/STM32_USB_Device_Library/Core/Src/usbd_ctlreq.c ****   UNUSED(req);
 248              		.loc 1 866 1 is_stmt 0 view .LVU85
 249 0000 10B5     		push	{r4, lr}
 250              	.LCFI1:
 251              		.cfi_def_cfa_offset 8
 252              		.cfi_offset 4, -8
 253              		.cfi_offset 14, -4
 254 0002 0446     		mov	r4, r0
 867:lib/STM32_USB_Device_Library/Core/Src/usbd_ctlreq.c **** 
 255              		.loc 1 867 3 is_stmt 1 view .LVU86
 869:lib/STM32_USB_Device_Library/Core/Src/usbd_ctlreq.c ****   (void)USBD_LL_StallEP(pdev, 0U);
 256              		.loc 1 869 3 view .LVU87
 869:lib/STM32_USB_Device_Library/Core/Src/usbd_ctlreq.c ****   (void)USBD_LL_StallEP(pdev, 0U);
 257              		.loc 1 869 9 is_stmt 0 view .LVU88
 258 0004 8021     		movs	r1, #128
 259              	.LVL26:
 869:lib/STM32_USB_Device_Library/Core/Src/usbd_ctlreq.c ****   (void)USBD_LL_StallEP(pdev, 0U);
 260              		.loc 1 869 9 view .LVU89
 261 0006 FFF7FEFF 		bl	USBD_LL_StallEP
 262              	.LVL27:
 870:lib/STM32_USB_Device_Library/Core/Src/usbd_ctlreq.c **** }
 263              		.loc 1 870 3 is_stmt 1 view .LVU90
 870:lib/STM32_USB_Device_Library/Core/Src/usbd_ctlreq.c **** }
 264              		.loc 1 870 9 is_stmt 0 view .LVU91
 265 000a 0021     		movs	r1, #0
 266 000c 2046     		mov	r0, r4
 267 000e FFF7FEFF 		bl	USBD_LL_StallEP
 268              	.LVL28:
 871:lib/STM32_USB_Device_Library/Core/Src/usbd_ctlreq.c **** 
 269              		.loc 1 871 1 view .LVU92
 270 0012 10BD     		pop	{r4, pc}
 871:lib/STM32_USB_Device_Library/Core/Src/usbd_ctlreq.c **** 
 271              		.loc 1 871 1 view .LVU93
 272              		.cfi_endproc
 273              	.LFE156:
 275              		.section	.text.USBD_GetDescriptor,"ax",%progbits
 276              		.align	1
 277              		.syntax unified
 278              		.thumb
 279              		.thumb_func
 280              		.fpu fpv5-d16
 282              	USBD_GetDescriptor:
 283              	.LVL29:
 284              	.LFB148:
 381:lib/STM32_USB_Device_Library/Core/Src/usbd_ctlreq.c ****   uint16_t len = 0U;
 285              		.loc 1 381 1 is_stmt 1 view -0
 286              		.cfi_startproc
 287              		@ args = 0, pretend = 0, frame = 8
 288              		@ frame_needed = 0, uses_anonymous_args = 0
 381:lib/STM32_USB_Device_Library/Core/Src/usbd_ctlreq.c ****   uint16_t len = 0U;
 289              		.loc 1 381 1 is_stmt 0 view .LVU95
 290 0000 30B5     		push	{r4, r5, lr}
 291              	.LCFI2:
 292              		.cfi_def_cfa_offset 12
 293              		.cfi_offset 4, -12
 294              		.cfi_offset 5, -8
ARM GAS  C:\Users\BIGBIG~1\AppData\Local\Temp\cc5naY0b.s 			page 29


 295              		.cfi_offset 14, -4
 296 0002 83B0     		sub	sp, sp, #12
 297              	.LCFI3:
 298              		.cfi_def_cfa_offset 24
 299 0004 0446     		mov	r4, r0
 300 0006 0D46     		mov	r5, r1
 382:lib/STM32_USB_Device_Library/Core/Src/usbd_ctlreq.c ****   uint8_t *pbuf = NULL;
 301              		.loc 1 382 3 is_stmt 1 view .LVU96
 382:lib/STM32_USB_Device_Library/Core/Src/usbd_ctlreq.c ****   uint8_t *pbuf = NULL;
 302              		.loc 1 382 12 is_stmt 0 view .LVU97
 303 0008 0023     		movs	r3, #0
 304 000a ADF80630 		strh	r3, [sp, #6]	@ movhi
 383:lib/STM32_USB_Device_Library/Core/Src/usbd_ctlreq.c ****   uint8_t err = 0U;
 305              		.loc 1 383 3 is_stmt 1 view .LVU98
 306              	.LVL30:
 384:lib/STM32_USB_Device_Library/Core/Src/usbd_ctlreq.c **** 
 307              		.loc 1 384 3 view .LVU99
 386:lib/STM32_USB_Device_Library/Core/Src/usbd_ctlreq.c ****   {
 308              		.loc 1 386 3 view .LVU100
 386:lib/STM32_USB_Device_Library/Core/Src/usbd_ctlreq.c ****   {
 309              		.loc 1 386 14 is_stmt 0 view .LVU101
 310 000e 4A88     		ldrh	r2, [r1, #2]
 386:lib/STM32_USB_Device_Library/Core/Src/usbd_ctlreq.c ****   {
 311              		.loc 1 386 23 view .LVU102
 312 0010 130A     		lsrs	r3, r2, #8
 313 0012 013B     		subs	r3, r3, #1
 314 0014 0E2B     		cmp	r3, #14
 315 0016 00F2BC80 		bhi	.L13
 316 001a DFE803F0 		tbb	[pc, r3]
 317              	.LVL31:
 318              	.L15:
 319 001e 15       		.byte	(.L20-.L15)/2
 320 001f 30       		.byte	(.L19-.L15)/2
 321 0020 44       		.byte	(.L18-.L15)/2
 322 0021 BA       		.byte	(.L13-.L15)/2
 323 0022 BA       		.byte	(.L13-.L15)/2
 324 0023 9E       		.byte	(.L17-.L15)/2
 325 0024 AB       		.byte	(.L16-.L15)/2
 326 0025 BA       		.byte	(.L13-.L15)/2
 327 0026 BA       		.byte	(.L13-.L15)/2
 328 0027 BA       		.byte	(.L13-.L15)/2
 329 0028 BA       		.byte	(.L13-.L15)/2
 330 0029 BA       		.byte	(.L13-.L15)/2
 331 002a BA       		.byte	(.L13-.L15)/2
 332 002b BA       		.byte	(.L13-.L15)/2
 333 002c 08       		.byte	(.L14-.L15)/2
 334 002d 00       		.p2align 1
 335              	.L14:
 390:lib/STM32_USB_Device_Library/Core/Src/usbd_ctlreq.c ****     {
 336              		.loc 1 390 5 is_stmt 1 view .LVU103
 390:lib/STM32_USB_Device_Library/Core/Src/usbd_ctlreq.c ****     {
 337              		.loc 1 390 13 is_stmt 0 view .LVU104
 338 002e D0F8B432 		ldr	r3, [r0, #692]
 390:lib/STM32_USB_Device_Library/Core/Src/usbd_ctlreq.c ****     {
 339              		.loc 1 390 20 view .LVU105
 340 0032 DB69     		ldr	r3, [r3, #28]
 390:lib/STM32_USB_Device_Library/Core/Src/usbd_ctlreq.c ****     {
ARM GAS  C:\Users\BIGBIG~1\AppData\Local\Temp\cc5naY0b.s 			page 30


 341              		.loc 1 390 8 view .LVU106
 342 0034 23B1     		cbz	r3, .L21
 392:lib/STM32_USB_Device_Library/Core/Src/usbd_ctlreq.c ****     }
 343              		.loc 1 392 7 is_stmt 1 view .LVU107
 392:lib/STM32_USB_Device_Library/Core/Src/usbd_ctlreq.c ****     }
 344              		.loc 1 392 14 is_stmt 0 view .LVU108
 345 0036 0DF10601 		add	r1, sp, #6
 346 003a 007C     		ldrb	r0, [r0, #16]	@ zero_extendqisi2
 347              	.LVL32:
 392:lib/STM32_USB_Device_Library/Core/Src/usbd_ctlreq.c ****     }
 348              		.loc 1 392 14 view .LVU109
 349 003c 9847     		blx	r3
 350              	.LVL33:
 553:lib/STM32_USB_Device_Library/Core/Src/usbd_ctlreq.c ****   {
 351              		.loc 1 553 3 is_stmt 1 view .LVU110
 352 003e 0AE0     		b	.L22
 353              	.LVL34:
 354              	.L21:
 396:lib/STM32_USB_Device_Library/Core/Src/usbd_ctlreq.c ****       err++;
 355              		.loc 1 396 7 view .LVU111
 356 0040 2946     		mov	r1, r5
 357 0042 FFF7FEFF 		bl	USBD_CtlError
 358              	.LVL35:
 397:lib/STM32_USB_Device_Library/Core/Src/usbd_ctlreq.c ****     }
 359              		.loc 1 397 7 view .LVU112
 553:lib/STM32_USB_Device_Library/Core/Src/usbd_ctlreq.c ****   {
 360              		.loc 1 553 3 view .LVU113
 361 0046 18E0     		b	.L12
 362              	.LVL36:
 363              	.L20:
 402:lib/STM32_USB_Device_Library/Core/Src/usbd_ctlreq.c ****     break;
 364              		.loc 1 402 5 view .LVU114
 402:lib/STM32_USB_Device_Library/Core/Src/usbd_ctlreq.c ****     break;
 365              		.loc 1 402 16 is_stmt 0 view .LVU115
 366 0048 D0F8B432 		ldr	r3, [r0, #692]
 402:lib/STM32_USB_Device_Library/Core/Src/usbd_ctlreq.c ****     break;
 367              		.loc 1 402 23 view .LVU116
 368 004c 1B68     		ldr	r3, [r3]
 402:lib/STM32_USB_Device_Library/Core/Src/usbd_ctlreq.c ****     break;
 369              		.loc 1 402 12 view .LVU117
 370 004e 0DF10601 		add	r1, sp, #6
 371 0052 007C     		ldrb	r0, [r0, #16]	@ zero_extendqisi2
 372              	.LVL37:
 402:lib/STM32_USB_Device_Library/Core/Src/usbd_ctlreq.c ****     break;
 373              		.loc 1 402 12 view .LVU118
 374 0054 9847     		blx	r3
 375              	.LVL38:
 403:lib/STM32_USB_Device_Library/Core/Src/usbd_ctlreq.c **** 
 376              		.loc 1 403 5 is_stmt 1 view .LVU119
 553:lib/STM32_USB_Device_Library/Core/Src/usbd_ctlreq.c ****   {
 377              		.loc 1 553 3 view .LVU120
 378              	.L22:
 559:lib/STM32_USB_Device_Library/Core/Src/usbd_ctlreq.c ****     {
 379              		.loc 1 559 5 view .LVU121
 559:lib/STM32_USB_Device_Library/Core/Src/usbd_ctlreq.c ****     {
 380              		.loc 1 559 12 is_stmt 0 view .LVU122
 381 0056 EA88     		ldrh	r2, [r5, #6]
ARM GAS  C:\Users\BIGBIG~1\AppData\Local\Temp\cc5naY0b.s 			page 31


 559:lib/STM32_USB_Device_Library/Core/Src/usbd_ctlreq.c ****     {
 382              		.loc 1 559 8 view .LVU123
 383 0058 002A     		cmp	r2, #0
 384 005a 00F0A380 		beq	.L42
 561:lib/STM32_USB_Device_Library/Core/Src/usbd_ctlreq.c ****       {
 385              		.loc 1 561 7 is_stmt 1 view .LVU124
 561:lib/STM32_USB_Device_Library/Core/Src/usbd_ctlreq.c ****       {
 386              		.loc 1 561 15 is_stmt 0 view .LVU125
 387 005e BDF80630 		ldrh	r3, [sp, #6]
 561:lib/STM32_USB_Device_Library/Core/Src/usbd_ctlreq.c ****       {
 388              		.loc 1 561 10 view .LVU126
 389 0062 002B     		cmp	r3, #0
 390 0064 00F09980 		beq	.L43
 563:lib/STM32_USB_Device_Library/Core/Src/usbd_ctlreq.c ****         (void)USBD_CtlSendData(pdev, pbuf, len);
 391              		.loc 1 563 9 is_stmt 1 view .LVU127
 563:lib/STM32_USB_Device_Library/Core/Src/usbd_ctlreq.c ****         (void)USBD_CtlSendData(pdev, pbuf, len);
 392              		.loc 1 563 15 is_stmt 0 view .LVU128
 393 0068 9A42     		cmp	r2, r3
 394 006a 28BF     		it	cs
 395 006c 1A46     		movcs	r2, r3
 563:lib/STM32_USB_Device_Library/Core/Src/usbd_ctlreq.c ****         (void)USBD_CtlSendData(pdev, pbuf, len);
 396              		.loc 1 563 13 view .LVU129
 397 006e ADF80620 		strh	r2, [sp, #6]	@ movhi
 564:lib/STM32_USB_Device_Library/Core/Src/usbd_ctlreq.c ****       }
 398              		.loc 1 564 9 is_stmt 1 view .LVU130
 564:lib/STM32_USB_Device_Library/Core/Src/usbd_ctlreq.c ****       }
 399              		.loc 1 564 15 is_stmt 0 view .LVU131
 400 0072 0146     		mov	r1, r0
 401 0074 2046     		mov	r0, r4
 402              	.LVL39:
 564:lib/STM32_USB_Device_Library/Core/Src/usbd_ctlreq.c ****       }
 403              		.loc 1 564 15 view .LVU132
 404 0076 FFF7FEFF 		bl	USBD_CtlSendData
 405              	.LVL40:
 406              	.L12:
 576:lib/STM32_USB_Device_Library/Core/Src/usbd_ctlreq.c **** 
 407              		.loc 1 576 1 view .LVU133
 408 007a 03B0     		add	sp, sp, #12
 409              	.LCFI4:
 410              		.cfi_remember_state
 411              		.cfi_def_cfa_offset 12
 412              		@ sp needed
 413 007c 30BD     		pop	{r4, r5, pc}
 414              	.LVL41:
 415              	.L19:
 416              	.LCFI5:
 417              		.cfi_restore_state
 406:lib/STM32_USB_Device_Library/Core/Src/usbd_ctlreq.c ****     {
 418              		.loc 1 406 5 is_stmt 1 view .LVU134
 406:lib/STM32_USB_Device_Library/Core/Src/usbd_ctlreq.c ****     {
 419              		.loc 1 406 13 is_stmt 0 view .LVU135
 420 007e 037C     		ldrb	r3, [r0, #16]	@ zero_extendqisi2
 406:lib/STM32_USB_Device_Library/Core/Src/usbd_ctlreq.c ****     {
 421              		.loc 1 406 8 view .LVU136
 422 0080 43B9     		cbnz	r3, .L24
 408:lib/STM32_USB_Device_Library/Core/Src/usbd_ctlreq.c ****       pbuf[1] = USB_DESC_TYPE_CONFIGURATION;
 423              		.loc 1 408 7 is_stmt 1 view .LVU137
ARM GAS  C:\Users\BIGBIG~1\AppData\Local\Temp\cc5naY0b.s 			page 32


 408:lib/STM32_USB_Device_Library/Core/Src/usbd_ctlreq.c ****       pbuf[1] = USB_DESC_TYPE_CONFIGURATION;
 424              		.loc 1 408 18 is_stmt 0 view .LVU138
 425 0082 D0F8B832 		ldr	r3, [r0, #696]
 408:lib/STM32_USB_Device_Library/Core/Src/usbd_ctlreq.c ****       pbuf[1] = USB_DESC_TYPE_CONFIGURATION;
 426              		.loc 1 408 26 view .LVU139
 427 0086 9B6A     		ldr	r3, [r3, #40]
 408:lib/STM32_USB_Device_Library/Core/Src/usbd_ctlreq.c ****       pbuf[1] = USB_DESC_TYPE_CONFIGURATION;
 428              		.loc 1 408 14 view .LVU140
 429 0088 0DF10600 		add	r0, sp, #6
 430              	.LVL42:
 408:lib/STM32_USB_Device_Library/Core/Src/usbd_ctlreq.c ****       pbuf[1] = USB_DESC_TYPE_CONFIGURATION;
 431              		.loc 1 408 14 view .LVU141
 432 008c 9847     		blx	r3
 433              	.LVL43:
 409:lib/STM32_USB_Device_Library/Core/Src/usbd_ctlreq.c ****     }
 434              		.loc 1 409 7 is_stmt 1 view .LVU142
 409:lib/STM32_USB_Device_Library/Core/Src/usbd_ctlreq.c ****     }
 435              		.loc 1 409 15 is_stmt 0 view .LVU143
 436 008e 0223     		movs	r3, #2
 437 0090 4370     		strb	r3, [r0, #1]
 553:lib/STM32_USB_Device_Library/Core/Src/usbd_ctlreq.c ****   {
 438              		.loc 1 553 3 is_stmt 1 view .LVU144
 439 0092 E0E7     		b	.L22
 440              	.LVL44:
 441              	.L24:
 413:lib/STM32_USB_Device_Library/Core/Src/usbd_ctlreq.c ****       pbuf[1] = USB_DESC_TYPE_CONFIGURATION;
 442              		.loc 1 413 7 view .LVU145
 413:lib/STM32_USB_Device_Library/Core/Src/usbd_ctlreq.c ****       pbuf[1] = USB_DESC_TYPE_CONFIGURATION;
 443              		.loc 1 413 18 is_stmt 0 view .LVU146
 444 0094 D0F8B832 		ldr	r3, [r0, #696]
 413:lib/STM32_USB_Device_Library/Core/Src/usbd_ctlreq.c ****       pbuf[1] = USB_DESC_TYPE_CONFIGURATION;
 445              		.loc 1 413 26 view .LVU147
 446 0098 DB6A     		ldr	r3, [r3, #44]
 413:lib/STM32_USB_Device_Library/Core/Src/usbd_ctlreq.c ****       pbuf[1] = USB_DESC_TYPE_CONFIGURATION;
 447              		.loc 1 413 14 view .LVU148
 448 009a 0DF10600 		add	r0, sp, #6
 449              	.LVL45:
 413:lib/STM32_USB_Device_Library/Core/Src/usbd_ctlreq.c ****       pbuf[1] = USB_DESC_TYPE_CONFIGURATION;
 450              		.loc 1 413 14 view .LVU149
 451 009e 9847     		blx	r3
 452              	.LVL46:
 414:lib/STM32_USB_Device_Library/Core/Src/usbd_ctlreq.c ****     }
 453              		.loc 1 414 7 is_stmt 1 view .LVU150
 414:lib/STM32_USB_Device_Library/Core/Src/usbd_ctlreq.c ****     }
 454              		.loc 1 414 15 is_stmt 0 view .LVU151
 455 00a0 0223     		movs	r3, #2
 456 00a2 4370     		strb	r3, [r0, #1]
 553:lib/STM32_USB_Device_Library/Core/Src/usbd_ctlreq.c ****   {
 457              		.loc 1 553 3 is_stmt 1 view .LVU152
 458 00a4 D7E7     		b	.L22
 459              	.LVL47:
 460              	.L18:
 419:lib/STM32_USB_Device_Library/Core/Src/usbd_ctlreq.c ****     {
 461              		.loc 1 419 5 view .LVU153
 419:lib/STM32_USB_Device_Library/Core/Src/usbd_ctlreq.c ****     {
 462              		.loc 1 419 13 is_stmt 0 view .LVU154
 463 00a6 D2B2     		uxtb	r2, r2
ARM GAS  C:\Users\BIGBIG~1\AppData\Local\Temp\cc5naY0b.s 			page 33


 464 00a8 052A     		cmp	r2, #5
 465 00aa 52D8     		bhi	.L25
 466 00ac DFE802F0 		tbb	[pc, r2]
 467              	.L27:
 468 00b0 03       		.byte	(.L32-.L27)/2
 469 00b1 10       		.byte	(.L31-.L27)/2
 470 00b2 1D       		.byte	(.L30-.L27)/2
 471 00b3 2A       		.byte	(.L29-.L27)/2
 472 00b4 37       		.byte	(.L28-.L27)/2
 473 00b5 44       		.byte	(.L26-.L27)/2
 474              		.p2align 1
 475              	.L32:
 422:lib/STM32_USB_Device_Library/Core/Src/usbd_ctlreq.c ****       {
 476              		.loc 1 422 7 is_stmt 1 view .LVU155
 422:lib/STM32_USB_Device_Library/Core/Src/usbd_ctlreq.c ****       {
 477              		.loc 1 422 15 is_stmt 0 view .LVU156
 478 00b6 D0F8B432 		ldr	r3, [r0, #692]
 422:lib/STM32_USB_Device_Library/Core/Src/usbd_ctlreq.c ****       {
 479              		.loc 1 422 22 view .LVU157
 480 00ba 5B68     		ldr	r3, [r3, #4]
 422:lib/STM32_USB_Device_Library/Core/Src/usbd_ctlreq.c ****       {
 481              		.loc 1 422 10 view .LVU158
 482 00bc 23B1     		cbz	r3, .L33
 424:lib/STM32_USB_Device_Library/Core/Src/usbd_ctlreq.c ****       }
 483              		.loc 1 424 9 is_stmt 1 view .LVU159
 424:lib/STM32_USB_Device_Library/Core/Src/usbd_ctlreq.c ****       }
 484              		.loc 1 424 16 is_stmt 0 view .LVU160
 485 00be 0DF10601 		add	r1, sp, #6
 486 00c2 007C     		ldrb	r0, [r0, #16]	@ zero_extendqisi2
 487              	.LVL48:
 424:lib/STM32_USB_Device_Library/Core/Src/usbd_ctlreq.c ****       }
 488              		.loc 1 424 16 view .LVU161
 489 00c4 9847     		blx	r3
 490              	.LVL49:
 553:lib/STM32_USB_Device_Library/Core/Src/usbd_ctlreq.c ****   {
 491              		.loc 1 553 3 is_stmt 1 view .LVU162
 492 00c6 C6E7     		b	.L22
 493              	.LVL50:
 494              	.L33:
 428:lib/STM32_USB_Device_Library/Core/Src/usbd_ctlreq.c ****         err++;
 495              		.loc 1 428 9 view .LVU163
 496 00c8 2946     		mov	r1, r5
 497 00ca FFF7FEFF 		bl	USBD_CtlError
 498              	.LVL51:
 429:lib/STM32_USB_Device_Library/Core/Src/usbd_ctlreq.c ****       }
 499              		.loc 1 429 9 view .LVU164
 553:lib/STM32_USB_Device_Library/Core/Src/usbd_ctlreq.c ****   {
 500              		.loc 1 553 3 view .LVU165
 501 00ce D4E7     		b	.L12
 502              	.LVL52:
 503              	.L31:
 434:lib/STM32_USB_Device_Library/Core/Src/usbd_ctlreq.c ****       {
 504              		.loc 1 434 7 view .LVU166
 434:lib/STM32_USB_Device_Library/Core/Src/usbd_ctlreq.c ****       {
 505              		.loc 1 434 15 is_stmt 0 view .LVU167
 506 00d0 D0F8B432 		ldr	r3, [r0, #692]
 434:lib/STM32_USB_Device_Library/Core/Src/usbd_ctlreq.c ****       {
ARM GAS  C:\Users\BIGBIG~1\AppData\Local\Temp\cc5naY0b.s 			page 34


 507              		.loc 1 434 22 view .LVU168
 508 00d4 9B68     		ldr	r3, [r3, #8]
 434:lib/STM32_USB_Device_Library/Core/Src/usbd_ctlreq.c ****       {
 509              		.loc 1 434 10 view .LVU169
 510 00d6 23B1     		cbz	r3, .L34
 436:lib/STM32_USB_Device_Library/Core/Src/usbd_ctlreq.c ****       }
 511              		.loc 1 436 9 is_stmt 1 view .LVU170
 436:lib/STM32_USB_Device_Library/Core/Src/usbd_ctlreq.c ****       }
 512              		.loc 1 436 16 is_stmt 0 view .LVU171
 513 00d8 0DF10601 		add	r1, sp, #6
 514 00dc 007C     		ldrb	r0, [r0, #16]	@ zero_extendqisi2
 515              	.LVL53:
 436:lib/STM32_USB_Device_Library/Core/Src/usbd_ctlreq.c ****       }
 516              		.loc 1 436 16 view .LVU172
 517 00de 9847     		blx	r3
 518              	.LVL54:
 553:lib/STM32_USB_Device_Library/Core/Src/usbd_ctlreq.c ****   {
 519              		.loc 1 553 3 is_stmt 1 view .LVU173
 520 00e0 B9E7     		b	.L22
 521              	.LVL55:
 522              	.L34:
 440:lib/STM32_USB_Device_Library/Core/Src/usbd_ctlreq.c ****         err++;
 523              		.loc 1 440 9 view .LVU174
 524 00e2 2946     		mov	r1, r5
 525 00e4 FFF7FEFF 		bl	USBD_CtlError
 526              	.LVL56:
 441:lib/STM32_USB_Device_Library/Core/Src/usbd_ctlreq.c ****       }
 527              		.loc 1 441 9 view .LVU175
 553:lib/STM32_USB_Device_Library/Core/Src/usbd_ctlreq.c ****   {
 528              		.loc 1 553 3 view .LVU176
 529 00e8 C7E7     		b	.L12
 530              	.LVL57:
 531              	.L30:
 446:lib/STM32_USB_Device_Library/Core/Src/usbd_ctlreq.c ****       {
 532              		.loc 1 446 7 view .LVU177
 446:lib/STM32_USB_Device_Library/Core/Src/usbd_ctlreq.c ****       {
 533              		.loc 1 446 15 is_stmt 0 view .LVU178
 534 00ea D0F8B432 		ldr	r3, [r0, #692]
 446:lib/STM32_USB_Device_Library/Core/Src/usbd_ctlreq.c ****       {
 535              		.loc 1 446 22 view .LVU179
 536 00ee DB68     		ldr	r3, [r3, #12]
 446:lib/STM32_USB_Device_Library/Core/Src/usbd_ctlreq.c ****       {
 537              		.loc 1 446 10 view .LVU180
 538 00f0 23B1     		cbz	r3, .L35
 448:lib/STM32_USB_Device_Library/Core/Src/usbd_ctlreq.c ****       }
 539              		.loc 1 448 9 is_stmt 1 view .LVU181
 448:lib/STM32_USB_Device_Library/Core/Src/usbd_ctlreq.c ****       }
 540              		.loc 1 448 16 is_stmt 0 view .LVU182
 541 00f2 0DF10601 		add	r1, sp, #6
 542 00f6 007C     		ldrb	r0, [r0, #16]	@ zero_extendqisi2
 543              	.LVL58:
 448:lib/STM32_USB_Device_Library/Core/Src/usbd_ctlreq.c ****       }
 544              		.loc 1 448 16 view .LVU183
 545 00f8 9847     		blx	r3
 546              	.LVL59:
 553:lib/STM32_USB_Device_Library/Core/Src/usbd_ctlreq.c ****   {
 547              		.loc 1 553 3 is_stmt 1 view .LVU184
ARM GAS  C:\Users\BIGBIG~1\AppData\Local\Temp\cc5naY0b.s 			page 35


 548 00fa ACE7     		b	.L22
 549              	.LVL60:
 550              	.L35:
 452:lib/STM32_USB_Device_Library/Core/Src/usbd_ctlreq.c ****         err++;
 551              		.loc 1 452 9 view .LVU185
 552 00fc 2946     		mov	r1, r5
 553 00fe FFF7FEFF 		bl	USBD_CtlError
 554              	.LVL61:
 453:lib/STM32_USB_Device_Library/Core/Src/usbd_ctlreq.c ****       }
 555              		.loc 1 453 9 view .LVU186
 553:lib/STM32_USB_Device_Library/Core/Src/usbd_ctlreq.c ****   {
 556              		.loc 1 553 3 view .LVU187
 557 0102 BAE7     		b	.L12
 558              	.LVL62:
 559              	.L29:
 458:lib/STM32_USB_Device_Library/Core/Src/usbd_ctlreq.c ****       {
 560              		.loc 1 458 7 view .LVU188
 458:lib/STM32_USB_Device_Library/Core/Src/usbd_ctlreq.c ****       {
 561              		.loc 1 458 15 is_stmt 0 view .LVU189
 562 0104 D0F8B432 		ldr	r3, [r0, #692]
 458:lib/STM32_USB_Device_Library/Core/Src/usbd_ctlreq.c ****       {
 563              		.loc 1 458 22 view .LVU190
 564 0108 1B69     		ldr	r3, [r3, #16]
 458:lib/STM32_USB_Device_Library/Core/Src/usbd_ctlreq.c ****       {
 565              		.loc 1 458 10 view .LVU191
 566 010a 23B1     		cbz	r3, .L36
 460:lib/STM32_USB_Device_Library/Core/Src/usbd_ctlreq.c ****       }
 567              		.loc 1 460 9 is_stmt 1 view .LVU192
 460:lib/STM32_USB_Device_Library/Core/Src/usbd_ctlreq.c ****       }
 568              		.loc 1 460 16 is_stmt 0 view .LVU193
 569 010c 0DF10601 		add	r1, sp, #6
 570 0110 007C     		ldrb	r0, [r0, #16]	@ zero_extendqisi2
 571              	.LVL63:
 460:lib/STM32_USB_Device_Library/Core/Src/usbd_ctlreq.c ****       }
 572              		.loc 1 460 16 view .LVU194
 573 0112 9847     		blx	r3
 574              	.LVL64:
 553:lib/STM32_USB_Device_Library/Core/Src/usbd_ctlreq.c ****   {
 575              		.loc 1 553 3 is_stmt 1 view .LVU195
 576 0114 9FE7     		b	.L22
 577              	.LVL65:
 578              	.L36:
 464:lib/STM32_USB_Device_Library/Core/Src/usbd_ctlreq.c ****         err++;
 579              		.loc 1 464 9 view .LVU196
 580 0116 2946     		mov	r1, r5
 581 0118 FFF7FEFF 		bl	USBD_CtlError
 582              	.LVL66:
 465:lib/STM32_USB_Device_Library/Core/Src/usbd_ctlreq.c ****       }
 583              		.loc 1 465 9 view .LVU197
 553:lib/STM32_USB_Device_Library/Core/Src/usbd_ctlreq.c ****   {
 584              		.loc 1 553 3 view .LVU198
 585 011c ADE7     		b	.L12
 586              	.LVL67:
 587              	.L28:
 470:lib/STM32_USB_Device_Library/Core/Src/usbd_ctlreq.c ****       {
 588              		.loc 1 470 7 view .LVU199
 470:lib/STM32_USB_Device_Library/Core/Src/usbd_ctlreq.c ****       {
ARM GAS  C:\Users\BIGBIG~1\AppData\Local\Temp\cc5naY0b.s 			page 36


 589              		.loc 1 470 15 is_stmt 0 view .LVU200
 590 011e D0F8B432 		ldr	r3, [r0, #692]
 470:lib/STM32_USB_Device_Library/Core/Src/usbd_ctlreq.c ****       {
 591              		.loc 1 470 22 view .LVU201
 592 0122 5B69     		ldr	r3, [r3, #20]
 470:lib/STM32_USB_Device_Library/Core/Src/usbd_ctlreq.c ****       {
 593              		.loc 1 470 10 view .LVU202
 594 0124 23B1     		cbz	r3, .L37
 472:lib/STM32_USB_Device_Library/Core/Src/usbd_ctlreq.c ****       }
 595              		.loc 1 472 9 is_stmt 1 view .LVU203
 472:lib/STM32_USB_Device_Library/Core/Src/usbd_ctlreq.c ****       }
 596              		.loc 1 472 16 is_stmt 0 view .LVU204
 597 0126 0DF10601 		add	r1, sp, #6
 598 012a 007C     		ldrb	r0, [r0, #16]	@ zero_extendqisi2
 599              	.LVL68:
 472:lib/STM32_USB_Device_Library/Core/Src/usbd_ctlreq.c ****       }
 600              		.loc 1 472 16 view .LVU205
 601 012c 9847     		blx	r3
 602              	.LVL69:
 553:lib/STM32_USB_Device_Library/Core/Src/usbd_ctlreq.c ****   {
 603              		.loc 1 553 3 is_stmt 1 view .LVU206
 604 012e 92E7     		b	.L22
 605              	.LVL70:
 606              	.L37:
 476:lib/STM32_USB_Device_Library/Core/Src/usbd_ctlreq.c ****         err++;
 607              		.loc 1 476 9 view .LVU207
 608 0130 2946     		mov	r1, r5
 609 0132 FFF7FEFF 		bl	USBD_CtlError
 610              	.LVL71:
 477:lib/STM32_USB_Device_Library/Core/Src/usbd_ctlreq.c ****       }
 611              		.loc 1 477 9 view .LVU208
 553:lib/STM32_USB_Device_Library/Core/Src/usbd_ctlreq.c ****   {
 612              		.loc 1 553 3 view .LVU209
 613 0136 A0E7     		b	.L12
 614              	.LVL72:
 615              	.L26:
 482:lib/STM32_USB_Device_Library/Core/Src/usbd_ctlreq.c ****       {
 616              		.loc 1 482 7 view .LVU210
 482:lib/STM32_USB_Device_Library/Core/Src/usbd_ctlreq.c ****       {
 617              		.loc 1 482 15 is_stmt 0 view .LVU211
 618 0138 D0F8B432 		ldr	r3, [r0, #692]
 482:lib/STM32_USB_Device_Library/Core/Src/usbd_ctlreq.c ****       {
 619              		.loc 1 482 22 view .LVU212
 620 013c 9B69     		ldr	r3, [r3, #24]
 482:lib/STM32_USB_Device_Library/Core/Src/usbd_ctlreq.c ****       {
 621              		.loc 1 482 10 view .LVU213
 622 013e 23B1     		cbz	r3, .L38
 484:lib/STM32_USB_Device_Library/Core/Src/usbd_ctlreq.c ****       }
 623              		.loc 1 484 9 is_stmt 1 view .LVU214
 484:lib/STM32_USB_Device_Library/Core/Src/usbd_ctlreq.c ****       }
 624              		.loc 1 484 16 is_stmt 0 view .LVU215
 625 0140 0DF10601 		add	r1, sp, #6
 626 0144 007C     		ldrb	r0, [r0, #16]	@ zero_extendqisi2
 627              	.LVL73:
 484:lib/STM32_USB_Device_Library/Core/Src/usbd_ctlreq.c ****       }
 628              		.loc 1 484 16 view .LVU216
 629 0146 9847     		blx	r3
ARM GAS  C:\Users\BIGBIG~1\AppData\Local\Temp\cc5naY0b.s 			page 37


 630              	.LVL74:
 553:lib/STM32_USB_Device_Library/Core/Src/usbd_ctlreq.c ****   {
 631              		.loc 1 553 3 is_stmt 1 view .LVU217
 632 0148 85E7     		b	.L22
 633              	.LVL75:
 634              	.L38:
 488:lib/STM32_USB_Device_Library/Core/Src/usbd_ctlreq.c ****         err++;
 635              		.loc 1 488 9 view .LVU218
 636 014a 2946     		mov	r1, r5
 637 014c FFF7FEFF 		bl	USBD_CtlError
 638              	.LVL76:
 489:lib/STM32_USB_Device_Library/Core/Src/usbd_ctlreq.c ****       }
 639              		.loc 1 489 9 view .LVU219
 553:lib/STM32_USB_Device_Library/Core/Src/usbd_ctlreq.c ****   {
 640              		.loc 1 553 3 view .LVU220
 641 0150 93E7     		b	.L12
 642              	.LVL77:
 643              	.L25:
 515:lib/STM32_USB_Device_Library/Core/Src/usbd_ctlreq.c ****       err++;
 644              		.loc 1 515 7 view .LVU221
 645 0152 2946     		mov	r1, r5
 646 0154 FFF7FEFF 		bl	USBD_CtlError
 647              	.LVL78:
 516:lib/STM32_USB_Device_Library/Core/Src/usbd_ctlreq.c **** #endif
 648              		.loc 1 516 7 view .LVU222
 518:lib/STM32_USB_Device_Library/Core/Src/usbd_ctlreq.c ****     }
 649              		.loc 1 518 7 view .LVU223
 553:lib/STM32_USB_Device_Library/Core/Src/usbd_ctlreq.c ****   {
 650              		.loc 1 553 3 view .LVU224
 651 0158 8FE7     		b	.L12
 652              	.LVL79:
 653              	.L17:
 523:lib/STM32_USB_Device_Library/Core/Src/usbd_ctlreq.c ****     {
 654              		.loc 1 523 5 view .LVU225
 523:lib/STM32_USB_Device_Library/Core/Src/usbd_ctlreq.c ****     {
 655              		.loc 1 523 13 is_stmt 0 view .LVU226
 656 015a 037C     		ldrb	r3, [r0, #16]	@ zero_extendqisi2
 523:lib/STM32_USB_Device_Library/Core/Src/usbd_ctlreq.c ****     {
 657              		.loc 1 523 8 view .LVU227
 658 015c 33B9     		cbnz	r3, .L39
 525:lib/STM32_USB_Device_Library/Core/Src/usbd_ctlreq.c ****     }
 659              		.loc 1 525 7 is_stmt 1 view .LVU228
 525:lib/STM32_USB_Device_Library/Core/Src/usbd_ctlreq.c ****     }
 660              		.loc 1 525 18 is_stmt 0 view .LVU229
 661 015e D0F8B832 		ldr	r3, [r0, #696]
 525:lib/STM32_USB_Device_Library/Core/Src/usbd_ctlreq.c ****     }
 662              		.loc 1 525 26 view .LVU230
 663 0162 5B6B     		ldr	r3, [r3, #52]
 525:lib/STM32_USB_Device_Library/Core/Src/usbd_ctlreq.c ****     }
 664              		.loc 1 525 14 view .LVU231
 665 0164 0DF10600 		add	r0, sp, #6
 666              	.LVL80:
 525:lib/STM32_USB_Device_Library/Core/Src/usbd_ctlreq.c ****     }
 667              		.loc 1 525 14 view .LVU232
 668 0168 9847     		blx	r3
 669              	.LVL81:
 553:lib/STM32_USB_Device_Library/Core/Src/usbd_ctlreq.c ****   {
ARM GAS  C:\Users\BIGBIG~1\AppData\Local\Temp\cc5naY0b.s 			page 38


 670              		.loc 1 553 3 is_stmt 1 view .LVU233
 671 016a 74E7     		b	.L22
 672              	.LVL82:
 673              	.L39:
 529:lib/STM32_USB_Device_Library/Core/Src/usbd_ctlreq.c ****       err++;
 674              		.loc 1 529 7 view .LVU234
 675 016c 2946     		mov	r1, r5
 676 016e FFF7FEFF 		bl	USBD_CtlError
 677              	.LVL83:
 530:lib/STM32_USB_Device_Library/Core/Src/usbd_ctlreq.c ****     }
 678              		.loc 1 530 7 view .LVU235
 553:lib/STM32_USB_Device_Library/Core/Src/usbd_ctlreq.c ****   {
 679              		.loc 1 553 3 view .LVU236
 680 0172 82E7     		b	.L12
 681              	.LVL84:
 682              	.L16:
 535:lib/STM32_USB_Device_Library/Core/Src/usbd_ctlreq.c ****     {
 683              		.loc 1 535 5 view .LVU237
 535:lib/STM32_USB_Device_Library/Core/Src/usbd_ctlreq.c ****     {
 684              		.loc 1 535 13 is_stmt 0 view .LVU238
 685 0174 037C     		ldrb	r3, [r0, #16]	@ zero_extendqisi2
 535:lib/STM32_USB_Device_Library/Core/Src/usbd_ctlreq.c ****     {
 686              		.loc 1 535 8 view .LVU239
 687 0176 43B9     		cbnz	r3, .L40
 537:lib/STM32_USB_Device_Library/Core/Src/usbd_ctlreq.c ****       pbuf[1] = USB_DESC_TYPE_OTHER_SPEED_CONFIGURATION;
 688              		.loc 1 537 7 is_stmt 1 view .LVU240
 537:lib/STM32_USB_Device_Library/Core/Src/usbd_ctlreq.c ****       pbuf[1] = USB_DESC_TYPE_OTHER_SPEED_CONFIGURATION;
 689              		.loc 1 537 18 is_stmt 0 view .LVU241
 690 0178 D0F8B832 		ldr	r3, [r0, #696]
 537:lib/STM32_USB_Device_Library/Core/Src/usbd_ctlreq.c ****       pbuf[1] = USB_DESC_TYPE_OTHER_SPEED_CONFIGURATION;
 691              		.loc 1 537 26 view .LVU242
 692 017c 1B6B     		ldr	r3, [r3, #48]
 537:lib/STM32_USB_Device_Library/Core/Src/usbd_ctlreq.c ****       pbuf[1] = USB_DESC_TYPE_OTHER_SPEED_CONFIGURATION;
 693              		.loc 1 537 14 view .LVU243
 694 017e 0DF10600 		add	r0, sp, #6
 695              	.LVL85:
 537:lib/STM32_USB_Device_Library/Core/Src/usbd_ctlreq.c ****       pbuf[1] = USB_DESC_TYPE_OTHER_SPEED_CONFIGURATION;
 696              		.loc 1 537 14 view .LVU244
 697 0182 9847     		blx	r3
 698              	.LVL86:
 538:lib/STM32_USB_Device_Library/Core/Src/usbd_ctlreq.c ****     }
 699              		.loc 1 538 7 is_stmt 1 view .LVU245
 538:lib/STM32_USB_Device_Library/Core/Src/usbd_ctlreq.c ****     }
 700              		.loc 1 538 15 is_stmt 0 view .LVU246
 701 0184 0723     		movs	r3, #7
 702 0186 4370     		strb	r3, [r0, #1]
 553:lib/STM32_USB_Device_Library/Core/Src/usbd_ctlreq.c ****   {
 703              		.loc 1 553 3 is_stmt 1 view .LVU247
 704 0188 65E7     		b	.L22
 705              	.LVL87:
 706              	.L40:
 542:lib/STM32_USB_Device_Library/Core/Src/usbd_ctlreq.c ****       err++;
 707              		.loc 1 542 7 view .LVU248
 708 018a 2946     		mov	r1, r5
 709 018c FFF7FEFF 		bl	USBD_CtlError
 710              	.LVL88:
 543:lib/STM32_USB_Device_Library/Core/Src/usbd_ctlreq.c ****     }
ARM GAS  C:\Users\BIGBIG~1\AppData\Local\Temp\cc5naY0b.s 			page 39


 711              		.loc 1 543 7 view .LVU249
 553:lib/STM32_USB_Device_Library/Core/Src/usbd_ctlreq.c ****   {
 712              		.loc 1 553 3 view .LVU250
 713 0190 73E7     		b	.L12
 714              	.LVL89:
 715              	.L13:
 548:lib/STM32_USB_Device_Library/Core/Src/usbd_ctlreq.c ****     err++;
 716              		.loc 1 548 5 view .LVU251
 717 0192 2946     		mov	r1, r5
 718 0194 FFF7FEFF 		bl	USBD_CtlError
 719              	.LVL90:
 549:lib/STM32_USB_Device_Library/Core/Src/usbd_ctlreq.c ****     break;
 720              		.loc 1 549 5 view .LVU252
 550:lib/STM32_USB_Device_Library/Core/Src/usbd_ctlreq.c ****   }
 721              		.loc 1 550 5 view .LVU253
 553:lib/STM32_USB_Device_Library/Core/Src/usbd_ctlreq.c ****   {
 722              		.loc 1 553 3 view .LVU254
 555:lib/STM32_USB_Device_Library/Core/Src/usbd_ctlreq.c ****   }
 723              		.loc 1 555 5 view .LVU255
 724 0198 6FE7     		b	.L12
 725              	.LVL91:
 726              	.L43:
 568:lib/STM32_USB_Device_Library/Core/Src/usbd_ctlreq.c ****       }
 727              		.loc 1 568 9 view .LVU256
 728 019a 2946     		mov	r1, r5
 729 019c 2046     		mov	r0, r4
 730              	.LVL92:
 568:lib/STM32_USB_Device_Library/Core/Src/usbd_ctlreq.c ****       }
 731              		.loc 1 568 9 is_stmt 0 view .LVU257
 732 019e FFF7FEFF 		bl	USBD_CtlError
 733              	.LVL93:
 734 01a2 6AE7     		b	.L12
 735              	.LVL94:
 736              	.L42:
 573:lib/STM32_USB_Device_Library/Core/Src/usbd_ctlreq.c ****     }
 737              		.loc 1 573 7 is_stmt 1 view .LVU258
 573:lib/STM32_USB_Device_Library/Core/Src/usbd_ctlreq.c ****     }
 738              		.loc 1 573 13 is_stmt 0 view .LVU259
 739 01a4 2046     		mov	r0, r4
 740              	.LVL95:
 573:lib/STM32_USB_Device_Library/Core/Src/usbd_ctlreq.c ****     }
 741              		.loc 1 573 13 view .LVU260
 742 01a6 FFF7FEFF 		bl	USBD_CtlSendStatus
 743              	.LVL96:
 744 01aa 66E7     		b	.L12
 745              		.cfi_endproc
 746              	.LFE148:
 748              		.section	.text.USBD_SetAddress,"ax",%progbits
 749              		.align	1
 750              		.syntax unified
 751              		.thumb
 752              		.thumb_func
 753              		.fpu fpv5-d16
 755              	USBD_SetAddress:
 756              	.LVL97:
 757              	.LFB149:
 586:lib/STM32_USB_Device_Library/Core/Src/usbd_ctlreq.c ****   uint8_t  dev_addr;
ARM GAS  C:\Users\BIGBIG~1\AppData\Local\Temp\cc5naY0b.s 			page 40


 758              		.loc 1 586 1 is_stmt 1 view -0
 759              		.cfi_startproc
 760              		@ args = 0, pretend = 0, frame = 0
 761              		@ frame_needed = 0, uses_anonymous_args = 0
 586:lib/STM32_USB_Device_Library/Core/Src/usbd_ctlreq.c ****   uint8_t  dev_addr;
 762              		.loc 1 586 1 is_stmt 0 view .LVU262
 763 0000 38B5     		push	{r3, r4, r5, lr}
 764              	.LCFI6:
 765              		.cfi_def_cfa_offset 16
 766              		.cfi_offset 3, -16
 767              		.cfi_offset 4, -12
 768              		.cfi_offset 5, -8
 769              		.cfi_offset 14, -4
 770 0002 0446     		mov	r4, r0
 587:lib/STM32_USB_Device_Library/Core/Src/usbd_ctlreq.c **** 
 771              		.loc 1 587 3 is_stmt 1 view .LVU263
 589:lib/STM32_USB_Device_Library/Core/Src/usbd_ctlreq.c ****   {
 772              		.loc 1 589 3 view .LVU264
 589:lib/STM32_USB_Device_Library/Core/Src/usbd_ctlreq.c ****   {
 773              		.loc 1 589 11 is_stmt 0 view .LVU265
 774 0004 8B88     		ldrh	r3, [r1, #4]
 589:lib/STM32_USB_Device_Library/Core/Src/usbd_ctlreq.c ****   {
 775              		.loc 1 589 6 view .LVU266
 776 0006 F3B9     		cbnz	r3, .L47
 589:lib/STM32_USB_Device_Library/Core/Src/usbd_ctlreq.c ****   {
 777              		.loc 1 589 34 discriminator 1 view .LVU267
 778 0008 CB88     		ldrh	r3, [r1, #6]
 589:lib/STM32_USB_Device_Library/Core/Src/usbd_ctlreq.c ****   {
 779              		.loc 1 589 27 discriminator 1 view .LVU268
 780 000a E3B9     		cbnz	r3, .L47
 589:lib/STM32_USB_Device_Library/Core/Src/usbd_ctlreq.c ****   {
 781              		.loc 1 589 58 discriminator 2 view .LVU269
 782 000c 4B88     		ldrh	r3, [r1, #2]
 589:lib/STM32_USB_Device_Library/Core/Src/usbd_ctlreq.c ****   {
 783              		.loc 1 589 51 discriminator 2 view .LVU270
 784 000e 7F2B     		cmp	r3, #127
 785 0010 19D8     		bhi	.L47
 591:lib/STM32_USB_Device_Library/Core/Src/usbd_ctlreq.c **** 
 786              		.loc 1 591 5 is_stmt 1 view .LVU271
 591:lib/STM32_USB_Device_Library/Core/Src/usbd_ctlreq.c **** 
 787              		.loc 1 591 14 is_stmt 0 view .LVU272
 788 0012 03F07F05 		and	r5, r3, #127
 789              	.LVL98:
 593:lib/STM32_USB_Device_Library/Core/Src/usbd_ctlreq.c ****     {
 790              		.loc 1 593 5 is_stmt 1 view .LVU273
 593:lib/STM32_USB_Device_Library/Core/Src/usbd_ctlreq.c ****     {
 791              		.loc 1 593 13 is_stmt 0 view .LVU274
 792 0016 90F89C32 		ldrb	r3, [r0, #668]	@ zero_extendqisi2
 593:lib/STM32_USB_Device_Library/Core/Src/usbd_ctlreq.c ****     {
 793              		.loc 1 593 8 view .LVU275
 794 001a 032B     		cmp	r3, #3
 795 001c 0CD0     		beq	.L52
 599:lib/STM32_USB_Device_Library/Core/Src/usbd_ctlreq.c ****       (void)USBD_LL_SetUSBAddress(pdev, dev_addr);
 796              		.loc 1 599 7 is_stmt 1 view .LVU276
 599:lib/STM32_USB_Device_Library/Core/Src/usbd_ctlreq.c ****       (void)USBD_LL_SetUSBAddress(pdev, dev_addr);
 797              		.loc 1 599 25 is_stmt 0 view .LVU277
 798 001e 80F89E52 		strb	r5, [r0, #670]
ARM GAS  C:\Users\BIGBIG~1\AppData\Local\Temp\cc5naY0b.s 			page 41


 600:lib/STM32_USB_Device_Library/Core/Src/usbd_ctlreq.c ****       (void)USBD_CtlSendStatus(pdev);
 799              		.loc 1 600 7 is_stmt 1 view .LVU278
 600:lib/STM32_USB_Device_Library/Core/Src/usbd_ctlreq.c ****       (void)USBD_CtlSendStatus(pdev);
 800              		.loc 1 600 13 is_stmt 0 view .LVU279
 801 0022 2946     		mov	r1, r5
 802              	.LVL99:
 600:lib/STM32_USB_Device_Library/Core/Src/usbd_ctlreq.c ****       (void)USBD_CtlSendStatus(pdev);
 803              		.loc 1 600 13 view .LVU280
 804 0024 FFF7FEFF 		bl	USBD_LL_SetUSBAddress
 805              	.LVL100:
 601:lib/STM32_USB_Device_Library/Core/Src/usbd_ctlreq.c **** 
 806              		.loc 1 601 7 is_stmt 1 view .LVU281
 601:lib/STM32_USB_Device_Library/Core/Src/usbd_ctlreq.c **** 
 807              		.loc 1 601 13 is_stmt 0 view .LVU282
 808 0028 2046     		mov	r0, r4
 809 002a FFF7FEFF 		bl	USBD_CtlSendStatus
 810              	.LVL101:
 603:lib/STM32_USB_Device_Library/Core/Src/usbd_ctlreq.c ****       {
 811              		.loc 1 603 7 is_stmt 1 view .LVU283
 603:lib/STM32_USB_Device_Library/Core/Src/usbd_ctlreq.c ****       {
 812              		.loc 1 603 10 is_stmt 0 view .LVU284
 813 002e 35B1     		cbz	r5, .L50
 605:lib/STM32_USB_Device_Library/Core/Src/usbd_ctlreq.c ****       }
 814              		.loc 1 605 9 is_stmt 1 view .LVU285
 605:lib/STM32_USB_Device_Library/Core/Src/usbd_ctlreq.c ****       }
 815              		.loc 1 605 25 is_stmt 0 view .LVU286
 816 0030 0223     		movs	r3, #2
 817 0032 84F89C32 		strb	r3, [r4, #668]
 818 0036 09E0     		b	.L46
 819              	.LVL102:
 820              	.L52:
 595:lib/STM32_USB_Device_Library/Core/Src/usbd_ctlreq.c ****     }
 821              		.loc 1 595 7 is_stmt 1 view .LVU287
 822 0038 FFF7FEFF 		bl	USBD_CtlError
 823              	.LVL103:
 595:lib/STM32_USB_Device_Library/Core/Src/usbd_ctlreq.c ****     }
 824              		.loc 1 595 7 is_stmt 0 view .LVU288
 825 003c 06E0     		b	.L46
 826              	.L50:
 609:lib/STM32_USB_Device_Library/Core/Src/usbd_ctlreq.c ****       }
 827              		.loc 1 609 9 is_stmt 1 view .LVU289
 609:lib/STM32_USB_Device_Library/Core/Src/usbd_ctlreq.c ****       }
 828              		.loc 1 609 25 is_stmt 0 view .LVU290
 829 003e 0123     		movs	r3, #1
 830 0040 84F89C32 		strb	r3, [r4, #668]
 831 0044 02E0     		b	.L46
 832              	.LVL104:
 833              	.L47:
 615:lib/STM32_USB_Device_Library/Core/Src/usbd_ctlreq.c ****   }
 834              		.loc 1 615 5 is_stmt 1 view .LVU291
 835 0046 2046     		mov	r0, r4
 836              	.LVL105:
 615:lib/STM32_USB_Device_Library/Core/Src/usbd_ctlreq.c ****   }
 837              		.loc 1 615 5 is_stmt 0 view .LVU292
 838 0048 FFF7FEFF 		bl	USBD_CtlError
 839              	.LVL106:
 840              	.L46:
ARM GAS  C:\Users\BIGBIG~1\AppData\Local\Temp\cc5naY0b.s 			page 42


 617:lib/STM32_USB_Device_Library/Core/Src/usbd_ctlreq.c **** 
 841              		.loc 1 617 1 view .LVU293
 842 004c 38BD     		pop	{r3, r4, r5, pc}
 617:lib/STM32_USB_Device_Library/Core/Src/usbd_ctlreq.c **** 
 843              		.loc 1 617 1 view .LVU294
 844              		.cfi_endproc
 845              	.LFE149:
 847              		.section	.text.USBD_SetConfig,"ax",%progbits
 848              		.align	1
 849              		.syntax unified
 850              		.thumb
 851              		.thumb_func
 852              		.fpu fpv5-d16
 854              	USBD_SetConfig:
 855              	.LVL107:
 856              	.LFB150:
 627:lib/STM32_USB_Device_Library/Core/Src/usbd_ctlreq.c ****   USBD_StatusTypeDef ret = USBD_OK;
 857              		.loc 1 627 1 is_stmt 1 view -0
 858              		.cfi_startproc
 859              		@ args = 0, pretend = 0, frame = 0
 860              		@ frame_needed = 0, uses_anonymous_args = 0
 627:lib/STM32_USB_Device_Library/Core/Src/usbd_ctlreq.c ****   USBD_StatusTypeDef ret = USBD_OK;
 861              		.loc 1 627 1 is_stmt 0 view .LVU296
 862 0000 70B5     		push	{r4, r5, r6, lr}
 863              	.LCFI7:
 864              		.cfi_def_cfa_offset 16
 865              		.cfi_offset 4, -16
 866              		.cfi_offset 5, -12
 867              		.cfi_offset 6, -8
 868              		.cfi_offset 14, -4
 869 0002 0446     		mov	r4, r0
 870 0004 0E46     		mov	r6, r1
 628:lib/STM32_USB_Device_Library/Core/Src/usbd_ctlreq.c ****   static uint8_t cfgidx;
 871              		.loc 1 628 3 is_stmt 1 view .LVU297
 872              	.LVL108:
 629:lib/STM32_USB_Device_Library/Core/Src/usbd_ctlreq.c **** 
 873              		.loc 1 629 3 view .LVU298
 631:lib/STM32_USB_Device_Library/Core/Src/usbd_ctlreq.c **** 
 874              		.loc 1 631 3 view .LVU299
 631:lib/STM32_USB_Device_Library/Core/Src/usbd_ctlreq.c **** 
 875              		.loc 1 631 12 is_stmt 0 view .LVU300
 876 0006 8D78     		ldrb	r5, [r1, #2]	@ zero_extendqisi2
 631:lib/STM32_USB_Device_Library/Core/Src/usbd_ctlreq.c **** 
 877              		.loc 1 631 10 view .LVU301
 878 0008 2D4B     		ldr	r3, .L68
 879 000a 1D70     		strb	r5, [r3]
 633:lib/STM32_USB_Device_Library/Core/Src/usbd_ctlreq.c ****   {
 880              		.loc 1 633 3 is_stmt 1 view .LVU302
 633:lib/STM32_USB_Device_Library/Core/Src/usbd_ctlreq.c ****   {
 881              		.loc 1 633 6 is_stmt 0 view .LVU303
 882 000c 012D     		cmp	r5, #1
 883 000e 0FD8     		bhi	.L66
 639:lib/STM32_USB_Device_Library/Core/Src/usbd_ctlreq.c ****   {
 884              		.loc 1 639 3 is_stmt 1 view .LVU304
 639:lib/STM32_USB_Device_Library/Core/Src/usbd_ctlreq.c ****   {
 885              		.loc 1 639 15 is_stmt 0 view .LVU305
 886 0010 90F89C32 		ldrb	r3, [r0, #668]	@ zero_extendqisi2
ARM GAS  C:\Users\BIGBIG~1\AppData\Local\Temp\cc5naY0b.s 			page 43


 639:lib/STM32_USB_Device_Library/Core/Src/usbd_ctlreq.c ****   {
 887              		.loc 1 639 3 view .LVU306
 888 0014 022B     		cmp	r3, #2
 889 0016 0FD0     		beq	.L56
 890 0018 032B     		cmp	r3, #3
 891 001a 23D0     		beq	.L57
 700:lib/STM32_USB_Device_Library/Core/Src/usbd_ctlreq.c ****     (void)USBD_ClrClassConfig(pdev, cfgidx);
 892              		.loc 1 700 5 is_stmt 1 view .LVU307
 893 001c FFF7FEFF 		bl	USBD_CtlError
 894              	.LVL109:
 701:lib/STM32_USB_Device_Library/Core/Src/usbd_ctlreq.c ****     ret = USBD_FAIL;
 895              		.loc 1 701 5 view .LVU308
 701:lib/STM32_USB_Device_Library/Core/Src/usbd_ctlreq.c ****     ret = USBD_FAIL;
 896              		.loc 1 701 11 is_stmt 0 view .LVU309
 897 0020 274B     		ldr	r3, .L68
 898 0022 1978     		ldrb	r1, [r3]	@ zero_extendqisi2
 899 0024 2046     		mov	r0, r4
 900 0026 FFF7FEFF 		bl	USBD_ClrClassConfig
 901              	.LVL110:
 702:lib/STM32_USB_Device_Library/Core/Src/usbd_ctlreq.c ****     break;
 902              		.loc 1 702 5 is_stmt 1 view .LVU310
 703:lib/STM32_USB_Device_Library/Core/Src/usbd_ctlreq.c ****   }
 903              		.loc 1 703 5 view .LVU311
 702:lib/STM32_USB_Device_Library/Core/Src/usbd_ctlreq.c ****     break;
 904              		.loc 1 702 9 is_stmt 0 view .LVU312
 905 002a 0325     		movs	r5, #3
 906              	.LVL111:
 907              	.L55:
 707:lib/STM32_USB_Device_Library/Core/Src/usbd_ctlreq.c **** 
 908              		.loc 1 707 1 view .LVU313
 909 002c 2846     		mov	r0, r5
 910 002e 70BD     		pop	{r4, r5, r6, pc}
 911              	.LVL112:
 912              	.L66:
 635:lib/STM32_USB_Device_Library/Core/Src/usbd_ctlreq.c ****     return USBD_FAIL;
 913              		.loc 1 635 5 is_stmt 1 view .LVU314
 914 0030 FFF7FEFF 		bl	USBD_CtlError
 915              	.LVL113:
 636:lib/STM32_USB_Device_Library/Core/Src/usbd_ctlreq.c ****   }
 916              		.loc 1 636 5 view .LVU315
 636:lib/STM32_USB_Device_Library/Core/Src/usbd_ctlreq.c ****   }
 917              		.loc 1 636 12 is_stmt 0 view .LVU316
 918 0034 0325     		movs	r5, #3
 919 0036 F9E7     		b	.L55
 920              	.LVL114:
 921              	.L56:
 642:lib/STM32_USB_Device_Library/Core/Src/usbd_ctlreq.c ****     {
 922              		.loc 1 642 5 is_stmt 1 view .LVU317
 642:lib/STM32_USB_Device_Library/Core/Src/usbd_ctlreq.c ****     {
 923              		.loc 1 642 8 is_stmt 0 view .LVU318
 924 0038 8DB1     		cbz	r5, .L59
 644:lib/STM32_USB_Device_Library/Core/Src/usbd_ctlreq.c **** 
 925              		.loc 1 644 7 is_stmt 1 view .LVU319
 644:lib/STM32_USB_Device_Library/Core/Src/usbd_ctlreq.c **** 
 926              		.loc 1 644 24 is_stmt 0 view .LVU320
 927 003a 4560     		str	r5, [r0, #4]
 646:lib/STM32_USB_Device_Library/Core/Src/usbd_ctlreq.c **** 
ARM GAS  C:\Users\BIGBIG~1\AppData\Local\Temp\cc5naY0b.s 			page 44


 928              		.loc 1 646 7 is_stmt 1 view .LVU321
 646:lib/STM32_USB_Device_Library/Core/Src/usbd_ctlreq.c **** 
 929              		.loc 1 646 13 is_stmt 0 view .LVU322
 930 003c 2946     		mov	r1, r5
 931              	.LVL115:
 646:lib/STM32_USB_Device_Library/Core/Src/usbd_ctlreq.c **** 
 932              		.loc 1 646 13 view .LVU323
 933 003e FFF7FEFF 		bl	USBD_SetClassConfig
 934              	.LVL116:
 648:lib/STM32_USB_Device_Library/Core/Src/usbd_ctlreq.c ****       {
 935              		.loc 1 648 7 is_stmt 1 view .LVU324
 648:lib/STM32_USB_Device_Library/Core/Src/usbd_ctlreq.c ****       {
 936              		.loc 1 648 10 is_stmt 0 view .LVU325
 937 0042 0546     		mov	r5, r0
 938 0044 20B1     		cbz	r0, .L60
 650:lib/STM32_USB_Device_Library/Core/Src/usbd_ctlreq.c ****       }
 939              		.loc 1 650 9 is_stmt 1 view .LVU326
 940 0046 3146     		mov	r1, r6
 941 0048 2046     		mov	r0, r4
 942              	.LVL117:
 650:lib/STM32_USB_Device_Library/Core/Src/usbd_ctlreq.c ****       }
 943              		.loc 1 650 9 is_stmt 0 view .LVU327
 944 004a FFF7FEFF 		bl	USBD_CtlError
 945              	.LVL118:
 946 004e EDE7     		b	.L55
 947              	.LVL119:
 948              	.L60:
 654:lib/STM32_USB_Device_Library/Core/Src/usbd_ctlreq.c ****         pdev->dev_state = USBD_STATE_CONFIGURED;
 949              		.loc 1 654 9 is_stmt 1 view .LVU328
 654:lib/STM32_USB_Device_Library/Core/Src/usbd_ctlreq.c ****         pdev->dev_state = USBD_STATE_CONFIGURED;
 950              		.loc 1 654 15 is_stmt 0 view .LVU329
 951 0050 2046     		mov	r0, r4
 952              	.LVL120:
 654:lib/STM32_USB_Device_Library/Core/Src/usbd_ctlreq.c ****         pdev->dev_state = USBD_STATE_CONFIGURED;
 953              		.loc 1 654 15 view .LVU330
 954 0052 FFF7FEFF 		bl	USBD_CtlSendStatus
 955              	.LVL121:
 655:lib/STM32_USB_Device_Library/Core/Src/usbd_ctlreq.c ****       }
 956              		.loc 1 655 9 is_stmt 1 view .LVU331
 655:lib/STM32_USB_Device_Library/Core/Src/usbd_ctlreq.c ****       }
 957              		.loc 1 655 25 is_stmt 0 view .LVU332
 958 0056 0323     		movs	r3, #3
 959 0058 84F89C32 		strb	r3, [r4, #668]
 960 005c E6E7     		b	.L55
 961              	.LVL122:
 962              	.L59:
 660:lib/STM32_USB_Device_Library/Core/Src/usbd_ctlreq.c ****     }
 963              		.loc 1 660 7 is_stmt 1 view .LVU333
 660:lib/STM32_USB_Device_Library/Core/Src/usbd_ctlreq.c ****     }
 964              		.loc 1 660 13 is_stmt 0 view .LVU334
 965 005e FFF7FEFF 		bl	USBD_CtlSendStatus
 966              	.LVL123:
 660:lib/STM32_USB_Device_Library/Core/Src/usbd_ctlreq.c ****     }
 967              		.loc 1 660 13 view .LVU335
 968 0062 E3E7     		b	.L55
 969              	.LVL124:
 970              	.L57:
ARM GAS  C:\Users\BIGBIG~1\AppData\Local\Temp\cc5naY0b.s 			page 45


 665:lib/STM32_USB_Device_Library/Core/Src/usbd_ctlreq.c ****     {
 971              		.loc 1 665 5 is_stmt 1 view .LVU336
 665:lib/STM32_USB_Device_Library/Core/Src/usbd_ctlreq.c ****     {
 972              		.loc 1 665 8 is_stmt 0 view .LVU337
 973 0064 CDB1     		cbz	r5, .L67
 672:lib/STM32_USB_Device_Library/Core/Src/usbd_ctlreq.c ****     {
 974              		.loc 1 672 10 is_stmt 1 view .LVU338
 672:lib/STM32_USB_Device_Library/Core/Src/usbd_ctlreq.c ****     {
 975              		.loc 1 672 28 is_stmt 0 view .LVU339
 976 0066 4168     		ldr	r1, [r0, #4]
 977              	.LVL125:
 672:lib/STM32_USB_Device_Library/Core/Src/usbd_ctlreq.c ****     {
 978              		.loc 1 672 13 view .LVU340
 979 0068 8D42     		cmp	r5, r1
 980 006a 25D0     		beq	.L62
 675:lib/STM32_USB_Device_Library/Core/Src/usbd_ctlreq.c **** 
 981              		.loc 1 675 7 is_stmt 1 view .LVU341
 675:lib/STM32_USB_Device_Library/Core/Src/usbd_ctlreq.c **** 
 982              		.loc 1 675 13 is_stmt 0 view .LVU342
 983 006c C9B2     		uxtb	r1, r1
 984 006e FFF7FEFF 		bl	USBD_ClrClassConfig
 985              	.LVL126:
 678:lib/STM32_USB_Device_Library/Core/Src/usbd_ctlreq.c **** 
 986              		.loc 1 678 7 is_stmt 1 view .LVU343
 678:lib/STM32_USB_Device_Library/Core/Src/usbd_ctlreq.c **** 
 987              		.loc 1 678 24 is_stmt 0 view .LVU344
 988 0072 134B     		ldr	r3, .L68
 989 0074 1978     		ldrb	r1, [r3]	@ zero_extendqisi2
 990 0076 6160     		str	r1, [r4, #4]
 680:lib/STM32_USB_Device_Library/Core/Src/usbd_ctlreq.c **** 
 991              		.loc 1 680 7 is_stmt 1 view .LVU345
 680:lib/STM32_USB_Device_Library/Core/Src/usbd_ctlreq.c **** 
 992              		.loc 1 680 13 is_stmt 0 view .LVU346
 993 0078 2046     		mov	r0, r4
 994 007a FFF7FEFF 		bl	USBD_SetClassConfig
 995              	.LVL127:
 682:lib/STM32_USB_Device_Library/Core/Src/usbd_ctlreq.c ****       {
 996              		.loc 1 682 7 is_stmt 1 view .LVU347
 682:lib/STM32_USB_Device_Library/Core/Src/usbd_ctlreq.c ****       {
 997              		.loc 1 682 10 is_stmt 0 view .LVU348
 998 007e 0546     		mov	r5, r0
 999 0080 B0B1     		cbz	r0, .L63
 684:lib/STM32_USB_Device_Library/Core/Src/usbd_ctlreq.c ****         (void)USBD_ClrClassConfig(pdev, (uint8_t)pdev->dev_config);
 1000              		.loc 1 684 9 is_stmt 1 view .LVU349
 1001 0082 3146     		mov	r1, r6
 1002 0084 2046     		mov	r0, r4
 1003              	.LVL128:
 684:lib/STM32_USB_Device_Library/Core/Src/usbd_ctlreq.c ****         (void)USBD_ClrClassConfig(pdev, (uint8_t)pdev->dev_config);
 1004              		.loc 1 684 9 is_stmt 0 view .LVU350
 1005 0086 FFF7FEFF 		bl	USBD_CtlError
 1006              	.LVL129:
 685:lib/STM32_USB_Device_Library/Core/Src/usbd_ctlreq.c ****         pdev->dev_state = USBD_STATE_ADDRESSED;
 1007              		.loc 1 685 9 is_stmt 1 view .LVU351
 685:lib/STM32_USB_Device_Library/Core/Src/usbd_ctlreq.c ****         pdev->dev_state = USBD_STATE_ADDRESSED;
 1008              		.loc 1 685 15 is_stmt 0 view .LVU352
 1009 008a 2179     		ldrb	r1, [r4, #4]	@ zero_extendqisi2
 1010 008c 2046     		mov	r0, r4
ARM GAS  C:\Users\BIGBIG~1\AppData\Local\Temp\cc5naY0b.s 			page 46


 1011 008e FFF7FEFF 		bl	USBD_ClrClassConfig
 1012              	.LVL130:
 686:lib/STM32_USB_Device_Library/Core/Src/usbd_ctlreq.c ****       }
 1013              		.loc 1 686 9 is_stmt 1 view .LVU353
 686:lib/STM32_USB_Device_Library/Core/Src/usbd_ctlreq.c ****       }
 1014              		.loc 1 686 25 is_stmt 0 view .LVU354
 1015 0092 0223     		movs	r3, #2
 1016 0094 84F89C32 		strb	r3, [r4, #668]
 1017 0098 C8E7     		b	.L55
 1018              	.LVL131:
 1019              	.L67:
 667:lib/STM32_USB_Device_Library/Core/Src/usbd_ctlreq.c ****       pdev->dev_config = cfgidx;
 1020              		.loc 1 667 7 is_stmt 1 view .LVU355
 667:lib/STM32_USB_Device_Library/Core/Src/usbd_ctlreq.c ****       pdev->dev_config = cfgidx;
 1021              		.loc 1 667 23 is_stmt 0 view .LVU356
 1022 009a 0223     		movs	r3, #2
 1023 009c 80F89C32 		strb	r3, [r0, #668]
 668:lib/STM32_USB_Device_Library/Core/Src/usbd_ctlreq.c ****       (void)USBD_ClrClassConfig(pdev, cfgidx);
 1024              		.loc 1 668 7 is_stmt 1 view .LVU357
 668:lib/STM32_USB_Device_Library/Core/Src/usbd_ctlreq.c ****       (void)USBD_ClrClassConfig(pdev, cfgidx);
 1025              		.loc 1 668 24 is_stmt 0 view .LVU358
 1026 00a0 4560     		str	r5, [r0, #4]
 669:lib/STM32_USB_Device_Library/Core/Src/usbd_ctlreq.c ****       (void)USBD_CtlSendStatus(pdev);
 1027              		.loc 1 669 7 is_stmt 1 view .LVU359
 669:lib/STM32_USB_Device_Library/Core/Src/usbd_ctlreq.c ****       (void)USBD_CtlSendStatus(pdev);
 1028              		.loc 1 669 13 is_stmt 0 view .LVU360
 1029 00a2 2946     		mov	r1, r5
 1030              	.LVL132:
 669:lib/STM32_USB_Device_Library/Core/Src/usbd_ctlreq.c ****       (void)USBD_CtlSendStatus(pdev);
 1031              		.loc 1 669 13 view .LVU361
 1032 00a4 FFF7FEFF 		bl	USBD_ClrClassConfig
 1033              	.LVL133:
 670:lib/STM32_USB_Device_Library/Core/Src/usbd_ctlreq.c ****     }
 1034              		.loc 1 670 7 is_stmt 1 view .LVU362
 670:lib/STM32_USB_Device_Library/Core/Src/usbd_ctlreq.c ****     }
 1035              		.loc 1 670 13 is_stmt 0 view .LVU363
 1036 00a8 2046     		mov	r0, r4
 1037 00aa FFF7FEFF 		bl	USBD_CtlSendStatus
 1038              	.LVL134:
 1039 00ae BDE7     		b	.L55
 1040              	.LVL135:
 1041              	.L63:
 690:lib/STM32_USB_Device_Library/Core/Src/usbd_ctlreq.c ****       }
 1042              		.loc 1 690 9 is_stmt 1 view .LVU364
 690:lib/STM32_USB_Device_Library/Core/Src/usbd_ctlreq.c ****       }
 1043              		.loc 1 690 15 is_stmt 0 view .LVU365
 1044 00b0 2046     		mov	r0, r4
 1045              	.LVL136:
 690:lib/STM32_USB_Device_Library/Core/Src/usbd_ctlreq.c ****       }
 1046              		.loc 1 690 15 view .LVU366
 1047 00b2 FFF7FEFF 		bl	USBD_CtlSendStatus
 1048              	.LVL137:
 1049 00b6 B9E7     		b	.L55
 1050              	.LVL138:
 1051              	.L62:
 695:lib/STM32_USB_Device_Library/Core/Src/usbd_ctlreq.c ****     }
 1052              		.loc 1 695 7 is_stmt 1 view .LVU367
ARM GAS  C:\Users\BIGBIG~1\AppData\Local\Temp\cc5naY0b.s 			page 47


 695:lib/STM32_USB_Device_Library/Core/Src/usbd_ctlreq.c ****     }
 1053              		.loc 1 695 13 is_stmt 0 view .LVU368
 1054 00b8 FFF7FEFF 		bl	USBD_CtlSendStatus
 1055              	.LVL139:
 628:lib/STM32_USB_Device_Library/Core/Src/usbd_ctlreq.c ****   static uint8_t cfgidx;
 1056              		.loc 1 628 22 view .LVU369
 1057 00bc 0025     		movs	r5, #0
 1058 00be B5E7     		b	.L55
 1059              	.L69:
 1060              		.align	2
 1061              	.L68:
 1062 00c0 00000000 		.word	.LANCHOR0
 1063              		.cfi_endproc
 1064              	.LFE150:
 1066              		.section	.text.USBD_GetConfig,"ax",%progbits
 1067              		.align	1
 1068              		.syntax unified
 1069              		.thumb
 1070              		.thumb_func
 1071              		.fpu fpv5-d16
 1073              	USBD_GetConfig:
 1074              	.LVL140:
 1075              	.LFB151:
 717:lib/STM32_USB_Device_Library/Core/Src/usbd_ctlreq.c ****   if (req->wLength != 1U)
 1076              		.loc 1 717 1 is_stmt 1 view -0
 1077              		.cfi_startproc
 1078              		@ args = 0, pretend = 0, frame = 0
 1079              		@ frame_needed = 0, uses_anonymous_args = 0
 717:lib/STM32_USB_Device_Library/Core/Src/usbd_ctlreq.c ****   if (req->wLength != 1U)
 1080              		.loc 1 717 1 is_stmt 0 view .LVU371
 1081 0000 08B5     		push	{r3, lr}
 1082              	.LCFI8:
 1083              		.cfi_def_cfa_offset 8
 1084              		.cfi_offset 3, -8
 1085              		.cfi_offset 14, -4
 718:lib/STM32_USB_Device_Library/Core/Src/usbd_ctlreq.c ****   {
 1086              		.loc 1 718 3 is_stmt 1 view .LVU372
 718:lib/STM32_USB_Device_Library/Core/Src/usbd_ctlreq.c ****   {
 1087              		.loc 1 718 10 is_stmt 0 view .LVU373
 1088 0002 CB88     		ldrh	r3, [r1, #6]
 718:lib/STM32_USB_Device_Library/Core/Src/usbd_ctlreq.c ****   {
 1089              		.loc 1 718 6 view .LVU374
 1090 0004 012B     		cmp	r3, #1
 1091 0006 0AD1     		bne	.L78
 724:lib/STM32_USB_Device_Library/Core/Src/usbd_ctlreq.c ****     {
 1092              		.loc 1 724 5 is_stmt 1 view .LVU375
 724:lib/STM32_USB_Device_Library/Core/Src/usbd_ctlreq.c ****     {
 1093              		.loc 1 724 17 is_stmt 0 view .LVU376
 1094 0008 90F89C32 		ldrb	r3, [r0, #668]	@ zero_extendqisi2
 724:lib/STM32_USB_Device_Library/Core/Src/usbd_ctlreq.c ****     {
 1095              		.loc 1 724 5 view .LVU377
 1096 000c 022B     		cmp	r3, #2
 1097 000e 09D9     		bls	.L79
 1098 0010 032B     		cmp	r3, #3
 1099 0012 09D1     		bne	.L75
 733:lib/STM32_USB_Device_Library/Core/Src/usbd_ctlreq.c ****       break;
 1100              		.loc 1 733 7 is_stmt 1 view .LVU378
ARM GAS  C:\Users\BIGBIG~1\AppData\Local\Temp\cc5naY0b.s 			page 48


 733:lib/STM32_USB_Device_Library/Core/Src/usbd_ctlreq.c ****       break;
 1101              		.loc 1 733 13 is_stmt 0 view .LVU379
 1102 0014 0122     		movs	r2, #1
 1103 0016 011D     		adds	r1, r0, #4
 1104              	.LVL141:
 733:lib/STM32_USB_Device_Library/Core/Src/usbd_ctlreq.c ****       break;
 1105              		.loc 1 733 13 view .LVU380
 1106 0018 FFF7FEFF 		bl	USBD_CtlSendData
 1107              	.LVL142:
 734:lib/STM32_USB_Device_Library/Core/Src/usbd_ctlreq.c **** 
 1108              		.loc 1 734 7 is_stmt 1 view .LVU381
 1109 001c 01E0     		b	.L70
 1110              	.LVL143:
 1111              	.L78:
 720:lib/STM32_USB_Device_Library/Core/Src/usbd_ctlreq.c ****   }
 1112              		.loc 1 720 5 view .LVU382
 1113 001e FFF7FEFF 		bl	USBD_CtlError
 1114              	.LVL144:
 1115              	.L70:
 741:lib/STM32_USB_Device_Library/Core/Src/usbd_ctlreq.c **** 
 1116              		.loc 1 741 1 is_stmt 0 view .LVU383
 1117 0022 08BD     		pop	{r3, pc}
 1118              	.LVL145:
 1119              	.L79:
 724:lib/STM32_USB_Device_Library/Core/Src/usbd_ctlreq.c ****     {
 1120              		.loc 1 724 5 view .LVU384
 1121 0024 5BB2     		sxtb	r3, r3
 1122 0026 13B9     		cbnz	r3, .L80
 1123              	.L75:
 737:lib/STM32_USB_Device_Library/Core/Src/usbd_ctlreq.c ****       break;
 1124              		.loc 1 737 7 is_stmt 1 view .LVU385
 1125 0028 FFF7FEFF 		bl	USBD_CtlError
 1126              	.LVL146:
 738:lib/STM32_USB_Device_Library/Core/Src/usbd_ctlreq.c ****     }
 1127              		.loc 1 738 7 view .LVU386
 741:lib/STM32_USB_Device_Library/Core/Src/usbd_ctlreq.c **** 
 1128              		.loc 1 741 1 is_stmt 0 view .LVU387
 1129 002c F9E7     		b	.L70
 1130              	.LVL147:
 1131              	.L80:
 728:lib/STM32_USB_Device_Library/Core/Src/usbd_ctlreq.c ****       (void)USBD_CtlSendData(pdev, (uint8_t *)&pdev->dev_default_config, 1U);
 1132              		.loc 1 728 7 is_stmt 1 view .LVU388
 728:lib/STM32_USB_Device_Library/Core/Src/usbd_ctlreq.c ****       (void)USBD_CtlSendData(pdev, (uint8_t *)&pdev->dev_default_config, 1U);
 1133              		.loc 1 728 32 is_stmt 0 view .LVU389
 1134 002e 0146     		mov	r1, r0
 1135              	.LVL148:
 728:lib/STM32_USB_Device_Library/Core/Src/usbd_ctlreq.c ****       (void)USBD_CtlSendData(pdev, (uint8_t *)&pdev->dev_default_config, 1U);
 1136              		.loc 1 728 32 view .LVU390
 1137 0030 0023     		movs	r3, #0
 1138 0032 41F8083F 		str	r3, [r1, #8]!
 729:lib/STM32_USB_Device_Library/Core/Src/usbd_ctlreq.c ****       break;
 1139              		.loc 1 729 7 is_stmt 1 view .LVU391
 729:lib/STM32_USB_Device_Library/Core/Src/usbd_ctlreq.c ****       break;
 1140              		.loc 1 729 13 is_stmt 0 view .LVU392
 1141 0036 0122     		movs	r2, #1
 1142 0038 FFF7FEFF 		bl	USBD_CtlSendData
 1143              	.LVL149:
ARM GAS  C:\Users\BIGBIG~1\AppData\Local\Temp\cc5naY0b.s 			page 49


 730:lib/STM32_USB_Device_Library/Core/Src/usbd_ctlreq.c **** 
 1144              		.loc 1 730 7 is_stmt 1 view .LVU393
 1145 003c F1E7     		b	.L70
 1146              		.cfi_endproc
 1147              	.LFE151:
 1149              		.section	.text.USBD_GetStatus,"ax",%progbits
 1150              		.align	1
 1151              		.syntax unified
 1152              		.thumb
 1153              		.thumb_func
 1154              		.fpu fpv5-d16
 1156              	USBD_GetStatus:
 1157              	.LVL150:
 1158              	.LFB152:
 751:lib/STM32_USB_Device_Library/Core/Src/usbd_ctlreq.c ****   switch (pdev->dev_state)
 1159              		.loc 1 751 1 view -0
 1160              		.cfi_startproc
 1161              		@ args = 0, pretend = 0, frame = 0
 1162              		@ frame_needed = 0, uses_anonymous_args = 0
 751:lib/STM32_USB_Device_Library/Core/Src/usbd_ctlreq.c ****   switch (pdev->dev_state)
 1163              		.loc 1 751 1 is_stmt 0 view .LVU395
 1164 0000 08B5     		push	{r3, lr}
 1165              	.LCFI9:
 1166              		.cfi_def_cfa_offset 8
 1167              		.cfi_offset 3, -8
 1168              		.cfi_offset 14, -4
 752:lib/STM32_USB_Device_Library/Core/Src/usbd_ctlreq.c ****   {
 1169              		.loc 1 752 3 is_stmt 1 view .LVU396
 752:lib/STM32_USB_Device_Library/Core/Src/usbd_ctlreq.c ****   {
 1170              		.loc 1 752 15 is_stmt 0 view .LVU397
 1171 0002 90F89C32 		ldrb	r3, [r0, #668]	@ zero_extendqisi2
 752:lib/STM32_USB_Device_Library/Core/Src/usbd_ctlreq.c ****   {
 1172              		.loc 1 752 3 view .LVU398
 1173 0006 013B     		subs	r3, r3, #1
 1174 0008 022B     		cmp	r3, #2
 1175 000a 12D8     		bhi	.L82
 757:lib/STM32_USB_Device_Library/Core/Src/usbd_ctlreq.c ****     {
 1176              		.loc 1 757 5 is_stmt 1 view .LVU399
 757:lib/STM32_USB_Device_Library/Core/Src/usbd_ctlreq.c ****     {
 1177              		.loc 1 757 12 is_stmt 0 view .LVU400
 1178 000c CB88     		ldrh	r3, [r1, #6]
 757:lib/STM32_USB_Device_Library/Core/Src/usbd_ctlreq.c ****     {
 1179              		.loc 1 757 8 view .LVU401
 1180 000e 022B     		cmp	r3, #2
 1181 0010 0CD1     		bne	.L87
 764:lib/STM32_USB_Device_Library/Core/Src/usbd_ctlreq.c **** #else
 1182              		.loc 1 764 5 is_stmt 1 view .LVU402
 764:lib/STM32_USB_Device_Library/Core/Src/usbd_ctlreq.c **** #else
 1183              		.loc 1 764 29 is_stmt 0 view .LVU403
 1184 0012 0123     		movs	r3, #1
 1185 0014 C360     		str	r3, [r0, #12]
 769:lib/STM32_USB_Device_Library/Core/Src/usbd_ctlreq.c ****     {
 1186              		.loc 1 769 5 is_stmt 1 view .LVU404
 769:lib/STM32_USB_Device_Library/Core/Src/usbd_ctlreq.c ****     {
 1187              		.loc 1 769 13 is_stmt 0 view .LVU405
 1188 0016 D0F8A432 		ldr	r3, [r0, #676]
 769:lib/STM32_USB_Device_Library/Core/Src/usbd_ctlreq.c ****     {
ARM GAS  C:\Users\BIGBIG~1\AppData\Local\Temp\cc5naY0b.s 			page 50


 1189              		.loc 1 769 8 view .LVU406
 1190 001a 0BB1     		cbz	r3, .L85
 771:lib/STM32_USB_Device_Library/Core/Src/usbd_ctlreq.c ****     }
 1191              		.loc 1 771 7 is_stmt 1 view .LVU407
 771:lib/STM32_USB_Device_Library/Core/Src/usbd_ctlreq.c ****     }
 1192              		.loc 1 771 31 is_stmt 0 view .LVU408
 1193 001c 0323     		movs	r3, #3
 1194 001e C360     		str	r3, [r0, #12]
 1195              	.L85:
 774:lib/STM32_USB_Device_Library/Core/Src/usbd_ctlreq.c ****     break;
 1196              		.loc 1 774 5 is_stmt 1 view .LVU409
 774:lib/STM32_USB_Device_Library/Core/Src/usbd_ctlreq.c ****     break;
 1197              		.loc 1 774 11 is_stmt 0 view .LVU410
 1198 0020 0222     		movs	r2, #2
 1199 0022 00F10C01 		add	r1, r0, #12
 1200              	.LVL151:
 774:lib/STM32_USB_Device_Library/Core/Src/usbd_ctlreq.c ****     break;
 1201              		.loc 1 774 11 view .LVU411
 1202 0026 FFF7FEFF 		bl	USBD_CtlSendData
 1203              	.LVL152:
 775:lib/STM32_USB_Device_Library/Core/Src/usbd_ctlreq.c **** 
 1204              		.loc 1 775 5 is_stmt 1 view .LVU412
 1205              	.L81:
 781:lib/STM32_USB_Device_Library/Core/Src/usbd_ctlreq.c **** 
 1206              		.loc 1 781 1 is_stmt 0 view .LVU413
 1207 002a 08BD     		pop	{r3, pc}
 1208              	.LVL153:
 1209              	.L87:
 759:lib/STM32_USB_Device_Library/Core/Src/usbd_ctlreq.c ****       break;
 1210              		.loc 1 759 7 is_stmt 1 view .LVU414
 1211 002c FFF7FEFF 		bl	USBD_CtlError
 1212              	.LVL154:
 760:lib/STM32_USB_Device_Library/Core/Src/usbd_ctlreq.c ****     }
 1213              		.loc 1 760 7 view .LVU415
 1214 0030 FBE7     		b	.L81
 1215              	.LVL155:
 1216              	.L82:
 778:lib/STM32_USB_Device_Library/Core/Src/usbd_ctlreq.c ****     break;
 1217              		.loc 1 778 5 view .LVU416
 1218 0032 FFF7FEFF 		bl	USBD_CtlError
 1219              	.LVL156:
 779:lib/STM32_USB_Device_Library/Core/Src/usbd_ctlreq.c ****   }
 1220              		.loc 1 779 5 view .LVU417
 781:lib/STM32_USB_Device_Library/Core/Src/usbd_ctlreq.c **** 
 1221              		.loc 1 781 1 is_stmt 0 view .LVU418
 1222 0036 F8E7     		b	.L81
 1223              		.cfi_endproc
 1224              	.LFE152:
 1226              		.section	.text.USBD_ClrFeature,"ax",%progbits
 1227              		.align	1
 1228              		.syntax unified
 1229              		.thumb
 1230              		.thumb_func
 1231              		.fpu fpv5-d16
 1233              	USBD_ClrFeature:
 1234              	.LVL157:
 1235              	.LFB154:
ARM GAS  C:\Users\BIGBIG~1\AppData\Local\Temp\cc5naY0b.s 			page 51


 809:lib/STM32_USB_Device_Library/Core/Src/usbd_ctlreq.c ****   switch (pdev->dev_state)
 1236              		.loc 1 809 1 is_stmt 1 view -0
 1237              		.cfi_startproc
 1238              		@ args = 0, pretend = 0, frame = 0
 1239              		@ frame_needed = 0, uses_anonymous_args = 0
 809:lib/STM32_USB_Device_Library/Core/Src/usbd_ctlreq.c ****   switch (pdev->dev_state)
 1240              		.loc 1 809 1 is_stmt 0 view .LVU420
 1241 0000 08B5     		push	{r3, lr}
 1242              	.LCFI10:
 1243              		.cfi_def_cfa_offset 8
 1244              		.cfi_offset 3, -8
 1245              		.cfi_offset 14, -4
 810:lib/STM32_USB_Device_Library/Core/Src/usbd_ctlreq.c ****   {
 1246              		.loc 1 810 3 is_stmt 1 view .LVU421
 810:lib/STM32_USB_Device_Library/Core/Src/usbd_ctlreq.c ****   {
 1247              		.loc 1 810 15 is_stmt 0 view .LVU422
 1248 0002 90F89C32 		ldrb	r3, [r0, #668]	@ zero_extendqisi2
 810:lib/STM32_USB_Device_Library/Core/Src/usbd_ctlreq.c ****   {
 1249              		.loc 1 810 3 view .LVU423
 1250 0006 013B     		subs	r3, r3, #1
 1251 0008 022B     		cmp	r3, #2
 1252 000a 09D8     		bhi	.L89
 815:lib/STM32_USB_Device_Library/Core/Src/usbd_ctlreq.c ****       {
 1253              		.loc 1 815 7 is_stmt 1 view .LVU424
 815:lib/STM32_USB_Device_Library/Core/Src/usbd_ctlreq.c ****       {
 1254              		.loc 1 815 14 is_stmt 0 view .LVU425
 1255 000c 4B88     		ldrh	r3, [r1, #2]
 815:lib/STM32_USB_Device_Library/Core/Src/usbd_ctlreq.c ****       {
 1256              		.loc 1 815 10 view .LVU426
 1257 000e 012B     		cmp	r3, #1
 1258 0010 00D0     		beq	.L92
 1259              	.LVL158:
 1260              	.L88:
 826:lib/STM32_USB_Device_Library/Core/Src/usbd_ctlreq.c **** 
 1261              		.loc 1 826 1 view .LVU427
 1262 0012 08BD     		pop	{r3, pc}
 1263              	.LVL159:
 1264              	.L92:
 817:lib/STM32_USB_Device_Library/Core/Src/usbd_ctlreq.c ****         (void)USBD_CtlSendStatus(pdev);
 1265              		.loc 1 817 9 is_stmt 1 view .LVU428
 817:lib/STM32_USB_Device_Library/Core/Src/usbd_ctlreq.c ****         (void)USBD_CtlSendStatus(pdev);
 1266              		.loc 1 817 33 is_stmt 0 view .LVU429
 1267 0014 0023     		movs	r3, #0
 1268 0016 C0F8A432 		str	r3, [r0, #676]
 818:lib/STM32_USB_Device_Library/Core/Src/usbd_ctlreq.c ****       }
 1269              		.loc 1 818 9 is_stmt 1 view .LVU430
 818:lib/STM32_USB_Device_Library/Core/Src/usbd_ctlreq.c ****       }
 1270              		.loc 1 818 15 is_stmt 0 view .LVU431
 1271 001a FFF7FEFF 		bl	USBD_CtlSendStatus
 1272              	.LVL160:
 818:lib/STM32_USB_Device_Library/Core/Src/usbd_ctlreq.c ****       }
 1273              		.loc 1 818 15 view .LVU432
 1274 001e F8E7     		b	.L88
 1275              	.LVL161:
 1276              	.L89:
 823:lib/STM32_USB_Device_Library/Core/Src/usbd_ctlreq.c ****       break;
 1277              		.loc 1 823 7 is_stmt 1 view .LVU433
ARM GAS  C:\Users\BIGBIG~1\AppData\Local\Temp\cc5naY0b.s 			page 52


 1278 0020 FFF7FEFF 		bl	USBD_CtlError
 1279              	.LVL162:
 824:lib/STM32_USB_Device_Library/Core/Src/usbd_ctlreq.c ****   }
 1280              		.loc 1 824 7 view .LVU434
 826:lib/STM32_USB_Device_Library/Core/Src/usbd_ctlreq.c **** 
 1281              		.loc 1 826 1 is_stmt 0 view .LVU435
 1282 0024 F5E7     		b	.L88
 1283              		.cfi_endproc
 1284              	.LFE154:
 1286              		.section	.text.USBD_StdDevReq,"ax",%progbits
 1287              		.align	1
 1288              		.global	USBD_StdDevReq
 1289              		.syntax unified
 1290              		.thumb
 1291              		.thumb_func
 1292              		.fpu fpv5-d16
 1294              	USBD_StdDevReq:
 1295              	.LVL163:
 1296              	.LFB145:
 101:lib/STM32_USB_Device_Library/Core/Src/usbd_ctlreq.c ****   USBD_StatusTypeDef ret = USBD_OK;
 1297              		.loc 1 101 1 is_stmt 1 view -0
 1298              		.cfi_startproc
 1299              		@ args = 0, pretend = 0, frame = 0
 1300              		@ frame_needed = 0, uses_anonymous_args = 0
 101:lib/STM32_USB_Device_Library/Core/Src/usbd_ctlreq.c ****   USBD_StatusTypeDef ret = USBD_OK;
 1301              		.loc 1 101 1 is_stmt 0 view .LVU437
 1302 0000 38B5     		push	{r3, r4, r5, lr}
 1303              	.LCFI11:
 1304              		.cfi_def_cfa_offset 16
 1305              		.cfi_offset 3, -16
 1306              		.cfi_offset 4, -12
 1307              		.cfi_offset 5, -8
 1308              		.cfi_offset 14, -4
 102:lib/STM32_USB_Device_Library/Core/Src/usbd_ctlreq.c **** 
 1309              		.loc 1 102 3 is_stmt 1 view .LVU438
 1310              	.LVL164:
 104:lib/STM32_USB_Device_Library/Core/Src/usbd_ctlreq.c ****   {
 1311              		.loc 1 104 3 view .LVU439
 104:lib/STM32_USB_Device_Library/Core/Src/usbd_ctlreq.c ****   {
 1312              		.loc 1 104 14 is_stmt 0 view .LVU440
 1313 0002 0C78     		ldrb	r4, [r1]	@ zero_extendqisi2
 1314 0004 04F06004 		and	r4, r4, #96
 104:lib/STM32_USB_Device_Library/Core/Src/usbd_ctlreq.c ****   {
 1315              		.loc 1 104 3 view .LVU441
 1316 0008 202C     		cmp	r4, #32
 1317 000a 06D0     		beq	.L94
 1318 000c 402C     		cmp	r4, #64
 1319 000e 04D0     		beq	.L94
 1320 0010 54B1     		cbz	r4, .L109
 149:lib/STM32_USB_Device_Library/Core/Src/usbd_ctlreq.c ****     break;
 1321              		.loc 1 149 5 is_stmt 1 view .LVU442
 1322 0012 FFF7FEFF 		bl	USBD_CtlError
 1323              	.LVL165:
 150:lib/STM32_USB_Device_Library/Core/Src/usbd_ctlreq.c ****   }
 1324              		.loc 1 150 5 view .LVU443
 102:lib/STM32_USB_Device_Library/Core/Src/usbd_ctlreq.c **** 
 1325              		.loc 1 102 22 is_stmt 0 view .LVU444
ARM GAS  C:\Users\BIGBIG~1\AppData\Local\Temp\cc5naY0b.s 			page 53


 1326 0016 0024     		movs	r4, #0
 150:lib/STM32_USB_Device_Library/Core/Src/usbd_ctlreq.c ****   }
 1327              		.loc 1 150 5 view .LVU445
 1328 0018 04E0     		b	.L97
 1329              	.LVL166:
 1330              	.L94:
 108:lib/STM32_USB_Device_Library/Core/Src/usbd_ctlreq.c ****     break;
 1331              		.loc 1 108 5 is_stmt 1 view .LVU446
 108:lib/STM32_USB_Device_Library/Core/Src/usbd_ctlreq.c ****     break;
 1332              		.loc 1 108 35 is_stmt 0 view .LVU447
 1333 001a D0F8B832 		ldr	r3, [r0, #696]
 108:lib/STM32_USB_Device_Library/Core/Src/usbd_ctlreq.c ****     break;
 1334              		.loc 1 108 43 view .LVU448
 1335 001e 9B68     		ldr	r3, [r3, #8]
 108:lib/STM32_USB_Device_Library/Core/Src/usbd_ctlreq.c ****     break;
 1336              		.loc 1 108 31 view .LVU449
 1337 0020 9847     		blx	r3
 1338              	.LVL167:
 108:lib/STM32_USB_Device_Library/Core/Src/usbd_ctlreq.c ****     break;
 1339              		.loc 1 108 31 view .LVU450
 1340 0022 0446     		mov	r4, r0
 1341              	.LVL168:
 109:lib/STM32_USB_Device_Library/Core/Src/usbd_ctlreq.c **** 
 1342              		.loc 1 109 5 is_stmt 1 view .LVU451
 1343              	.L97:
 153:lib/STM32_USB_Device_Library/Core/Src/usbd_ctlreq.c **** }
 1344              		.loc 1 153 3 view .LVU452
 154:lib/STM32_USB_Device_Library/Core/Src/usbd_ctlreq.c **** 
 1345              		.loc 1 154 1 is_stmt 0 view .LVU453
 1346 0024 2046     		mov	r0, r4
 1347 0026 38BD     		pop	{r3, r4, r5, pc}
 1348              	.LVL169:
 1349              	.L109:
 112:lib/STM32_USB_Device_Library/Core/Src/usbd_ctlreq.c ****     {
 1350              		.loc 1 112 5 is_stmt 1 view .LVU454
 112:lib/STM32_USB_Device_Library/Core/Src/usbd_ctlreq.c ****     {
 1351              		.loc 1 112 16 is_stmt 0 view .LVU455
 1352 0028 4D78     		ldrb	r5, [r1, #1]	@ zero_extendqisi2
 1353 002a 092D     		cmp	r5, #9
 1354 002c 1DD8     		bhi	.L98
 1355 002e DFE805F0 		tbb	[pc, r5]
 1356              	.L100:
 1357 0032 12       		.byte	(.L106-.L100)/2
 1358 0033 19       		.byte	(.L105-.L100)/2
 1359 0034 1C       		.byte	(.L98-.L100)/2
 1360 0035 16       		.byte	(.L104-.L100)/2
 1361 0036 1C       		.byte	(.L98-.L100)/2
 1362 0037 08       		.byte	(.L103-.L100)/2
 1363 0038 05       		.byte	(.L102-.L100)/2
 1364 0039 1C       		.byte	(.L98-.L100)/2
 1365 003a 0F       		.byte	(.L101-.L100)/2
 1366 003b 0B       		.byte	(.L99-.L100)/2
 1367              		.p2align 1
 1368              	.L102:
 115:lib/STM32_USB_Device_Library/Core/Src/usbd_ctlreq.c ****       break;
 1369              		.loc 1 115 7 is_stmt 1 view .LVU456
 1370 003c FFF7FEFF 		bl	USBD_GetDescriptor
ARM GAS  C:\Users\BIGBIG~1\AppData\Local\Temp\cc5naY0b.s 			page 54


 1371              	.LVL170:
 116:lib/STM32_USB_Device_Library/Core/Src/usbd_ctlreq.c **** 
 1372              		.loc 1 116 7 view .LVU457
 1373 0040 F0E7     		b	.L97
 1374              	.LVL171:
 1375              	.L103:
 119:lib/STM32_USB_Device_Library/Core/Src/usbd_ctlreq.c ****       break;
 1376              		.loc 1 119 7 view .LVU458
 1377 0042 FFF7FEFF 		bl	USBD_SetAddress
 1378              	.LVL172:
 120:lib/STM32_USB_Device_Library/Core/Src/usbd_ctlreq.c **** 
 1379              		.loc 1 120 7 view .LVU459
 1380 0046 EDE7     		b	.L97
 1381              	.LVL173:
 1382              	.L99:
 123:lib/STM32_USB_Device_Library/Core/Src/usbd_ctlreq.c ****       break;
 1383              		.loc 1 123 7 view .LVU460
 123:lib/STM32_USB_Device_Library/Core/Src/usbd_ctlreq.c ****       break;
 1384              		.loc 1 123 13 is_stmt 0 view .LVU461
 1385 0048 FFF7FEFF 		bl	USBD_SetConfig
 1386              	.LVL174:
 123:lib/STM32_USB_Device_Library/Core/Src/usbd_ctlreq.c ****       break;
 1387              		.loc 1 123 13 view .LVU462
 1388 004c 0446     		mov	r4, r0
 1389              	.LVL175:
 124:lib/STM32_USB_Device_Library/Core/Src/usbd_ctlreq.c **** 
 1390              		.loc 1 124 7 is_stmt 1 view .LVU463
 1391 004e E9E7     		b	.L97
 1392              	.LVL176:
 1393              	.L101:
 127:lib/STM32_USB_Device_Library/Core/Src/usbd_ctlreq.c ****       break;
 1394              		.loc 1 127 7 view .LVU464
 1395 0050 FFF7FEFF 		bl	USBD_GetConfig
 1396              	.LVL177:
 128:lib/STM32_USB_Device_Library/Core/Src/usbd_ctlreq.c **** 
 1397              		.loc 1 128 7 view .LVU465
 1398 0054 E6E7     		b	.L97
 1399              	.LVL178:
 1400              	.L106:
 131:lib/STM32_USB_Device_Library/Core/Src/usbd_ctlreq.c ****       break;
 1401              		.loc 1 131 7 view .LVU466
 1402 0056 FFF7FEFF 		bl	USBD_GetStatus
 1403              	.LVL179:
 132:lib/STM32_USB_Device_Library/Core/Src/usbd_ctlreq.c **** 
 1404              		.loc 1 132 7 view .LVU467
 102:lib/STM32_USB_Device_Library/Core/Src/usbd_ctlreq.c **** 
 1405              		.loc 1 102 22 is_stmt 0 view .LVU468
 1406 005a 2C46     		mov	r4, r5
 132:lib/STM32_USB_Device_Library/Core/Src/usbd_ctlreq.c **** 
 1407              		.loc 1 132 7 view .LVU469
 1408 005c E2E7     		b	.L97
 1409              	.LVL180:
 1410              	.L104:
 135:lib/STM32_USB_Device_Library/Core/Src/usbd_ctlreq.c ****       break;
 1411              		.loc 1 135 7 is_stmt 1 view .LVU470
 1412 005e FFF7FEFF 		bl	USBD_SetFeature
 1413              	.LVL181:
ARM GAS  C:\Users\BIGBIG~1\AppData\Local\Temp\cc5naY0b.s 			page 55


 136:lib/STM32_USB_Device_Library/Core/Src/usbd_ctlreq.c **** 
 1414              		.loc 1 136 7 view .LVU471
 1415 0062 DFE7     		b	.L97
 1416              	.LVL182:
 1417              	.L105:
 139:lib/STM32_USB_Device_Library/Core/Src/usbd_ctlreq.c ****       break;
 1418              		.loc 1 139 7 view .LVU472
 1419 0064 FFF7FEFF 		bl	USBD_ClrFeature
 1420              	.LVL183:
 140:lib/STM32_USB_Device_Library/Core/Src/usbd_ctlreq.c **** 
 1421              		.loc 1 140 7 view .LVU473
 1422 0068 DCE7     		b	.L97
 1423              	.LVL184:
 1424              	.L98:
 143:lib/STM32_USB_Device_Library/Core/Src/usbd_ctlreq.c ****       break;
 1425              		.loc 1 143 7 view .LVU474
 1426 006a FFF7FEFF 		bl	USBD_CtlError
 1427              	.LVL185:
 144:lib/STM32_USB_Device_Library/Core/Src/usbd_ctlreq.c ****     }
 1428              		.loc 1 144 7 view .LVU475
 1429 006e D9E7     		b	.L97
 1430              		.cfi_endproc
 1431              	.LFE145:
 1433              		.section	.text.USBD_StdItfReq,"ax",%progbits
 1434              		.align	1
 1435              		.global	USBD_StdItfReq
 1436              		.syntax unified
 1437              		.thumb
 1438              		.thumb_func
 1439              		.fpu fpv5-d16
 1441              	USBD_StdItfReq:
 1442              	.LVL186:
 1443              	.LFB146:
 164:lib/STM32_USB_Device_Library/Core/Src/usbd_ctlreq.c ****   USBD_StatusTypeDef ret = USBD_OK;
 1444              		.loc 1 164 1 view -0
 1445              		.cfi_startproc
 1446              		@ args = 0, pretend = 0, frame = 0
 1447              		@ frame_needed = 0, uses_anonymous_args = 0
 164:lib/STM32_USB_Device_Library/Core/Src/usbd_ctlreq.c ****   USBD_StatusTypeDef ret = USBD_OK;
 1448              		.loc 1 164 1 is_stmt 0 view .LVU477
 1449 0000 70B5     		push	{r4, r5, r6, lr}
 1450              	.LCFI12:
 1451              		.cfi_def_cfa_offset 16
 1452              		.cfi_offset 4, -16
 1453              		.cfi_offset 5, -12
 1454              		.cfi_offset 6, -8
 1455              		.cfi_offset 14, -4
 1456 0002 0546     		mov	r5, r0
 1457 0004 0C46     		mov	r4, r1
 165:lib/STM32_USB_Device_Library/Core/Src/usbd_ctlreq.c **** 
 1458              		.loc 1 165 3 is_stmt 1 view .LVU478
 1459              	.LVL187:
 167:lib/STM32_USB_Device_Library/Core/Src/usbd_ctlreq.c ****   {
 1460              		.loc 1 167 3 view .LVU479
 167:lib/STM32_USB_Device_Library/Core/Src/usbd_ctlreq.c ****   {
 1461              		.loc 1 167 14 is_stmt 0 view .LVU480
 1462 0006 0B78     		ldrb	r3, [r1]	@ zero_extendqisi2
ARM GAS  C:\Users\BIGBIG~1\AppData\Local\Temp\cc5naY0b.s 			page 56


 1463 0008 03F06003 		and	r3, r3, #96
 167:lib/STM32_USB_Device_Library/Core/Src/usbd_ctlreq.c ****   {
 1464              		.loc 1 167 3 view .LVU481
 1465 000c 202B     		cmp	r3, #32
 1466 000e 07D0     		beq	.L111
 1467 0010 402B     		cmp	r3, #64
 1468 0012 05D0     		beq	.L111
 1469 0014 23B1     		cbz	r3, .L111
 200:lib/STM32_USB_Device_Library/Core/Src/usbd_ctlreq.c ****     break;
 1470              		.loc 1 200 5 is_stmt 1 view .LVU482
 1471 0016 FFF7FEFF 		bl	USBD_CtlError
 1472              	.LVL188:
 201:lib/STM32_USB_Device_Library/Core/Src/usbd_ctlreq.c ****   }
 1473              		.loc 1 201 5 view .LVU483
 165:lib/STM32_USB_Device_Library/Core/Src/usbd_ctlreq.c **** 
 1474              		.loc 1 165 22 is_stmt 0 view .LVU484
 1475 001a 0026     		movs	r6, #0
 1476              	.LVL189:
 1477              	.L115:
 204:lib/STM32_USB_Device_Library/Core/Src/usbd_ctlreq.c **** }
 1478              		.loc 1 204 3 is_stmt 1 view .LVU485
 205:lib/STM32_USB_Device_Library/Core/Src/usbd_ctlreq.c **** 
 1479              		.loc 1 205 1 is_stmt 0 view .LVU486
 1480 001c 3046     		mov	r0, r6
 1481 001e 70BD     		pop	{r4, r5, r6, pc}
 1482              	.LVL190:
 1483              	.L111:
 172:lib/STM32_USB_Device_Library/Core/Src/usbd_ctlreq.c ****     {
 1484              		.loc 1 172 5 is_stmt 1 view .LVU487
 172:lib/STM32_USB_Device_Library/Core/Src/usbd_ctlreq.c ****     {
 1485              		.loc 1 172 17 is_stmt 0 view .LVU488
 1486 0020 95F89C32 		ldrb	r3, [r5, #668]	@ zero_extendqisi2
 1487 0024 013B     		subs	r3, r3, #1
 1488 0026 022B     		cmp	r3, #2
 1489 0028 18D8     		bhi	.L113
 178:lib/STM32_USB_Device_Library/Core/Src/usbd_ctlreq.c ****       {
 1490              		.loc 1 178 7 is_stmt 1 view .LVU489
 178:lib/STM32_USB_Device_Library/Core/Src/usbd_ctlreq.c ****       {
 1491              		.loc 1 178 11 is_stmt 0 view .LVU490
 1492 002a 2379     		ldrb	r3, [r4, #4]	@ zero_extendqisi2
 178:lib/STM32_USB_Device_Library/Core/Src/usbd_ctlreq.c ****       {
 1493              		.loc 1 178 10 view .LVU491
 1494 002c 012B     		cmp	r3, #1
 1495 002e 0FD8     		bhi	.L114
 180:lib/STM32_USB_Device_Library/Core/Src/usbd_ctlreq.c **** 
 1496              		.loc 1 180 9 is_stmt 1 view .LVU492
 180:lib/STM32_USB_Device_Library/Core/Src/usbd_ctlreq.c **** 
 1497              		.loc 1 180 39 is_stmt 0 view .LVU493
 1498 0030 D5F8B832 		ldr	r3, [r5, #696]
 180:lib/STM32_USB_Device_Library/Core/Src/usbd_ctlreq.c **** 
 1499              		.loc 1 180 47 view .LVU494
 1500 0034 9B68     		ldr	r3, [r3, #8]
 180:lib/STM32_USB_Device_Library/Core/Src/usbd_ctlreq.c **** 
 1501              		.loc 1 180 35 view .LVU495
 1502 0036 2146     		mov	r1, r4
 1503              	.LVL191:
 180:lib/STM32_USB_Device_Library/Core/Src/usbd_ctlreq.c **** 
ARM GAS  C:\Users\BIGBIG~1\AppData\Local\Temp\cc5naY0b.s 			page 57


 1504              		.loc 1 180 35 view .LVU496
 1505 0038 2846     		mov	r0, r5
 1506              	.LVL192:
 180:lib/STM32_USB_Device_Library/Core/Src/usbd_ctlreq.c **** 
 1507              		.loc 1 180 35 view .LVU497
 1508 003a 9847     		blx	r3
 1509              	.LVL193:
 1510 003c 0646     		mov	r6, r0
 1511              	.LVL194:
 182:lib/STM32_USB_Device_Library/Core/Src/usbd_ctlreq.c ****         {
 1512              		.loc 1 182 9 is_stmt 1 view .LVU498
 182:lib/STM32_USB_Device_Library/Core/Src/usbd_ctlreq.c ****         {
 1513              		.loc 1 182 17 is_stmt 0 view .LVU499
 1514 003e E388     		ldrh	r3, [r4, #6]
 182:lib/STM32_USB_Device_Library/Core/Src/usbd_ctlreq.c ****         {
 1515              		.loc 1 182 12 view .LVU500
 1516 0040 002B     		cmp	r3, #0
 1517 0042 EBD1     		bne	.L115
 182:lib/STM32_USB_Device_Library/Core/Src/usbd_ctlreq.c ****         {
 1518              		.loc 1 182 34 discriminator 1 view .LVU501
 1519 0044 0028     		cmp	r0, #0
 1520 0046 E9D1     		bne	.L115
 184:lib/STM32_USB_Device_Library/Core/Src/usbd_ctlreq.c ****         }
 1521              		.loc 1 184 11 is_stmt 1 view .LVU502
 184:lib/STM32_USB_Device_Library/Core/Src/usbd_ctlreq.c ****         }
 1522              		.loc 1 184 17 is_stmt 0 view .LVU503
 1523 0048 2846     		mov	r0, r5
 1524              	.LVL195:
 184:lib/STM32_USB_Device_Library/Core/Src/usbd_ctlreq.c ****         }
 1525              		.loc 1 184 17 view .LVU504
 1526 004a FFF7FEFF 		bl	USBD_CtlSendStatus
 1527              	.LVL196:
 1528 004e E5E7     		b	.L115
 1529              	.LVL197:
 1530              	.L114:
 189:lib/STM32_USB_Device_Library/Core/Src/usbd_ctlreq.c ****       }
 1531              		.loc 1 189 9 is_stmt 1 view .LVU505
 1532 0050 2146     		mov	r1, r4
 1533              	.LVL198:
 189:lib/STM32_USB_Device_Library/Core/Src/usbd_ctlreq.c ****       }
 1534              		.loc 1 189 9 is_stmt 0 view .LVU506
 1535 0052 2846     		mov	r0, r5
 1536              	.LVL199:
 189:lib/STM32_USB_Device_Library/Core/Src/usbd_ctlreq.c ****       }
 1537              		.loc 1 189 9 view .LVU507
 1538 0054 FFF7FEFF 		bl	USBD_CtlError
 1539              	.LVL200:
 165:lib/STM32_USB_Device_Library/Core/Src/usbd_ctlreq.c **** 
 1540              		.loc 1 165 22 view .LVU508
 1541 0058 0026     		movs	r6, #0
 1542 005a DFE7     		b	.L115
 1543              	.LVL201:
 1544              	.L113:
 194:lib/STM32_USB_Device_Library/Core/Src/usbd_ctlreq.c ****       break;
 1545              		.loc 1 194 7 is_stmt 1 view .LVU509
 1546 005c 2146     		mov	r1, r4
 1547              	.LVL202:
ARM GAS  C:\Users\BIGBIG~1\AppData\Local\Temp\cc5naY0b.s 			page 58


 194:lib/STM32_USB_Device_Library/Core/Src/usbd_ctlreq.c ****       break;
 1548              		.loc 1 194 7 is_stmt 0 view .LVU510
 1549 005e 2846     		mov	r0, r5
 1550              	.LVL203:
 194:lib/STM32_USB_Device_Library/Core/Src/usbd_ctlreq.c ****       break;
 1551              		.loc 1 194 7 view .LVU511
 1552 0060 FFF7FEFF 		bl	USBD_CtlError
 1553              	.LVL204:
 195:lib/STM32_USB_Device_Library/Core/Src/usbd_ctlreq.c ****     }
 1554              		.loc 1 195 7 is_stmt 1 view .LVU512
 165:lib/STM32_USB_Device_Library/Core/Src/usbd_ctlreq.c **** 
 1555              		.loc 1 165 22 is_stmt 0 view .LVU513
 1556 0064 0026     		movs	r6, #0
 195:lib/STM32_USB_Device_Library/Core/Src/usbd_ctlreq.c ****     }
 1557              		.loc 1 195 7 view .LVU514
 1558 0066 D9E7     		b	.L115
 1559              		.cfi_endproc
 1560              	.LFE146:
 1562              		.section	.text.USBD_StdEPReq,"ax",%progbits
 1563              		.align	1
 1564              		.global	USBD_StdEPReq
 1565              		.syntax unified
 1566              		.thumb
 1567              		.thumb_func
 1568              		.fpu fpv5-d16
 1570              	USBD_StdEPReq:
 1571              	.LVL205:
 1572              	.LFB147:
 215:lib/STM32_USB_Device_Library/Core/Src/usbd_ctlreq.c ****   USBD_EndpointTypeDef *pep;
 1573              		.loc 1 215 1 is_stmt 1 view -0
 1574              		.cfi_startproc
 1575              		@ args = 0, pretend = 0, frame = 0
 1576              		@ frame_needed = 0, uses_anonymous_args = 0
 215:lib/STM32_USB_Device_Library/Core/Src/usbd_ctlreq.c ****   USBD_EndpointTypeDef *pep;
 1577              		.loc 1 215 1 is_stmt 0 view .LVU516
 1578 0000 F8B5     		push	{r3, r4, r5, r6, r7, lr}
 1579              	.LCFI13:
 1580              		.cfi_def_cfa_offset 24
 1581              		.cfi_offset 3, -24
 1582              		.cfi_offset 4, -20
 1583              		.cfi_offset 5, -16
 1584              		.cfi_offset 6, -12
 1585              		.cfi_offset 7, -8
 1586              		.cfi_offset 14, -4
 1587 0002 0646     		mov	r6, r0
 1588 0004 0D46     		mov	r5, r1
 216:lib/STM32_USB_Device_Library/Core/Src/usbd_ctlreq.c ****   uint8_t ep_addr;
 1589              		.loc 1 216 3 is_stmt 1 view .LVU517
 217:lib/STM32_USB_Device_Library/Core/Src/usbd_ctlreq.c ****   USBD_StatusTypeDef ret = USBD_OK;
 1590              		.loc 1 217 3 view .LVU518
 218:lib/STM32_USB_Device_Library/Core/Src/usbd_ctlreq.c ****   ep_addr = LOBYTE(req->wIndex);
 1591              		.loc 1 218 3 view .LVU519
 1592              	.LVL206:
 219:lib/STM32_USB_Device_Library/Core/Src/usbd_ctlreq.c **** 
 1593              		.loc 1 219 3 view .LVU520
 219:lib/STM32_USB_Device_Library/Core/Src/usbd_ctlreq.c **** 
 1594              		.loc 1 219 13 is_stmt 0 view .LVU521
ARM GAS  C:\Users\BIGBIG~1\AppData\Local\Temp\cc5naY0b.s 			page 59


 1595 0006 8B88     		ldrh	r3, [r1, #4]
 1596              	.LVL207:
 221:lib/STM32_USB_Device_Library/Core/Src/usbd_ctlreq.c ****   {
 1597              		.loc 1 221 3 is_stmt 1 view .LVU522
 221:lib/STM32_USB_Device_Library/Core/Src/usbd_ctlreq.c ****   {
 1598              		.loc 1 221 14 is_stmt 0 view .LVU523
 1599 0008 0C78     		ldrb	r4, [r1]	@ zero_extendqisi2
 1600 000a 04F06004 		and	r4, r4, #96
 221:lib/STM32_USB_Device_Library/Core/Src/usbd_ctlreq.c ****   {
 1601              		.loc 1 221 3 view .LVU524
 1602 000e 202C     		cmp	r4, #32
 1603 0010 08D0     		beq	.L118
 1604 0012 D9B2     		uxtb	r1, r3
 1605              	.LVL208:
 221:lib/STM32_USB_Device_Library/Core/Src/usbd_ctlreq.c ****   {
 1606              		.loc 1 221 3 view .LVU525
 1607 0014 402C     		cmp	r4, #64
 1608 0016 05D0     		beq	.L118
 1609 0018 6CB1     		cbz	r4, .L155
 365:lib/STM32_USB_Device_Library/Core/Src/usbd_ctlreq.c ****     break;
 1610              		.loc 1 365 5 is_stmt 1 view .LVU526
 1611 001a 2946     		mov	r1, r5
 1612 001c FFF7FEFF 		bl	USBD_CtlError
 1613              	.LVL209:
 366:lib/STM32_USB_Device_Library/Core/Src/usbd_ctlreq.c ****   }
 1614              		.loc 1 366 5 view .LVU527
 218:lib/STM32_USB_Device_Library/Core/Src/usbd_ctlreq.c ****   ep_addr = LOBYTE(req->wIndex);
 1615              		.loc 1 218 22 is_stmt 0 view .LVU528
 1616 0020 0024     		movs	r4, #0
 366:lib/STM32_USB_Device_Library/Core/Src/usbd_ctlreq.c ****   }
 1617              		.loc 1 366 5 view .LVU529
 1618 0022 06E0     		b	.L121
 1619              	.LVL210:
 1620              	.L118:
 225:lib/STM32_USB_Device_Library/Core/Src/usbd_ctlreq.c ****     break;
 1621              		.loc 1 225 5 is_stmt 1 view .LVU530
 225:lib/STM32_USB_Device_Library/Core/Src/usbd_ctlreq.c ****     break;
 1622              		.loc 1 225 35 is_stmt 0 view .LVU531
 1623 0024 D6F8B832 		ldr	r3, [r6, #696]
 1624              	.LVL211:
 225:lib/STM32_USB_Device_Library/Core/Src/usbd_ctlreq.c ****     break;
 1625              		.loc 1 225 43 view .LVU532
 1626 0028 9B68     		ldr	r3, [r3, #8]
 225:lib/STM32_USB_Device_Library/Core/Src/usbd_ctlreq.c ****     break;
 1627              		.loc 1 225 31 view .LVU533
 1628 002a 2946     		mov	r1, r5
 1629 002c 3046     		mov	r0, r6
 1630              	.LVL212:
 225:lib/STM32_USB_Device_Library/Core/Src/usbd_ctlreq.c ****     break;
 1631              		.loc 1 225 31 view .LVU534
 1632 002e 9847     		blx	r3
 1633              	.LVL213:
 225:lib/STM32_USB_Device_Library/Core/Src/usbd_ctlreq.c ****     break;
 1634              		.loc 1 225 31 view .LVU535
 1635 0030 0446     		mov	r4, r0
 1636              	.LVL214:
 226:lib/STM32_USB_Device_Library/Core/Src/usbd_ctlreq.c **** 
ARM GAS  C:\Users\BIGBIG~1\AppData\Local\Temp\cc5naY0b.s 			page 60


 1637              		.loc 1 226 5 is_stmt 1 view .LVU536
 1638              	.L121:
 369:lib/STM32_USB_Device_Library/Core/Src/usbd_ctlreq.c **** }
 1639              		.loc 1 369 3 view .LVU537
 370:lib/STM32_USB_Device_Library/Core/Src/usbd_ctlreq.c **** 
 1640              		.loc 1 370 1 is_stmt 0 view .LVU538
 1641 0032 2046     		mov	r0, r4
 1642 0034 F8BD     		pop	{r3, r4, r5, r6, r7, pc}
 1643              	.LVL215:
 1644              	.L155:
 229:lib/STM32_USB_Device_Library/Core/Src/usbd_ctlreq.c ****     {
 1645              		.loc 1 229 5 is_stmt 1 view .LVU539
 229:lib/STM32_USB_Device_Library/Core/Src/usbd_ctlreq.c ****     {
 1646              		.loc 1 229 16 is_stmt 0 view .LVU540
 1647 0036 6F78     		ldrb	r7, [r5, #1]	@ zero_extendqisi2
 1648 0038 012F     		cmp	r7, #1
 1649 003a 37D0     		beq	.L122
 1650 003c 032F     		cmp	r7, #3
 1651 003e 05D0     		beq	.L123
 1652 0040 002F     		cmp	r7, #0
 1653 0042 63D0     		beq	.L156
 359:lib/STM32_USB_Device_Library/Core/Src/usbd_ctlreq.c ****       break;
 1654              		.loc 1 359 7 is_stmt 1 view .LVU541
 1655 0044 2946     		mov	r1, r5
 1656 0046 FFF7FEFF 		bl	USBD_CtlError
 1657              	.LVL216:
 360:lib/STM32_USB_Device_Library/Core/Src/usbd_ctlreq.c ****     }
 1658              		.loc 1 360 7 view .LVU542
 1659 004a F2E7     		b	.L121
 1660              	.LVL217:
 1661              	.L123:
 232:lib/STM32_USB_Device_Library/Core/Src/usbd_ctlreq.c ****       {
 1662              		.loc 1 232 7 discriminator 3 view .LVU543
 232:lib/STM32_USB_Device_Library/Core/Src/usbd_ctlreq.c ****       {
 1663              		.loc 1 232 19 is_stmt 0 discriminator 3 view .LVU544
 1664 004c 90F89C32 		ldrb	r3, [r0, #668]	@ zero_extendqisi2
 1665              	.LVL218:
 232:lib/STM32_USB_Device_Library/Core/Src/usbd_ctlreq.c ****       {
 1666              		.loc 1 232 19 discriminator 3 view .LVU545
 1667 0050 022B     		cmp	r3, #2
 1668 0052 05D0     		beq	.L126
 1669 0054 032B     		cmp	r3, #3
 1670 0056 16D0     		beq	.L127
 259:lib/STM32_USB_Device_Library/Core/Src/usbd_ctlreq.c ****         break;
 1671              		.loc 1 259 9 is_stmt 1 view .LVU546
 1672 0058 2946     		mov	r1, r5
 1673              	.LVL219:
 259:lib/STM32_USB_Device_Library/Core/Src/usbd_ctlreq.c ****         break;
 1674              		.loc 1 259 9 is_stmt 0 view .LVU547
 1675 005a FFF7FEFF 		bl	USBD_CtlError
 1676              	.LVL220:
 260:lib/STM32_USB_Device_Library/Core/Src/usbd_ctlreq.c ****       }
 1677              		.loc 1 260 9 is_stmt 1 view .LVU548
 1678 005e E8E7     		b	.L121
 1679              	.LVL221:
 1680              	.L126:
 235:lib/STM32_USB_Device_Library/Core/Src/usbd_ctlreq.c ****         {
ARM GAS  C:\Users\BIGBIG~1\AppData\Local\Temp\cc5naY0b.s 			page 61


 1681              		.loc 1 235 9 view .LVU549
 235:lib/STM32_USB_Device_Library/Core/Src/usbd_ctlreq.c ****         {
 1682              		.loc 1 235 44 is_stmt 0 view .LVU550
 1683 0060 B1F18003 		subs	r3, r1, #128
 1684 0064 18BF     		it	ne
 1685 0066 0123     		movne	r3, #1
 235:lib/STM32_USB_Device_Library/Core/Src/usbd_ctlreq.c ****         {
 1686              		.loc 1 235 32 view .LVU551
 1687 0068 0029     		cmp	r1, #0
 1688 006a 08BF     		it	eq
 1689 006c 0023     		moveq	r3, #0
 235:lib/STM32_USB_Device_Library/Core/Src/usbd_ctlreq.c ****         {
 1690              		.loc 1 235 12 view .LVU552
 1691 006e 33B1     		cbz	r3, .L129
 237:lib/STM32_USB_Device_Library/Core/Src/usbd_ctlreq.c ****           (void)USBD_LL_StallEP(pdev, 0x80U);
 1692              		.loc 1 237 11 is_stmt 1 view .LVU553
 237:lib/STM32_USB_Device_Library/Core/Src/usbd_ctlreq.c ****           (void)USBD_LL_StallEP(pdev, 0x80U);
 1693              		.loc 1 237 17 is_stmt 0 view .LVU554
 1694 0070 FFF7FEFF 		bl	USBD_LL_StallEP
 1695              	.LVL222:
 238:lib/STM32_USB_Device_Library/Core/Src/usbd_ctlreq.c ****         }
 1696              		.loc 1 238 11 is_stmt 1 view .LVU555
 238:lib/STM32_USB_Device_Library/Core/Src/usbd_ctlreq.c ****         }
 1697              		.loc 1 238 17 is_stmt 0 view .LVU556
 1698 0074 8021     		movs	r1, #128
 1699 0076 3046     		mov	r0, r6
 1700 0078 FFF7FEFF 		bl	USBD_LL_StallEP
 1701              	.LVL223:
 1702 007c D9E7     		b	.L121
 1703              	.LVL224:
 1704              	.L129:
 242:lib/STM32_USB_Device_Library/Core/Src/usbd_ctlreq.c ****         }
 1705              		.loc 1 242 11 is_stmt 1 view .LVU557
 1706 007e 2946     		mov	r1, r5
 1707              	.LVL225:
 242:lib/STM32_USB_Device_Library/Core/Src/usbd_ctlreq.c ****         }
 1708              		.loc 1 242 11 is_stmt 0 view .LVU558
 1709 0080 FFF7FEFF 		bl	USBD_CtlError
 1710              	.LVL226:
 242:lib/STM32_USB_Device_Library/Core/Src/usbd_ctlreq.c ****         }
 1711              		.loc 1 242 11 view .LVU559
 1712 0084 D5E7     		b	.L121
 1713              	.LVL227:
 1714              	.L127:
 247:lib/STM32_USB_Device_Library/Core/Src/usbd_ctlreq.c ****         {
 1715              		.loc 1 247 9 is_stmt 1 view .LVU560
 247:lib/STM32_USB_Device_Library/Core/Src/usbd_ctlreq.c ****         {
 1716              		.loc 1 247 16 is_stmt 0 view .LVU561
 1717 0086 6B88     		ldrh	r3, [r5, #2]
 247:lib/STM32_USB_Device_Library/Core/Src/usbd_ctlreq.c ****         {
 1718              		.loc 1 247 12 view .LVU562
 1719 0088 4BB9     		cbnz	r3, .L130
 249:lib/STM32_USB_Device_Library/Core/Src/usbd_ctlreq.c ****           {
 1720              		.loc 1 249 11 is_stmt 1 view .LVU563
 249:lib/STM32_USB_Device_Library/Core/Src/usbd_ctlreq.c ****           {
 1721              		.loc 1 249 46 is_stmt 0 view .LVU564
 1722 008a B1F18003 		subs	r3, r1, #128
ARM GAS  C:\Users\BIGBIG~1\AppData\Local\Temp\cc5naY0b.s 			page 62


 1723 008e 18BF     		it	ne
 1724 0090 0123     		movne	r3, #1
 249:lib/STM32_USB_Device_Library/Core/Src/usbd_ctlreq.c ****           {
 1725              		.loc 1 249 34 view .LVU565
 1726 0092 0029     		cmp	r1, #0
 1727 0094 08BF     		it	eq
 1728 0096 0023     		moveq	r3, #0
 249:lib/STM32_USB_Device_Library/Core/Src/usbd_ctlreq.c ****           {
 1729              		.loc 1 249 14 view .LVU566
 1730 0098 0BB1     		cbz	r3, .L130
 249:lib/STM32_USB_Device_Library/Core/Src/usbd_ctlreq.c ****           {
 1731              		.loc 1 249 63 discriminator 1 view .LVU567
 1732 009a EB88     		ldrh	r3, [r5, #6]
 249:lib/STM32_USB_Device_Library/Core/Src/usbd_ctlreq.c ****           {
 1733              		.loc 1 249 56 discriminator 1 view .LVU568
 1734 009c 1BB1     		cbz	r3, .L157
 1735              	.LVL228:
 1736              	.L130:
 254:lib/STM32_USB_Device_Library/Core/Src/usbd_ctlreq.c **** 
 1737              		.loc 1 254 9 is_stmt 1 view .LVU569
 254:lib/STM32_USB_Device_Library/Core/Src/usbd_ctlreq.c **** 
 1738              		.loc 1 254 15 is_stmt 0 view .LVU570
 1739 009e 3046     		mov	r0, r6
 1740 00a0 FFF7FEFF 		bl	USBD_CtlSendStatus
 1741              	.LVL229:
 256:lib/STM32_USB_Device_Library/Core/Src/usbd_ctlreq.c **** 
 1742              		.loc 1 256 9 is_stmt 1 view .LVU571
 1743 00a4 C5E7     		b	.L121
 1744              	.LVL230:
 1745              	.L157:
 251:lib/STM32_USB_Device_Library/Core/Src/usbd_ctlreq.c ****           }
 1746              		.loc 1 251 13 view .LVU572
 251:lib/STM32_USB_Device_Library/Core/Src/usbd_ctlreq.c ****           }
 1747              		.loc 1 251 19 is_stmt 0 view .LVU573
 1748 00a6 FFF7FEFF 		bl	USBD_LL_StallEP
 1749              	.LVL231:
 251:lib/STM32_USB_Device_Library/Core/Src/usbd_ctlreq.c ****           }
 1750              		.loc 1 251 19 view .LVU574
 1751 00aa F8E7     		b	.L130
 1752              	.LVL232:
 1753              	.L122:
 266:lib/STM32_USB_Device_Library/Core/Src/usbd_ctlreq.c ****       {
 1754              		.loc 1 266 7 is_stmt 1 discriminator 2 view .LVU575
 266:lib/STM32_USB_Device_Library/Core/Src/usbd_ctlreq.c ****       {
 1755              		.loc 1 266 19 is_stmt 0 discriminator 2 view .LVU576
 1756 00ac 90F89C32 		ldrb	r3, [r0, #668]	@ zero_extendqisi2
 1757              	.LVL233:
 266:lib/STM32_USB_Device_Library/Core/Src/usbd_ctlreq.c ****       {
 1758              		.loc 1 266 19 discriminator 2 view .LVU577
 1759 00b0 022B     		cmp	r3, #2
 1760 00b2 05D0     		beq	.L131
 1761 00b4 032B     		cmp	r3, #3
 1762 00b6 16D0     		beq	.L132
 293:lib/STM32_USB_Device_Library/Core/Src/usbd_ctlreq.c ****         break;
 1763              		.loc 1 293 9 is_stmt 1 view .LVU578
 1764 00b8 2946     		mov	r1, r5
 1765              	.LVL234:
ARM GAS  C:\Users\BIGBIG~1\AppData\Local\Temp\cc5naY0b.s 			page 63


 293:lib/STM32_USB_Device_Library/Core/Src/usbd_ctlreq.c ****         break;
 1766              		.loc 1 293 9 is_stmt 0 view .LVU579
 1767 00ba FFF7FEFF 		bl	USBD_CtlError
 1768              	.LVL235:
 294:lib/STM32_USB_Device_Library/Core/Src/usbd_ctlreq.c ****       }
 1769              		.loc 1 294 9 is_stmt 1 view .LVU580
 1770 00be B8E7     		b	.L121
 1771              	.LVL236:
 1772              	.L131:
 269:lib/STM32_USB_Device_Library/Core/Src/usbd_ctlreq.c ****         {
 1773              		.loc 1 269 9 view .LVU581
 269:lib/STM32_USB_Device_Library/Core/Src/usbd_ctlreq.c ****         {
 1774              		.loc 1 269 44 is_stmt 0 view .LVU582
 1775 00c0 B1F18003 		subs	r3, r1, #128
 1776 00c4 18BF     		it	ne
 1777 00c6 0123     		movne	r3, #1
 269:lib/STM32_USB_Device_Library/Core/Src/usbd_ctlreq.c ****         {
 1778              		.loc 1 269 32 view .LVU583
 1779 00c8 0029     		cmp	r1, #0
 1780 00ca 08BF     		it	eq
 1781 00cc 0023     		moveq	r3, #0
 269:lib/STM32_USB_Device_Library/Core/Src/usbd_ctlreq.c ****         {
 1782              		.loc 1 269 12 view .LVU584
 1783 00ce 33B1     		cbz	r3, .L134
 271:lib/STM32_USB_Device_Library/Core/Src/usbd_ctlreq.c ****           (void)USBD_LL_StallEP(pdev, 0x80U);
 1784              		.loc 1 271 11 is_stmt 1 view .LVU585
 271:lib/STM32_USB_Device_Library/Core/Src/usbd_ctlreq.c ****           (void)USBD_LL_StallEP(pdev, 0x80U);
 1785              		.loc 1 271 17 is_stmt 0 view .LVU586
 1786 00d0 FFF7FEFF 		bl	USBD_LL_StallEP
 1787              	.LVL237:
 272:lib/STM32_USB_Device_Library/Core/Src/usbd_ctlreq.c ****         }
 1788              		.loc 1 272 11 is_stmt 1 view .LVU587
 272:lib/STM32_USB_Device_Library/Core/Src/usbd_ctlreq.c ****         }
 1789              		.loc 1 272 17 is_stmt 0 view .LVU588
 1790 00d4 8021     		movs	r1, #128
 1791 00d6 3046     		mov	r0, r6
 1792 00d8 FFF7FEFF 		bl	USBD_LL_StallEP
 1793              	.LVL238:
 1794 00dc A9E7     		b	.L121
 1795              	.LVL239:
 1796              	.L134:
 276:lib/STM32_USB_Device_Library/Core/Src/usbd_ctlreq.c ****         }
 1797              		.loc 1 276 11 is_stmt 1 view .LVU589
 1798 00de 2946     		mov	r1, r5
 1799              	.LVL240:
 276:lib/STM32_USB_Device_Library/Core/Src/usbd_ctlreq.c ****         }
 1800              		.loc 1 276 11 is_stmt 0 view .LVU590
 1801 00e0 FFF7FEFF 		bl	USBD_CtlError
 1802              	.LVL241:
 276:lib/STM32_USB_Device_Library/Core/Src/usbd_ctlreq.c ****         }
 1803              		.loc 1 276 11 view .LVU591
 1804 00e4 A5E7     		b	.L121
 1805              	.LVL242:
 1806              	.L132:
 281:lib/STM32_USB_Device_Library/Core/Src/usbd_ctlreq.c ****         {
 1807              		.loc 1 281 9 is_stmt 1 view .LVU592
 281:lib/STM32_USB_Device_Library/Core/Src/usbd_ctlreq.c ****         {
ARM GAS  C:\Users\BIGBIG~1\AppData\Local\Temp\cc5naY0b.s 			page 64


 1808              		.loc 1 281 16 is_stmt 0 view .LVU593
 1809 00e6 6B88     		ldrh	r3, [r5, #2]
 281:lib/STM32_USB_Device_Library/Core/Src/usbd_ctlreq.c ****         {
 1810              		.loc 1 281 12 view .LVU594
 1811 00e8 002B     		cmp	r3, #0
 1812 00ea A2D1     		bne	.L121
 283:lib/STM32_USB_Device_Library/Core/Src/usbd_ctlreq.c ****           {
 1813              		.loc 1 283 11 is_stmt 1 view .LVU595
 283:lib/STM32_USB_Device_Library/Core/Src/usbd_ctlreq.c ****           {
 1814              		.loc 1 283 14 is_stmt 0 view .LVU596
 1815 00ec 11F07F0F 		tst	r1, #127
 1816 00f0 09D1     		bne	.L158
 1817              	.LVL243:
 1818              	.L135:
 287:lib/STM32_USB_Device_Library/Core/Src/usbd_ctlreq.c ****           (USBD_StatusTypeDef)pdev->pClass->Setup(pdev, req);
 1819              		.loc 1 287 11 is_stmt 1 view .LVU597
 287:lib/STM32_USB_Device_Library/Core/Src/usbd_ctlreq.c ****           (USBD_StatusTypeDef)pdev->pClass->Setup(pdev, req);
 1820              		.loc 1 287 17 is_stmt 0 view .LVU598
 1821 00f2 3046     		mov	r0, r6
 1822 00f4 FFF7FEFF 		bl	USBD_CtlSendStatus
 1823              	.LVL244:
 288:lib/STM32_USB_Device_Library/Core/Src/usbd_ctlreq.c ****         }
 1824              		.loc 1 288 11 is_stmt 1 view .LVU599
 288:lib/STM32_USB_Device_Library/Core/Src/usbd_ctlreq.c ****         }
 1825              		.loc 1 288 35 is_stmt 0 view .LVU600
 1826 00f8 D6F8B832 		ldr	r3, [r6, #696]
 288:lib/STM32_USB_Device_Library/Core/Src/usbd_ctlreq.c ****         }
 1827              		.loc 1 288 43 view .LVU601
 1828 00fc 9B68     		ldr	r3, [r3, #8]
 288:lib/STM32_USB_Device_Library/Core/Src/usbd_ctlreq.c ****         }
 1829              		.loc 1 288 31 view .LVU602
 1830 00fe 2946     		mov	r1, r5
 1831 0100 3046     		mov	r0, r6
 1832 0102 9847     		blx	r3
 1833              	.LVL245:
 1834 0104 95E7     		b	.L121
 1835              	.LVL246:
 1836              	.L158:
 285:lib/STM32_USB_Device_Library/Core/Src/usbd_ctlreq.c ****           }
 1837              		.loc 1 285 13 is_stmt 1 view .LVU603
 285:lib/STM32_USB_Device_Library/Core/Src/usbd_ctlreq.c ****           }
 1838              		.loc 1 285 19 is_stmt 0 view .LVU604
 1839 0106 FFF7FEFF 		bl	USBD_LL_ClearStallEP
 1840              	.LVL247:
 285:lib/STM32_USB_Device_Library/Core/Src/usbd_ctlreq.c ****           }
 1841              		.loc 1 285 19 view .LVU605
 1842 010a F2E7     		b	.L135
 1843              	.LVL248:
 1844              	.L156:
 299:lib/STM32_USB_Device_Library/Core/Src/usbd_ctlreq.c ****       {
 1845              		.loc 1 299 7 is_stmt 1 discriminator 1 view .LVU606
 299:lib/STM32_USB_Device_Library/Core/Src/usbd_ctlreq.c ****       {
 1846              		.loc 1 299 19 is_stmt 0 discriminator 1 view .LVU607
 1847 010c 90F89C22 		ldrb	r2, [r0, #668]	@ zero_extendqisi2
 1848 0110 022A     		cmp	r2, #2
 1849 0112 06D0     		beq	.L136
 1850 0114 032A     		cmp	r2, #3
ARM GAS  C:\Users\BIGBIG~1\AppData\Local\Temp\cc5naY0b.s 			page 65


 1851 0116 2ED0     		beq	.L137
 353:lib/STM32_USB_Device_Library/Core/Src/usbd_ctlreq.c ****         break;
 1852              		.loc 1 353 9 is_stmt 1 view .LVU608
 1853 0118 2946     		mov	r1, r5
 1854 011a FFF7FEFF 		bl	USBD_CtlError
 1855              	.LVL249:
 354:lib/STM32_USB_Device_Library/Core/Src/usbd_ctlreq.c ****       }
 1856              		.loc 1 354 9 view .LVU609
 218:lib/STM32_USB_Device_Library/Core/Src/usbd_ctlreq.c ****   ep_addr = LOBYTE(req->wIndex);
 1857              		.loc 1 218 22 is_stmt 0 view .LVU610
 1858 011e 3C46     		mov	r4, r7
 354:lib/STM32_USB_Device_Library/Core/Src/usbd_ctlreq.c ****       }
 1859              		.loc 1 354 9 view .LVU611
 1860 0120 87E7     		b	.L121
 1861              	.LVL250:
 1862              	.L136:
 302:lib/STM32_USB_Device_Library/Core/Src/usbd_ctlreq.c ****         {
 1863              		.loc 1 302 9 is_stmt 1 view .LVU612
 302:lib/STM32_USB_Device_Library/Core/Src/usbd_ctlreq.c ****         {
 1864              		.loc 1 302 44 is_stmt 0 view .LVU613
 1865 0122 B1F18002 		subs	r2, r1, #128
 1866 0126 18BF     		it	ne
 1867 0128 0122     		movne	r2, #1
 302:lib/STM32_USB_Device_Library/Core/Src/usbd_ctlreq.c ****         {
 1868              		.loc 1 302 32 view .LVU614
 1869 012a 0029     		cmp	r1, #0
 1870 012c 08BF     		it	eq
 1871 012e 0022     		moveq	r2, #0
 302:lib/STM32_USB_Device_Library/Core/Src/usbd_ctlreq.c ****         {
 1872              		.loc 1 302 12 view .LVU615
 1873 0130 9AB9     		cbnz	r2, .L159
 307:lib/STM32_USB_Device_Library/Core/Src/usbd_ctlreq.c ****               &pdev->ep_out[ep_addr & 0x7FU];
 1874              		.loc 1 307 9 is_stmt 1 view .LVU616
 307:lib/STM32_USB_Device_Library/Core/Src/usbd_ctlreq.c ****               &pdev->ep_out[ep_addr & 0x7FU];
 1875              		.loc 1 307 76 is_stmt 0 view .LVU617
 1876 0132 13F0800F 		tst	r3, #128
 1877 0136 15D1     		bne	.L160
 308:lib/STM32_USB_Device_Library/Core/Src/usbd_ctlreq.c **** 
 1878              		.loc 1 308 37 discriminator 2 view .LVU618
 1879 0138 01F07F01 		and	r1, r1, #127
 307:lib/STM32_USB_Device_Library/Core/Src/usbd_ctlreq.c ****               &pdev->ep_out[ep_addr & 0x7FU];
 1880              		.loc 1 307 76 discriminator 2 view .LVU619
 1881 013c 01EB8101 		add	r1, r1, r1, lsl #2
 1882 0140 8900     		lsls	r1, r1, #2
 1883 0142 01F5A871 		add	r1, r1, #336
 1884 0146 0144     		add	r1, r1, r0
 1885 0148 0431     		adds	r1, r1, #4
 1886              	.L141:
 1887              	.LVL251:
 310:lib/STM32_USB_Device_Library/Core/Src/usbd_ctlreq.c **** 
 1888              		.loc 1 310 9 is_stmt 1 discriminator 4 view .LVU620
 310:lib/STM32_USB_Device_Library/Core/Src/usbd_ctlreq.c **** 
 1889              		.loc 1 310 21 is_stmt 0 discriminator 4 view .LVU621
 1890 014a 0023     		movs	r3, #0
 1891              	.LVL252:
 310:lib/STM32_USB_Device_Library/Core/Src/usbd_ctlreq.c **** 
 1892              		.loc 1 310 21 discriminator 4 view .LVU622
ARM GAS  C:\Users\BIGBIG~1\AppData\Local\Temp\cc5naY0b.s 			page 66


 1893 014c 0B60     		str	r3, [r1]
 1894              	.LVL253:
 312:lib/STM32_USB_Device_Library/Core/Src/usbd_ctlreq.c ****         break;
 1895              		.loc 1 312 9 is_stmt 1 discriminator 4 view .LVU623
 312:lib/STM32_USB_Device_Library/Core/Src/usbd_ctlreq.c ****         break;
 1896              		.loc 1 312 15 is_stmt 0 discriminator 4 view .LVU624
 1897 014e 0222     		movs	r2, #2
 1898 0150 3046     		mov	r0, r6
 1899              	.LVL254:
 312:lib/STM32_USB_Device_Library/Core/Src/usbd_ctlreq.c ****         break;
 1900              		.loc 1 312 15 discriminator 4 view .LVU625
 1901 0152 FFF7FEFF 		bl	USBD_CtlSendData
 1902              	.LVL255:
 313:lib/STM32_USB_Device_Library/Core/Src/usbd_ctlreq.c **** 
 1903              		.loc 1 313 9 is_stmt 1 discriminator 4 view .LVU626
 218:lib/STM32_USB_Device_Library/Core/Src/usbd_ctlreq.c ****   ep_addr = LOBYTE(req->wIndex);
 1904              		.loc 1 218 22 is_stmt 0 discriminator 4 view .LVU627
 1905 0156 3C46     		mov	r4, r7
 313:lib/STM32_USB_Device_Library/Core/Src/usbd_ctlreq.c **** 
 1906              		.loc 1 313 9 discriminator 4 view .LVU628
 1907 0158 6BE7     		b	.L121
 1908              	.LVL256:
 1909              	.L159:
 304:lib/STM32_USB_Device_Library/Core/Src/usbd_ctlreq.c ****           break;
 1910              		.loc 1 304 11 is_stmt 1 view .LVU629
 1911 015a 2946     		mov	r1, r5
 1912 015c FFF7FEFF 		bl	USBD_CtlError
 1913              	.LVL257:
 305:lib/STM32_USB_Device_Library/Core/Src/usbd_ctlreq.c ****         }
 1914              		.loc 1 305 11 view .LVU630
 218:lib/STM32_USB_Device_Library/Core/Src/usbd_ctlreq.c ****   ep_addr = LOBYTE(req->wIndex);
 1915              		.loc 1 218 22 is_stmt 0 view .LVU631
 1916 0160 3C46     		mov	r4, r7
 305:lib/STM32_USB_Device_Library/Core/Src/usbd_ctlreq.c ****         }
 1917              		.loc 1 305 11 view .LVU632
 1918 0162 66E7     		b	.L121
 1919              	.LVL258:
 1920              	.L160:
 307:lib/STM32_USB_Device_Library/Core/Src/usbd_ctlreq.c ****               &pdev->ep_out[ep_addr & 0x7FU];
 1921              		.loc 1 307 67 discriminator 1 view .LVU633
 1922 0164 01F07F01 		and	r1, r1, #127
 307:lib/STM32_USB_Device_Library/Core/Src/usbd_ctlreq.c ****               &pdev->ep_out[ep_addr & 0x7FU];
 1923              		.loc 1 307 76 discriminator 1 view .LVU634
 1924 0168 01EB8101 		add	r1, r1, r1, lsl #2
 1925 016c 8900     		lsls	r1, r1, #2
 1926 016e 1031     		adds	r1, r1, #16
 1927 0170 0144     		add	r1, r1, r0
 1928 0172 0431     		adds	r1, r1, #4
 1929 0174 E9E7     		b	.L141
 1930              	.L137:
 316:lib/STM32_USB_Device_Library/Core/Src/usbd_ctlreq.c ****         {
 1931              		.loc 1 316 9 is_stmt 1 view .LVU635
 316:lib/STM32_USB_Device_Library/Core/Src/usbd_ctlreq.c ****         {
 1932              		.loc 1 316 31 is_stmt 0 view .LVU636
 1933 0176 5BB2     		sxtb	r3, r3
 316:lib/STM32_USB_Device_Library/Core/Src/usbd_ctlreq.c ****         {
 1934              		.loc 1 316 12 view .LVU637
ARM GAS  C:\Users\BIGBIG~1\AppData\Local\Temp\cc5naY0b.s 			page 67


 1935 0178 002B     		cmp	r3, #0
 1936 017a 24DB     		blt	.L161
 326:lib/STM32_USB_Device_Library/Core/Src/usbd_ctlreq.c ****           {
 1937              		.loc 1 326 11 is_stmt 1 view .LVU638
 326:lib/STM32_USB_Device_Library/Core/Src/usbd_ctlreq.c ****           {
 1938              		.loc 1 326 36 is_stmt 0 view .LVU639
 1939 017c 01F00F02 		and	r2, r1, #15
 326:lib/STM32_USB_Device_Library/Core/Src/usbd_ctlreq.c ****           {
 1940              		.loc 1 326 43 view .LVU640
 1941 0180 02EB8202 		add	r2, r2, r2, lsl #2
 1942 0184 00EB8202 		add	r2, r0, r2, lsl #2
 1943 0188 B2F86421 		ldrh	r2, [r2, #356]
 326:lib/STM32_USB_Device_Library/Core/Src/usbd_ctlreq.c ****           {
 1944              		.loc 1 326 14 view .LVU641
 1945 018c 4AB3     		cbz	r2, .L162
 1946              	.L143:
 333:lib/STM32_USB_Device_Library/Core/Src/usbd_ctlreq.c ****               &pdev->ep_out[ep_addr & 0x7FU];
 1947              		.loc 1 333 9 is_stmt 1 view .LVU642
 333:lib/STM32_USB_Device_Library/Core/Src/usbd_ctlreq.c ****               &pdev->ep_out[ep_addr & 0x7FU];
 1948              		.loc 1 333 76 is_stmt 0 view .LVU643
 1949 018e 002B     		cmp	r3, #0
 1950 0190 2CDB     		blt	.L163
 334:lib/STM32_USB_Device_Library/Core/Src/usbd_ctlreq.c **** 
 1951              		.loc 1 334 37 discriminator 2 view .LVU644
 1952 0192 01F07F03 		and	r3, r1, #127
 1953              	.LVL259:
 333:lib/STM32_USB_Device_Library/Core/Src/usbd_ctlreq.c ****               &pdev->ep_out[ep_addr & 0x7FU];
 1954              		.loc 1 333 76 discriminator 2 view .LVU645
 1955 0196 03EB8303 		add	r3, r3, r3, lsl #2
 1956 019a 9C00     		lsls	r4, r3, #2
 1957 019c 04F5A874 		add	r4, r4, #336
 1958 01a0 3444     		add	r4, r4, r6
 1959 01a2 0434     		adds	r4, r4, #4
 1960              	.L145:
 1961              	.LVL260:
 336:lib/STM32_USB_Device_Library/Core/Src/usbd_ctlreq.c ****           {
 1962              		.loc 1 336 11 is_stmt 1 discriminator 4 view .LVU646
 336:lib/STM32_USB_Device_Library/Core/Src/usbd_ctlreq.c ****           {
 1963              		.loc 1 336 46 is_stmt 0 discriminator 4 view .LVU647
 1964 01a4 8029     		cmp	r1, #128
 1965 01a6 14BF     		ite	ne
 1966 01a8 0023     		movne	r3, #0
 1967 01aa 0123     		moveq	r3, #1
 336:lib/STM32_USB_Device_Library/Core/Src/usbd_ctlreq.c ****           {
 1968              		.loc 1 336 34 discriminator 4 view .LVU648
 1969 01ac 0029     		cmp	r1, #0
 1970 01ae 08BF     		it	eq
 1971 01b0 0123     		moveq	r3, #1
 336:lib/STM32_USB_Device_Library/Core/Src/usbd_ctlreq.c ****           {
 1972              		.loc 1 336 14 discriminator 4 view .LVU649
 1973 01b2 23B3     		cbz	r3, .L146
 338:lib/STM32_USB_Device_Library/Core/Src/usbd_ctlreq.c ****           }
 1974              		.loc 1 338 13 is_stmt 1 view .LVU650
 338:lib/STM32_USB_Device_Library/Core/Src/usbd_ctlreq.c ****           }
 1975              		.loc 1 338 25 is_stmt 0 view .LVU651
 1976 01b4 0023     		movs	r3, #0
 1977 01b6 2360     		str	r3, [r4]
ARM GAS  C:\Users\BIGBIG~1\AppData\Local\Temp\cc5naY0b.s 			page 68


 1978              	.LVL261:
 1979              	.L147:
 349:lib/STM32_USB_Device_Library/Core/Src/usbd_ctlreq.c ****           break;
 1980              		.loc 1 349 11 is_stmt 1 view .LVU652
 349:lib/STM32_USB_Device_Library/Core/Src/usbd_ctlreq.c ****           break;
 1981              		.loc 1 349 17 is_stmt 0 view .LVU653
 1982 01b8 0222     		movs	r2, #2
 1983 01ba 2146     		mov	r1, r4
 1984 01bc 3046     		mov	r0, r6
 1985 01be FFF7FEFF 		bl	USBD_CtlSendData
 1986              	.LVL262:
 350:lib/STM32_USB_Device_Library/Core/Src/usbd_ctlreq.c **** 
 1987              		.loc 1 350 11 is_stmt 1 view .LVU654
 218:lib/STM32_USB_Device_Library/Core/Src/usbd_ctlreq.c ****   ep_addr = LOBYTE(req->wIndex);
 1988              		.loc 1 218 22 is_stmt 0 view .LVU655
 1989 01c2 3C46     		mov	r4, r7
 1990              	.LVL263:
 350:lib/STM32_USB_Device_Library/Core/Src/usbd_ctlreq.c **** 
 1991              		.loc 1 350 11 view .LVU656
 1992 01c4 35E7     		b	.L121
 1993              	.LVL264:
 1994              	.L161:
 318:lib/STM32_USB_Device_Library/Core/Src/usbd_ctlreq.c ****           {
 1995              		.loc 1 318 11 is_stmt 1 view .LVU657
 318:lib/STM32_USB_Device_Library/Core/Src/usbd_ctlreq.c ****           {
 1996              		.loc 1 318 35 is_stmt 0 view .LVU658
 1997 01c6 01F00F02 		and	r2, r1, #15
 318:lib/STM32_USB_Device_Library/Core/Src/usbd_ctlreq.c ****           {
 1998              		.loc 1 318 42 view .LVU659
 1999 01ca 02EB8202 		add	r2, r2, r2, lsl #2
 2000 01ce 00EB8202 		add	r2, r0, r2, lsl #2
 2001 01d2 928C     		ldrh	r2, [r2, #36]
 318:lib/STM32_USB_Device_Library/Core/Src/usbd_ctlreq.c ****           {
 2002              		.loc 1 318 14 view .LVU660
 2003 01d4 002A     		cmp	r2, #0
 2004 01d6 DAD1     		bne	.L143
 320:lib/STM32_USB_Device_Library/Core/Src/usbd_ctlreq.c ****             break;
 2005              		.loc 1 320 13 is_stmt 1 view .LVU661
 2006 01d8 2946     		mov	r1, r5
 2007 01da FFF7FEFF 		bl	USBD_CtlError
 2008              	.LVL265:
 321:lib/STM32_USB_Device_Library/Core/Src/usbd_ctlreq.c ****           }
 2009              		.loc 1 321 13 view .LVU662
 218:lib/STM32_USB_Device_Library/Core/Src/usbd_ctlreq.c ****   ep_addr = LOBYTE(req->wIndex);
 2010              		.loc 1 218 22 is_stmt 0 view .LVU663
 2011 01de 3C46     		mov	r4, r7
 321:lib/STM32_USB_Device_Library/Core/Src/usbd_ctlreq.c ****           }
 2012              		.loc 1 321 13 view .LVU664
 2013 01e0 27E7     		b	.L121
 2014              	.LVL266:
 2015              	.L162:
 328:lib/STM32_USB_Device_Library/Core/Src/usbd_ctlreq.c ****             break;
 2016              		.loc 1 328 13 is_stmt 1 view .LVU665
 2017 01e2 2946     		mov	r1, r5
 2018 01e4 FFF7FEFF 		bl	USBD_CtlError
 2019              	.LVL267:
 329:lib/STM32_USB_Device_Library/Core/Src/usbd_ctlreq.c ****           }
ARM GAS  C:\Users\BIGBIG~1\AppData\Local\Temp\cc5naY0b.s 			page 69


 2020              		.loc 1 329 13 view .LVU666
 218:lib/STM32_USB_Device_Library/Core/Src/usbd_ctlreq.c ****   ep_addr = LOBYTE(req->wIndex);
 2021              		.loc 1 218 22 is_stmt 0 view .LVU667
 2022 01e8 3C46     		mov	r4, r7
 329:lib/STM32_USB_Device_Library/Core/Src/usbd_ctlreq.c ****           }
 2023              		.loc 1 329 13 view .LVU668
 2024 01ea 22E7     		b	.L121
 2025              	.LVL268:
 2026              	.L163:
 333:lib/STM32_USB_Device_Library/Core/Src/usbd_ctlreq.c ****               &pdev->ep_out[ep_addr & 0x7FU];
 2027              		.loc 1 333 67 discriminator 1 view .LVU669
 2028 01ec 01F07F03 		and	r3, r1, #127
 2029              	.LVL269:
 333:lib/STM32_USB_Device_Library/Core/Src/usbd_ctlreq.c ****               &pdev->ep_out[ep_addr & 0x7FU];
 2030              		.loc 1 333 76 discriminator 1 view .LVU670
 2031 01f0 03EB8303 		add	r3, r3, r3, lsl #2
 2032 01f4 9C00     		lsls	r4, r3, #2
 2033 01f6 1034     		adds	r4, r4, #16
 2034 01f8 3444     		add	r4, r4, r6
 2035 01fa 0434     		adds	r4, r4, #4
 2036 01fc D2E7     		b	.L145
 2037              	.LVL270:
 2038              	.L146:
 340:lib/STM32_USB_Device_Library/Core/Src/usbd_ctlreq.c ****           {
 2039              		.loc 1 340 16 is_stmt 1 view .LVU671
 340:lib/STM32_USB_Device_Library/Core/Src/usbd_ctlreq.c ****           {
 2040              		.loc 1 340 20 is_stmt 0 view .LVU672
 2041 01fe 3046     		mov	r0, r6
 2042              	.LVL271:
 340:lib/STM32_USB_Device_Library/Core/Src/usbd_ctlreq.c ****           {
 2043              		.loc 1 340 20 view .LVU673
 2044 0200 FFF7FEFF 		bl	USBD_LL_IsStallEP
 2045              	.LVL272:
 340:lib/STM32_USB_Device_Library/Core/Src/usbd_ctlreq.c ****           {
 2046              		.loc 1 340 19 view .LVU674
 2047 0204 10B1     		cbz	r0, .L148
 342:lib/STM32_USB_Device_Library/Core/Src/usbd_ctlreq.c ****           }
 2048              		.loc 1 342 13 is_stmt 1 view .LVU675
 342:lib/STM32_USB_Device_Library/Core/Src/usbd_ctlreq.c ****           }
 2049              		.loc 1 342 25 is_stmt 0 view .LVU676
 2050 0206 0123     		movs	r3, #1
 2051 0208 2360     		str	r3, [r4]
 2052 020a D5E7     		b	.L147
 2053              	.L148:
 346:lib/STM32_USB_Device_Library/Core/Src/usbd_ctlreq.c ****           }
 2054              		.loc 1 346 13 is_stmt 1 view .LVU677
 346:lib/STM32_USB_Device_Library/Core/Src/usbd_ctlreq.c ****           }
 2055              		.loc 1 346 25 is_stmt 0 view .LVU678
 2056 020c 0023     		movs	r3, #0
 2057 020e 2360     		str	r3, [r4]
 2058 0210 D2E7     		b	.L147
 2059              		.cfi_endproc
 2060              	.LFE147:
 2062              		.section	.text.USBD_GetString,"ax",%progbits
 2063              		.align	1
 2064              		.global	USBD_GetString
 2065              		.syntax unified
ARM GAS  C:\Users\BIGBIG~1\AppData\Local\Temp\cc5naY0b.s 			page 70


 2066              		.thumb
 2067              		.thumb_func
 2068              		.fpu fpv5-d16
 2070              	USBD_GetString:
 2071              	.LVL273:
 2072              	.LFB157:
 883:lib/STM32_USB_Device_Library/Core/Src/usbd_ctlreq.c ****   uint8_t idx = 0U;
 2073              		.loc 1 883 1 is_stmt 1 view -0
 2074              		.cfi_startproc
 2075              		@ args = 0, pretend = 0, frame = 0
 2076              		@ frame_needed = 0, uses_anonymous_args = 0
 884:lib/STM32_USB_Device_Library/Core/Src/usbd_ctlreq.c ****   uint8_t *pdesc;
 2077              		.loc 1 884 3 view .LVU680
 885:lib/STM32_USB_Device_Library/Core/Src/usbd_ctlreq.c **** 
 2078              		.loc 1 885 3 view .LVU681
 887:lib/STM32_USB_Device_Library/Core/Src/usbd_ctlreq.c ****   {
 2079              		.loc 1 887 3 view .LVU682
 887:lib/STM32_USB_Device_Library/Core/Src/usbd_ctlreq.c ****   {
 2080              		.loc 1 887 6 is_stmt 0 view .LVU683
 2081 0000 C0B1     		cbz	r0, .L169
 883:lib/STM32_USB_Device_Library/Core/Src/usbd_ctlreq.c ****   uint8_t idx = 0U;
 2082              		.loc 1 883 1 view .LVU684
 2083 0002 70B5     		push	{r4, r5, r6, lr}
 2084              	.LCFI14:
 2085              		.cfi_def_cfa_offset 16
 2086              		.cfi_offset 4, -16
 2087              		.cfi_offset 5, -12
 2088              		.cfi_offset 6, -8
 2089              		.cfi_offset 14, -4
 2090 0004 0D46     		mov	r5, r1
 2091 0006 1646     		mov	r6, r2
 2092 0008 0446     		mov	r4, r0
 892:lib/STM32_USB_Device_Library/Core/Src/usbd_ctlreq.c ****   *len = ((uint16_t)USBD_GetLen(pdesc) * 2U) + 2U;
 2093              		.loc 1 892 3 is_stmt 1 view .LVU685
 2094              	.LVL274:
 893:lib/STM32_USB_Device_Library/Core/Src/usbd_ctlreq.c **** 
 2095              		.loc 1 893 3 view .LVU686
 893:lib/STM32_USB_Device_Library/Core/Src/usbd_ctlreq.c **** 
 2096              		.loc 1 893 21 is_stmt 0 view .LVU687
 2097 000a FFF7FEFF 		bl	USBD_GetLen
 2098              	.LVL275:
 893:lib/STM32_USB_Device_Library/Core/Src/usbd_ctlreq.c **** 
 2099              		.loc 1 893 46 view .LVU688
 2100 000e 0130     		adds	r0, r0, #1
 893:lib/STM32_USB_Device_Library/Core/Src/usbd_ctlreq.c **** 
 2101              		.loc 1 893 8 view .LVU689
 2102 0010 4000     		lsls	r0, r0, #1
 2103 0012 3080     		strh	r0, [r6]	@ movhi
 895:lib/STM32_USB_Device_Library/Core/Src/usbd_ctlreq.c ****   idx++;
 2104              		.loc 1 895 3 is_stmt 1 view .LVU690
 895:lib/STM32_USB_Device_Library/Core/Src/usbd_ctlreq.c ****   idx++;
 2105              		.loc 1 895 16 is_stmt 0 view .LVU691
 2106 0014 2870     		strb	r0, [r5]
 896:lib/STM32_USB_Device_Library/Core/Src/usbd_ctlreq.c ****   unicode[idx] = USB_DESC_TYPE_STRING;
 2107              		.loc 1 896 3 is_stmt 1 view .LVU692
 2108              	.LVL276:
 897:lib/STM32_USB_Device_Library/Core/Src/usbd_ctlreq.c ****   idx++;
ARM GAS  C:\Users\BIGBIG~1\AppData\Local\Temp\cc5naY0b.s 			page 71


 2109              		.loc 1 897 3 view .LVU693
 897:lib/STM32_USB_Device_Library/Core/Src/usbd_ctlreq.c ****   idx++;
 2110              		.loc 1 897 16 is_stmt 0 view .LVU694
 2111 0016 0323     		movs	r3, #3
 2112 0018 6B70     		strb	r3, [r5, #1]
 898:lib/STM32_USB_Device_Library/Core/Src/usbd_ctlreq.c **** 
 2113              		.loc 1 898 3 is_stmt 1 view .LVU695
 2114              	.LVL277:
 900:lib/STM32_USB_Device_Library/Core/Src/usbd_ctlreq.c ****   {
 2115              		.loc 1 900 3 view .LVU696
 898:lib/STM32_USB_Device_Library/Core/Src/usbd_ctlreq.c **** 
 2116              		.loc 1 898 6 is_stmt 0 view .LVU697
 2117 001a 0223     		movs	r3, #2
 2118              	.LVL278:
 2119              	.L166:
 900:lib/STM32_USB_Device_Library/Core/Src/usbd_ctlreq.c ****   {
 2120              		.loc 1 900 9 is_stmt 1 view .LVU698
 900:lib/STM32_USB_Device_Library/Core/Src/usbd_ctlreq.c ****   {
 2121              		.loc 1 900 10 is_stmt 0 view .LVU699
 2122 001c 2278     		ldrb	r2, [r4]	@ zero_extendqisi2
 900:lib/STM32_USB_Device_Library/Core/Src/usbd_ctlreq.c ****   {
 2123              		.loc 1 900 9 view .LVU700
 2124 001e 42B1     		cbz	r2, .L172
 902:lib/STM32_USB_Device_Library/Core/Src/usbd_ctlreq.c ****     pdesc++;
 2125              		.loc 1 902 5 is_stmt 1 view .LVU701
 902:lib/STM32_USB_Device_Library/Core/Src/usbd_ctlreq.c ****     pdesc++;
 2126              		.loc 1 902 18 is_stmt 0 view .LVU702
 2127 0020 EA54     		strb	r2, [r5, r3]
 903:lib/STM32_USB_Device_Library/Core/Src/usbd_ctlreq.c ****     idx++;
 2128              		.loc 1 903 5 is_stmt 1 view .LVU703
 903:lib/STM32_USB_Device_Library/Core/Src/usbd_ctlreq.c ****     idx++;
 2129              		.loc 1 903 10 is_stmt 0 view .LVU704
 2130 0022 0134     		adds	r4, r4, #1
 2131              	.LVL279:
 904:lib/STM32_USB_Device_Library/Core/Src/usbd_ctlreq.c **** 
 2132              		.loc 1 904 5 is_stmt 1 view .LVU705
 904:lib/STM32_USB_Device_Library/Core/Src/usbd_ctlreq.c **** 
 2133              		.loc 1 904 8 is_stmt 0 view .LVU706
 2134 0024 5A1C     		adds	r2, r3, #1
 2135 0026 D2B2     		uxtb	r2, r2
 2136              	.LVL280:
 906:lib/STM32_USB_Device_Library/Core/Src/usbd_ctlreq.c ****     idx++;
 2137              		.loc 1 906 5 is_stmt 1 view .LVU707
 906:lib/STM32_USB_Device_Library/Core/Src/usbd_ctlreq.c ****     idx++;
 2138              		.loc 1 906 18 is_stmt 0 view .LVU708
 2139 0028 0021     		movs	r1, #0
 2140 002a A954     		strb	r1, [r5, r2]
 907:lib/STM32_USB_Device_Library/Core/Src/usbd_ctlreq.c ****   }
 2141              		.loc 1 907 5 is_stmt 1 view .LVU709
 907:lib/STM32_USB_Device_Library/Core/Src/usbd_ctlreq.c ****   }
 2142              		.loc 1 907 8 is_stmt 0 view .LVU710
 2143 002c 0233     		adds	r3, r3, #2
 2144 002e DBB2     		uxtb	r3, r3
 2145              	.LVL281:
 907:lib/STM32_USB_Device_Library/Core/Src/usbd_ctlreq.c ****   }
 2146              		.loc 1 907 8 view .LVU711
 2147 0030 F4E7     		b	.L166
ARM GAS  C:\Users\BIGBIG~1\AppData\Local\Temp\cc5naY0b.s 			page 72


 2148              	.L172:
 909:lib/STM32_USB_Device_Library/Core/Src/usbd_ctlreq.c **** 
 2149              		.loc 1 909 1 view .LVU712
 2150 0032 70BD     		pop	{r4, r5, r6, pc}
 2151              	.LVL282:
 2152              	.L169:
 2153              	.LCFI15:
 2154              		.cfi_def_cfa_offset 0
 2155              		.cfi_restore 4
 2156              		.cfi_restore 5
 2157              		.cfi_restore 6
 2158              		.cfi_restore 14
 909:lib/STM32_USB_Device_Library/Core/Src/usbd_ctlreq.c **** 
 2159              		.loc 1 909 1 view .LVU713
 2160 0034 7047     		bx	lr
 2161              		.cfi_endproc
 2162              	.LFE157:
 2164              		.section	.bss.cfgidx.10841,"aw",%nobits
 2165              		.set	.LANCHOR0,. + 0
 2168              	cfgidx.10841:
 2169 0000 00       		.space	1
 2170              		.text
 2171              	.Letext0:
 2172              		.file 3 "c:\\program files (x86)\\gnu arm embedded toolchain\\9 2020-q2-update\\arm-none-eabi\\inc
